Archive member included because of file (symbol)

/home/dhylands/gcc-arm-none-eabi/bin/../lib/gcc/arm-none-eabi/4.8.3/../../../../arm-none-eabi/lib/armv7e-m//libm.a(lib_a-sf_asinh.o)
                              build/py/modmath.o (asinhf)
/home/dhylands/gcc-arm-none-eabi/bin/../lib/gcc/arm-none-eabi/4.8.3/../../../../arm-none-eabi/lib/armv7e-m//libm.a(lib_a-sf_atan.o)
                              build/py/modmath.o (atanf)
/home/dhylands/gcc-arm-none-eabi/bin/../lib/gcc/arm-none-eabi/4.8.3/../../../../arm-none-eabi/lib/armv7e-m//libm.a(lib_a-sf_ceil.o)
                              build/py/modmath.o (ceilf)
/home/dhylands/gcc-arm-none-eabi/bin/../lib/gcc/arm-none-eabi/4.8.3/../../../../arm-none-eabi/lib/armv7e-m//libm.a(lib_a-sf_cos.o)
                              build/py/objcomplex.o (cosf)
/home/dhylands/gcc-arm-none-eabi/bin/../lib/gcc/arm-none-eabi/4.8.3/../../../../arm-none-eabi/lib/armv7e-m//libm.a(lib_a-sf_expm1.o)
                              build/py/modmath.o (expm1f)
/home/dhylands/gcc-arm-none-eabi/bin/../lib/gcc/arm-none-eabi/4.8.3/../../../../arm-none-eabi/lib/armv7e-m//libm.a(lib_a-sf_fabs.o)
                              /home/dhylands/gcc-arm-none-eabi/bin/../lib/gcc/arm-none-eabi/4.8.3/../../../../arm-none-eabi/lib/armv7e-m//libm.a(lib_a-sf_asinh.o) (fabsf)
/home/dhylands/gcc-arm-none-eabi/bin/../lib/gcc/arm-none-eabi/4.8.3/../../../../arm-none-eabi/lib/armv7e-m//libm.a(lib_a-sf_floor.o)
                              build/py/objfloat.o (floorf)
/home/dhylands/gcc-arm-none-eabi/bin/../lib/gcc/arm-none-eabi/4.8.3/../../../../arm-none-eabi/lib/armv7e-m//libm.a(lib_a-sf_fpclassify.o)
                              build/py/objint_mpz.o (__fpclassifyf)
/home/dhylands/gcc-arm-none-eabi/bin/../lib/gcc/arm-none-eabi/4.8.3/../../../../arm-none-eabi/lib/armv7e-m//libm.a(lib_a-sf_frexp.o)
                              build/py/modmath.o (frexpf)
/home/dhylands/gcc-arm-none-eabi/bin/../lib/gcc/arm-none-eabi/4.8.3/../../../../arm-none-eabi/lib/armv7e-m//libm.a(lib_a-sf_ldexp.o)
                              build/py/modmath.o (ldexpf)
/home/dhylands/gcc-arm-none-eabi/bin/../lib/gcc/arm-none-eabi/4.8.3/../../../../arm-none-eabi/lib/armv7e-m//libm.a(lib_a-sf_log1p.o)
                              /home/dhylands/gcc-arm-none-eabi/bin/../lib/gcc/arm-none-eabi/4.8.3/../../../../arm-none-eabi/lib/armv7e-m//libm.a(lib_a-sf_asinh.o) (log1pf)
/home/dhylands/gcc-arm-none-eabi/bin/../lib/gcc/arm-none-eabi/4.8.3/../../../../arm-none-eabi/lib/armv7e-m//libm.a(lib_a-sf_log2.o)
                              build/py/modmath.o (log2f)
/home/dhylands/gcc-arm-none-eabi/bin/../lib/gcc/arm-none-eabi/4.8.3/../../../../arm-none-eabi/lib/armv7e-m//libm.a(lib_a-sf_modf.o)
                              build/py/modmath.o (modff)
/home/dhylands/gcc-arm-none-eabi/bin/../lib/gcc/arm-none-eabi/4.8.3/../../../../arm-none-eabi/lib/armv7e-m//libm.a(lib_a-sf_round.o)
                              build/py/modbuiltins.o (roundf)
/home/dhylands/gcc-arm-none-eabi/bin/../lib/gcc/arm-none-eabi/4.8.3/../../../../arm-none-eabi/lib/armv7e-m//libm.a(lib_a-sf_scalbn.o)
                              /home/dhylands/gcc-arm-none-eabi/bin/../lib/gcc/arm-none-eabi/4.8.3/../../../../arm-none-eabi/lib/armv7e-m//libm.a(lib_a-sf_ldexp.o) (scalbnf)
/home/dhylands/gcc-arm-none-eabi/bin/../lib/gcc/arm-none-eabi/4.8.3/../../../../arm-none-eabi/lib/armv7e-m//libm.a(lib_a-sf_sin.o)
                              build/py/objcomplex.o (sinf)
/home/dhylands/gcc-arm-none-eabi/bin/../lib/gcc/arm-none-eabi/4.8.3/../../../../arm-none-eabi/lib/armv7e-m//libm.a(lib_a-sf_tan.o)
                              build/py/modmath.o (tanf)
/home/dhylands/gcc-arm-none-eabi/bin/../lib/gcc/arm-none-eabi/4.8.3/../../../../arm-none-eabi/lib/armv7e-m//libm.a(lib_a-sf_tanh.o)
                              build/py/modmath.o (tanhf)
/home/dhylands/gcc-arm-none-eabi/bin/../lib/gcc/arm-none-eabi/4.8.3/../../../../arm-none-eabi/lib/armv7e-m//libm.a(lib_a-wf_acos.o)
                              build/py/modmath.o (acosf)
/home/dhylands/gcc-arm-none-eabi/bin/../lib/gcc/arm-none-eabi/4.8.3/../../../../arm-none-eabi/lib/armv7e-m//libm.a(lib_a-wf_acosh.o)
                              build/py/modmath.o (acoshf)
/home/dhylands/gcc-arm-none-eabi/bin/../lib/gcc/arm-none-eabi/4.8.3/../../../../arm-none-eabi/lib/armv7e-m//libm.a(lib_a-wf_asin.o)
                              build/py/modmath.o (asinf)
/home/dhylands/gcc-arm-none-eabi/bin/../lib/gcc/arm-none-eabi/4.8.3/../../../../arm-none-eabi/lib/armv7e-m//libm.a(lib_a-wf_atan2.o)
                              build/py/objcomplex.o (atan2f)
/home/dhylands/gcc-arm-none-eabi/bin/../lib/gcc/arm-none-eabi/4.8.3/../../../../arm-none-eabi/lib/armv7e-m//libm.a(lib_a-wf_atanh.o)
                              build/py/modmath.o (atanhf)
/home/dhylands/gcc-arm-none-eabi/bin/../lib/gcc/arm-none-eabi/4.8.3/../../../../arm-none-eabi/lib/armv7e-m//libm.a(lib_a-wf_cosh.o)
                              build/py/modmath.o (coshf)
/home/dhylands/gcc-arm-none-eabi/bin/../lib/gcc/arm-none-eabi/4.8.3/../../../../arm-none-eabi/lib/armv7e-m//libm.a(lib_a-wf_exp.o)
                              build/py/objcomplex.o (expf)
/home/dhylands/gcc-arm-none-eabi/bin/../lib/gcc/arm-none-eabi/4.8.3/../../../../arm-none-eabi/lib/armv7e-m//libm.a(lib_a-wf_fmod.o)
                              build/py/objfloat.o (fmodf)
/home/dhylands/gcc-arm-none-eabi/bin/../lib/gcc/arm-none-eabi/4.8.3/../../../../arm-none-eabi/lib/armv7e-m//libm.a(lib_a-wf_log.o)
                              build/py/objcomplex.o (logf)
/home/dhylands/gcc-arm-none-eabi/bin/../lib/gcc/arm-none-eabi/4.8.3/../../../../arm-none-eabi/lib/armv7e-m//libm.a(lib_a-wf_log10.o)
                              build/py/modmath.o (log10f)
/home/dhylands/gcc-arm-none-eabi/bin/../lib/gcc/arm-none-eabi/4.8.3/../../../../arm-none-eabi/lib/armv7e-m//libm.a(lib_a-wf_pow.o)
                              build/py/objfloat.o (powf)
/home/dhylands/gcc-arm-none-eabi/bin/../lib/gcc/arm-none-eabi/4.8.3/../../../../arm-none-eabi/lib/armv7e-m//libm.a(lib_a-wf_sinh.o)
                              build/py/modmath.o (sinhf)
/home/dhylands/gcc-arm-none-eabi/bin/../lib/gcc/arm-none-eabi/4.8.3/../../../../arm-none-eabi/lib/armv7e-m//libm.a(lib_a-wf_sqrt.o)
                              build/py/objcomplex.o (sqrtf)
/home/dhylands/gcc-arm-none-eabi/bin/../lib/gcc/arm-none-eabi/4.8.3/../../../../arm-none-eabi/lib/armv7e-m//libm.a(lib_a-ef_acos.o)
                              /home/dhylands/gcc-arm-none-eabi/bin/../lib/gcc/arm-none-eabi/4.8.3/../../../../arm-none-eabi/lib/armv7e-m//libm.a(lib_a-wf_acos.o) (__ieee754_acosf)
/home/dhylands/gcc-arm-none-eabi/bin/../lib/gcc/arm-none-eabi/4.8.3/../../../../arm-none-eabi/lib/armv7e-m//libm.a(lib_a-ef_acosh.o)
                              /home/dhylands/gcc-arm-none-eabi/bin/../lib/gcc/arm-none-eabi/4.8.3/../../../../arm-none-eabi/lib/armv7e-m//libm.a(lib_a-wf_acosh.o) (__ieee754_acoshf)
/home/dhylands/gcc-arm-none-eabi/bin/../lib/gcc/arm-none-eabi/4.8.3/../../../../arm-none-eabi/lib/armv7e-m//libm.a(lib_a-ef_asin.o)
                              /home/dhylands/gcc-arm-none-eabi/bin/../lib/gcc/arm-none-eabi/4.8.3/../../../../arm-none-eabi/lib/armv7e-m//libm.a(lib_a-wf_asin.o) (__ieee754_asinf)
/home/dhylands/gcc-arm-none-eabi/bin/../lib/gcc/arm-none-eabi/4.8.3/../../../../arm-none-eabi/lib/armv7e-m//libm.a(lib_a-ef_atan2.o)
                              /home/dhylands/gcc-arm-none-eabi/bin/../lib/gcc/arm-none-eabi/4.8.3/../../../../arm-none-eabi/lib/armv7e-m//libm.a(lib_a-wf_atan2.o) (__ieee754_atan2f)
/home/dhylands/gcc-arm-none-eabi/bin/../lib/gcc/arm-none-eabi/4.8.3/../../../../arm-none-eabi/lib/armv7e-m//libm.a(lib_a-ef_atanh.o)
                              /home/dhylands/gcc-arm-none-eabi/bin/../lib/gcc/arm-none-eabi/4.8.3/../../../../arm-none-eabi/lib/armv7e-m//libm.a(lib_a-wf_atanh.o) (__ieee754_atanhf)
/home/dhylands/gcc-arm-none-eabi/bin/../lib/gcc/arm-none-eabi/4.8.3/../../../../arm-none-eabi/lib/armv7e-m//libm.a(lib_a-ef_cosh.o)
                              /home/dhylands/gcc-arm-none-eabi/bin/../lib/gcc/arm-none-eabi/4.8.3/../../../../arm-none-eabi/lib/armv7e-m//libm.a(lib_a-wf_cosh.o) (__ieee754_coshf)
/home/dhylands/gcc-arm-none-eabi/bin/../lib/gcc/arm-none-eabi/4.8.3/../../../../arm-none-eabi/lib/armv7e-m//libm.a(lib_a-ef_exp.o)
                              /home/dhylands/gcc-arm-none-eabi/bin/../lib/gcc/arm-none-eabi/4.8.3/../../../../arm-none-eabi/lib/armv7e-m//libm.a(lib_a-wf_exp.o) (__ieee754_expf)
/home/dhylands/gcc-arm-none-eabi/bin/../lib/gcc/arm-none-eabi/4.8.3/../../../../arm-none-eabi/lib/armv7e-m//libm.a(lib_a-ef_fmod.o)
                              /home/dhylands/gcc-arm-none-eabi/bin/../lib/gcc/arm-none-eabi/4.8.3/../../../../arm-none-eabi/lib/armv7e-m//libm.a(lib_a-wf_fmod.o) (__ieee754_fmodf)
/home/dhylands/gcc-arm-none-eabi/bin/../lib/gcc/arm-none-eabi/4.8.3/../../../../arm-none-eabi/lib/armv7e-m//libm.a(lib_a-ef_log.o)
                              /home/dhylands/gcc-arm-none-eabi/bin/../lib/gcc/arm-none-eabi/4.8.3/../../../../arm-none-eabi/lib/armv7e-m//libm.a(lib_a-sf_asinh.o) (__ieee754_logf)
/home/dhylands/gcc-arm-none-eabi/bin/../lib/gcc/arm-none-eabi/4.8.3/../../../../arm-none-eabi/lib/armv7e-m//libm.a(lib_a-ef_log10.o)
                              /home/dhylands/gcc-arm-none-eabi/bin/../lib/gcc/arm-none-eabi/4.8.3/../../../../arm-none-eabi/lib/armv7e-m//libm.a(lib_a-wf_log10.o) (__ieee754_log10f)
/home/dhylands/gcc-arm-none-eabi/bin/../lib/gcc/arm-none-eabi/4.8.3/../../../../arm-none-eabi/lib/armv7e-m//libm.a(lib_a-ef_pow.o)
                              /home/dhylands/gcc-arm-none-eabi/bin/../lib/gcc/arm-none-eabi/4.8.3/../../../../arm-none-eabi/lib/armv7e-m//libm.a(lib_a-wf_pow.o) (__ieee754_powf)
/home/dhylands/gcc-arm-none-eabi/bin/../lib/gcc/arm-none-eabi/4.8.3/../../../../arm-none-eabi/lib/armv7e-m//libm.a(lib_a-ef_rem_pio2.o)
                              /home/dhylands/gcc-arm-none-eabi/bin/../lib/gcc/arm-none-eabi/4.8.3/../../../../arm-none-eabi/lib/armv7e-m//libm.a(lib_a-sf_cos.o) (__ieee754_rem_pio2f)
/home/dhylands/gcc-arm-none-eabi/bin/../lib/gcc/arm-none-eabi/4.8.3/../../../../arm-none-eabi/lib/armv7e-m//libm.a(lib_a-ef_sinh.o)
                              /home/dhylands/gcc-arm-none-eabi/bin/../lib/gcc/arm-none-eabi/4.8.3/../../../../arm-none-eabi/lib/armv7e-m//libm.a(lib_a-wf_sinh.o) (__ieee754_sinhf)
/home/dhylands/gcc-arm-none-eabi/bin/../lib/gcc/arm-none-eabi/4.8.3/../../../../arm-none-eabi/lib/armv7e-m//libm.a(lib_a-ef_sqrt.o)
                              /home/dhylands/gcc-arm-none-eabi/bin/../lib/gcc/arm-none-eabi/4.8.3/../../../../arm-none-eabi/lib/armv7e-m//libm.a(lib_a-sf_asinh.o) (__ieee754_sqrtf)
/home/dhylands/gcc-arm-none-eabi/bin/../lib/gcc/arm-none-eabi/4.8.3/../../../../arm-none-eabi/lib/armv7e-m//libm.a(lib_a-kf_cos.o)
                              /home/dhylands/gcc-arm-none-eabi/bin/../lib/gcc/arm-none-eabi/4.8.3/../../../../arm-none-eabi/lib/armv7e-m//libm.a(lib_a-sf_cos.o) (__kernel_cosf)
/home/dhylands/gcc-arm-none-eabi/bin/../lib/gcc/arm-none-eabi/4.8.3/../../../../arm-none-eabi/lib/armv7e-m//libm.a(lib_a-kf_rem_pio2.o)
                              /home/dhylands/gcc-arm-none-eabi/bin/../lib/gcc/arm-none-eabi/4.8.3/../../../../arm-none-eabi/lib/armv7e-m//libm.a(lib_a-ef_rem_pio2.o) (__kernel_rem_pio2f)
/home/dhylands/gcc-arm-none-eabi/bin/../lib/gcc/arm-none-eabi/4.8.3/../../../../arm-none-eabi/lib/armv7e-m//libm.a(lib_a-kf_sin.o)
                              /home/dhylands/gcc-arm-none-eabi/bin/../lib/gcc/arm-none-eabi/4.8.3/../../../../arm-none-eabi/lib/armv7e-m//libm.a(lib_a-sf_cos.o) (__kernel_sinf)
/home/dhylands/gcc-arm-none-eabi/bin/../lib/gcc/arm-none-eabi/4.8.3/../../../../arm-none-eabi/lib/armv7e-m//libm.a(lib_a-kf_tan.o)
                              /home/dhylands/gcc-arm-none-eabi/bin/../lib/gcc/arm-none-eabi/4.8.3/../../../../arm-none-eabi/lib/armv7e-m//libm.a(lib_a-sf_tan.o) (__kernel_tanf)
/home/dhylands/gcc-arm-none-eabi/bin/../lib/gcc/arm-none-eabi/4.8.3/../../../../arm-none-eabi/lib/armv7e-m//libm.a(lib_a-s_lib_ver.o)
                              /home/dhylands/gcc-arm-none-eabi/bin/../lib/gcc/arm-none-eabi/4.8.3/../../../../arm-none-eabi/lib/armv7e-m//libm.a(lib_a-wf_acos.o) (__fdlib_version)
/home/dhylands/gcc-arm-none-eabi/bin/../lib/gcc/arm-none-eabi/4.8.3/../../../../arm-none-eabi/lib/armv7e-m//libm.a(lib_a-s_matherr.o)
                              /home/dhylands/gcc-arm-none-eabi/bin/../lib/gcc/arm-none-eabi/4.8.3/../../../../arm-none-eabi/lib/armv7e-m//libm.a(lib_a-wf_acos.o) (matherr)
/home/dhylands/gcc-arm-none-eabi/bin/../lib/gcc/arm-none-eabi/4.8.3/../../../../arm-none-eabi/lib/armv7e-m//libm.a(lib_a-s_nan.o)
                              /home/dhylands/gcc-arm-none-eabi/bin/../lib/gcc/arm-none-eabi/4.8.3/../../../../arm-none-eabi/lib/armv7e-m//libm.a(lib_a-wf_acos.o) (nan)
/home/dhylands/gcc-arm-none-eabi/bin/../lib/gcc/arm-none-eabi/4.8.3/../../../../arm-none-eabi/lib/armv7e-m//libm.a(lib_a-s_rint.o)
                              /home/dhylands/gcc-arm-none-eabi/bin/../lib/gcc/arm-none-eabi/4.8.3/../../../../arm-none-eabi/lib/armv7e-m//libm.a(lib_a-wf_pow.o) (rint)
/home/dhylands/gcc-arm-none-eabi/bin/../lib/gcc/arm-none-eabi/4.8.3/../../../../arm-none-eabi/lib/armv7e-m//libm.a(lib_a-sf_copysign.o)
                              /home/dhylands/gcc-arm-none-eabi/bin/../lib/gcc/arm-none-eabi/4.8.3/../../../../arm-none-eabi/lib/armv7e-m//libm.a(lib_a-sf_scalbn.o) (copysignf)
/home/dhylands/gcc-arm-none-eabi/bin/../lib/gcc/arm-none-eabi/4.8.3/../../../../arm-none-eabi/lib/armv7e-m//libm.a(lib_a-sf_finite.o)
                              /home/dhylands/gcc-arm-none-eabi/bin/../lib/gcc/arm-none-eabi/4.8.3/../../../../arm-none-eabi/lib/armv7e-m//libm.a(lib_a-sf_ldexp.o) (finitef)
/home/dhylands/gcc-arm-none-eabi/bin/../lib/gcc/arm-none-eabi/4.8.3/../../../../arm-none-eabi/lib/armv7e-m//libm.a(lib_a-sf_nan.o)
                              /home/dhylands/gcc-arm-none-eabi/bin/../lib/gcc/arm-none-eabi/4.8.3/../../../../arm-none-eabi/lib/armv7e-m//libm.a(lib_a-ef_pow.o) (nanf)
/home/dhylands/gcc-arm-none-eabi/bin/../lib/gcc/arm-none-eabi/4.8.3/../../../../arm-none-eabi/lib/armv7e-m//libc.a(lib_a-errno.o)
                              /home/dhylands/gcc-arm-none-eabi/bin/../lib/gcc/arm-none-eabi/4.8.3/../../../../arm-none-eabi/lib/armv7e-m//libm.a(lib_a-sf_ldexp.o) (__errno)
/home/dhylands/gcc-arm-none-eabi/bin/../lib/gcc/arm-none-eabi/4.8.3/../../../../arm-none-eabi/lib/armv7e-m//libc.a(lib_a-impure.o)
                              /home/dhylands/gcc-arm-none-eabi/bin/../lib/gcc/arm-none-eabi/4.8.3/../../../../arm-none-eabi/lib/armv7e-m//libc.a(lib_a-errno.o) (_impure_ptr)
/home/dhylands/gcc-arm-none-eabi/bin/../lib/gcc/arm-none-eabi/4.8.3/armv7e-m//libgcc.a(_arm_addsubdf3.o)
                              /home/dhylands/gcc-arm-none-eabi/bin/../lib/gcc/arm-none-eabi/4.8.3/../../../../arm-none-eabi/lib/armv7e-m//libm.a(lib_a-s_rint.o) (__aeabi_dsub)
/home/dhylands/gcc-arm-none-eabi/bin/../lib/gcc/arm-none-eabi/4.8.3/armv7e-m//libgcc.a(_arm_muldivdf3.o)
                              /home/dhylands/gcc-arm-none-eabi/bin/../lib/gcc/arm-none-eabi/4.8.3/../../../../arm-none-eabi/lib/armv7e-m//libm.a(lib_a-wf_acosh.o) (__aeabi_ddiv)
/home/dhylands/gcc-arm-none-eabi/bin/../lib/gcc/arm-none-eabi/4.8.3/armv7e-m//libgcc.a(_arm_cmpdf2.o)
                              /home/dhylands/gcc-arm-none-eabi/bin/../lib/gcc/arm-none-eabi/4.8.3/../../../../arm-none-eabi/lib/armv7e-m//libm.a(lib_a-wf_pow.o) (__aeabi_dcmpeq)
/home/dhylands/gcc-arm-none-eabi/bin/../lib/gcc/arm-none-eabi/4.8.3/armv7e-m//libgcc.a(_arm_truncdfsf2.o)
                              build/py/binary.o (__aeabi_d2f)
/home/dhylands/gcc-arm-none-eabi/bin/../lib/gcc/arm-none-eabi/4.8.3/armv7e-m//libgcc.a(_arm_addsubsf3.o)
                              build/py/formatfloat.o (__aeabi_fsub)
/home/dhylands/gcc-arm-none-eabi/bin/../lib/gcc/arm-none-eabi/4.8.3/armv7e-m//libgcc.a(_arm_muldivsf3.o)
                              build/py/mpz.o (__aeabi_fmul)
/home/dhylands/gcc-arm-none-eabi/bin/../lib/gcc/arm-none-eabi/4.8.3/armv7e-m//libgcc.a(_arm_cmpsf2.o)
                              build/py/objcomplex.o (__aeabi_fcmpeq)
/home/dhylands/gcc-arm-none-eabi/bin/../lib/gcc/arm-none-eabi/4.8.3/armv7e-m//libgcc.a(_arm_fixsfsi.o)
                              build/py/formatfloat.o (__aeabi_f2iz)
/home/dhylands/gcc-arm-none-eabi/bin/../lib/gcc/arm-none-eabi/4.8.3/armv7e-m//libgcc.a(_arm_fixunssfsi.o)
                              build/timer.o (__aeabi_f2uiz)

Allocating common symbols
Common symbol       size              file

usb_rx_byte_count_data
                    0x8               build/core/usb_dev.o
usb_cdc_line_coding
                    0x8               build/core/usb_serial.o
mp_state_ctx        0x1c4             build/py/mpstate.o

Discarded input sections

 .text          0x00000000        0x0 build/py/mpstate.o
 .data          0x00000000        0x0 build/py/mpstate.o
 .bss           0x00000000        0x0 build/py/mpstate.o
 .text          0x00000000        0x0 build/py/nlrx86.o
 .data          0x00000000        0x0 build/py/nlrx86.o
 .bss           0x00000000        0x0 build/py/nlrx86.o
 .ARM.attributes
                0x00000000       0x21 build/py/nlrx86.o
 .text          0x00000000        0x0 build/py/nlrx64.o
 .data          0x00000000        0x0 build/py/nlrx64.o
 .bss           0x00000000        0x0 build/py/nlrx64.o
 .ARM.attributes
                0x00000000       0x21 build/py/nlrx64.o
 .data          0x00000000        0x0 build/py/nlrthumb.o
 .bss           0x00000000        0x0 build/py/nlrthumb.o
 .text          0x00000000        0x0 build/py/nlrxtensa.o
 .data          0x00000000        0x0 build/py/nlrxtensa.o
 .bss           0x00000000        0x0 build/py/nlrxtensa.o
 .ARM.attributes
                0x00000000       0x21 build/py/nlrxtensa.o
 .text          0x00000000        0x0 build/py/nlrsetjmp.o
 .data          0x00000000        0x0 build/py/nlrsetjmp.o
 .bss           0x00000000        0x0 build/py/nlrsetjmp.o
 .comment       0x00000000       0x71 build/py/nlrsetjmp.o
 .ARM.attributes
                0x00000000       0x33 build/py/nlrsetjmp.o
 .text          0x00000000        0x0 build/py/malloc.o
 .data          0x00000000        0x0 build/py/malloc.o
 .bss           0x00000000        0x0 build/py/malloc.o
 .text.m_malloc_with_finaliser
                0x00000000       0x1a build/py/malloc.o
 .text          0x00000000        0x0 build/py/gc.o
 .data          0x00000000        0x0 build/py/gc.o
 .bss           0x00000000        0x0 build/py/gc.o
 .text          0x00000000        0x0 build/py/qstr.o
 .data          0x00000000        0x0 build/py/qstr.o
 .bss           0x00000000        0x0 build/py/qstr.o
 .text          0x00000000        0x0 build/py/vstr.o
 .data          0x00000000        0x0 build/py/vstr.o
 .bss           0x00000000        0x0 build/py/vstr.o
 .text.vstr_new_size
                0x00000000       0x18 build/py/vstr.o
 .text.vstr_hint_size
                0x00000000       0x18 build/py/vstr.o
 .text.vstr_ins_byte
                0x00000000        0xe build/py/vstr.o
 .text.vstr_cut_head_bytes
                0x00000000        0x8 build/py/vstr.o
 .text          0x00000000        0x0 build/py/unicode.o
 .data          0x00000000        0x0 build/py/unicode.o
 .bss           0x00000000        0x0 build/py/unicode.o
 .text.utf8_get_char
                0x00000000        0x4 build/py/unicode.o
 .text.utf8_ptr_to_index
                0x00000000       0x1c build/py/unicode.o
 .text.unichar_isprint
                0x00000000       0x14 build/py/unicode.o
 .text          0x00000000        0x0 build/py/mpz.o
 .data          0x00000000        0x0 build/py/mpz.o
 .bss           0x00000000        0x0 build/py/mpz.o
 .text.mpz_zero
                0x00000000       0x12 build/py/mpz.o
 .text.mpz_from_int
                0x00000000       0x14 build/py/mpz.o
 .text.mpz_from_ll
                0x00000000       0x1e build/py/mpz.o
 .text.mpz_from_float
                0x00000000       0x14 build/py/mpz.o
 .text.mpz_from_str
                0x00000000       0x28 build/py/mpz.o
 .text.mpz_is_pos
                0x00000000       0x16 build/py/mpz.o
 .text.mpz_is_neg
                0x00000000       0x14 build/py/mpz.o
 .text.mpz_is_even
                0x00000000       0x16 build/py/mpz.o
 .text.mpz_abs_inpl
                0x00000000       0x16 build/py/mpz.o
 .text.mpz_gcd  0x00000000       0xda build/py/mpz.o
 .text.mpz_lcm  0x00000000       0x5a build/py/mpz.o
 .text.mpz_divmod
                0x00000000       0x28 build/py/mpz.o
 .text.mpz_as_uint_checked
                0x00000000       0x30 build/py/mpz.o
 .text          0x00000000        0x0 build/py/lexer.o
 .data          0x00000000        0x0 build/py/lexer.o
 .bss           0x00000000        0x0 build/py/lexer.o
 .text          0x00000000        0x0 build/py/lexerstr.o
 .data          0x00000000        0x0 build/py/lexerstr.o
 .bss           0x00000000        0x0 build/py/lexerstr.o
 .text          0x00000000        0x0 build/py/lexerunix.o
 .data          0x00000000        0x0 build/py/lexerunix.o
 .bss           0x00000000        0x0 build/py/lexerunix.o
 .comment       0x00000000       0x71 build/py/lexerunix.o
 .ARM.attributes
                0x00000000       0x33 build/py/lexerunix.o
 .text          0x00000000        0x0 build/py/parse.o
 .data          0x00000000        0x0 build/py/parse.o
 .bss           0x00000000        0x0 build/py/parse.o
 .text          0x00000000        0x0 build/py/scope.o
 .data          0x00000000        0x0 build/py/scope.o
 .bss           0x00000000        0x0 build/py/scope.o
 .text          0x00000000        0x0 build/py/compile.o
 .data          0x00000000        0x0 build/py/compile.o
 .bss           0x00000000        0x0 build/py/compile.o
 .text          0x00000000        0x0 build/py/emitcommon.o
 .data          0x00000000        0x0 build/py/emitcommon.o
 .bss           0x00000000        0x0 build/py/emitcommon.o
 .text          0x00000000        0x0 build/py/emitpass1.o
 .data          0x00000000        0x0 build/py/emitpass1.o
 .bss           0x00000000        0x0 build/py/emitpass1.o
 .text          0x00000000        0x0 build/py/emitcpy.o
 .data          0x00000000        0x0 build/py/emitcpy.o
 .bss           0x00000000        0x0 build/py/emitcpy.o
 .comment       0x00000000       0x71 build/py/emitcpy.o
 .ARM.attributes
                0x00000000       0x33 build/py/emitcpy.o
 .text          0x00000000        0x0 build/py/emitbc.o
 .data          0x00000000        0x0 build/py/emitbc.o
 .bss           0x00000000        0x0 build/py/emitbc.o
 .text          0x00000000        0x0 build/py/asmx64.o
 .data          0x00000000        0x0 build/py/asmx64.o
 .bss           0x00000000        0x0 build/py/asmx64.o
 .comment       0x00000000       0x71 build/py/asmx64.o
 .ARM.attributes
                0x00000000       0x33 build/py/asmx64.o
 .text          0x00000000        0x0 build/py/emitnx64.o
 .data          0x00000000        0x0 build/py/emitnx64.o
 .bss           0x00000000        0x0 build/py/emitnx64.o
 .comment       0x00000000       0x71 build/py/emitnx64.o
 .ARM.attributes
                0x00000000       0x33 build/py/emitnx64.o
 .text          0x00000000        0x0 build/py/asmx86.o
 .data          0x00000000        0x0 build/py/asmx86.o
 .bss           0x00000000        0x0 build/py/asmx86.o
 .comment       0x00000000       0x71 build/py/asmx86.o
 .ARM.attributes
                0x00000000       0x33 build/py/asmx86.o
 .text          0x00000000        0x0 build/py/emitnx86.o
 .data          0x00000000        0x0 build/py/emitnx86.o
 .bss           0x00000000        0x0 build/py/emitnx86.o
 .comment       0x00000000       0x71 build/py/emitnx86.o
 .ARM.attributes
                0x00000000       0x33 build/py/emitnx86.o
 .text          0x00000000        0x0 build/py/asmthumb.o
 .data          0x00000000        0x0 build/py/asmthumb.o
 .bss           0x00000000        0x0 build/py/asmthumb.o
 .text          0x00000000        0x0 build/py/emitnthumb.o
 .data          0x00000000        0x0 build/py/emitnthumb.o
 .bss           0x00000000        0x0 build/py/emitnthumb.o
 .text.unlikely.asm_thumb_format_3.part.25
                0x00000000       0x1c build/py/emitnthumb.o
 .rodata.__func__.7383
                0x00000000       0x13 build/py/emitnthumb.o
 .text          0x00000000        0x0 build/py/emitinlinethumb.o
 .data          0x00000000        0x0 build/py/emitinlinethumb.o
 .bss           0x00000000        0x0 build/py/emitinlinethumb.o
 .text          0x00000000        0x0 build/py/asmarm.o
 .data          0x00000000        0x0 build/py/asmarm.o
 .bss           0x00000000        0x0 build/py/asmarm.o
 .comment       0x00000000       0x71 build/py/asmarm.o
 .ARM.attributes
                0x00000000       0x33 build/py/asmarm.o
 .text          0x00000000        0x0 build/py/emitnarm.o
 .data          0x00000000        0x0 build/py/emitnarm.o
 .bss           0x00000000        0x0 build/py/emitnarm.o
 .comment       0x00000000       0x71 build/py/emitnarm.o
 .ARM.attributes
                0x00000000       0x33 build/py/emitnarm.o
 .text          0x00000000        0x0 build/py/formatfloat.o
 .data          0x00000000        0x0 build/py/formatfloat.o
 .bss           0x00000000        0x0 build/py/formatfloat.o
 .text          0x00000000        0x0 build/py/parsenumbase.o
 .data          0x00000000        0x0 build/py/parsenumbase.o
 .bss           0x00000000        0x0 build/py/parsenumbase.o
 .text          0x00000000        0x0 build/py/parsenum.o
 .data          0x00000000        0x0 build/py/parsenum.o
 .bss           0x00000000        0x0 build/py/parsenum.o
 .text          0x00000000        0x0 build/py/emitglue.o
 .data          0x00000000        0x0 build/py/emitglue.o
 .bss           0x00000000        0x0 build/py/emitglue.o
 .text          0x00000000        0x0 build/py/runtime.o
 .data          0x00000000        0x0 build/py/runtime.o
 .bss           0x00000000        0x0 build/py/runtime.o
 .text.mp_deinit
                0x00000000        0x4 build/py/runtime.o
 .text.mp_call_function_2
                0x00000000       0x16 build/py/runtime.o
 .text.mp_not_implemented
                0x00000000       0x14 build/py/runtime.o
 .text          0x00000000        0x0 build/py/nativeglue.o
 .data          0x00000000        0x0 build/py/nativeglue.o
 .bss           0x00000000        0x0 build/py/nativeglue.o
 .text          0x00000000        0x0 build/py/stackctrl.o
 .data          0x00000000        0x0 build/py/stackctrl.o
 .bss           0x00000000        0x0 build/py/stackctrl.o
 .text.mp_stack_usage
                0x00000000       0x14 build/py/stackctrl.o
 .text          0x00000000        0x0 build/py/argcheck.o
 .data          0x00000000        0x0 build/py/argcheck.o
 .bss           0x00000000        0x0 build/py/argcheck.o
 .text          0x00000000        0x0 build/py/warning.o
 .data          0x00000000        0x0 build/py/warning.o
 .bss           0x00000000        0x0 build/py/warning.o
 .comment       0x00000000       0x71 build/py/warning.o
 .ARM.attributes
                0x00000000       0x33 build/py/warning.o
 .text          0x00000000        0x0 build/py/map.o
 .data          0x00000000        0x0 build/py/map.o
 .bss           0x00000000        0x0 build/py/map.o
 .text.mp_map_new
                0x00000000       0x16 build/py/map.o
 .text.mp_map_free
                0x00000000       0x14 build/py/map.o
 .rodata.mp_const_empty_map
                0x00000000        0xc build/py/map.o
 .text          0x00000000        0x0 build/py/obj.o
 .data          0x00000000        0x0 build/py/obj.o
 .bss           0x00000000        0x0 build/py/obj.o
 .text          0x00000000        0x0 build/py/objarray.o
 .data          0x00000000        0x0 build/py/objarray.o
 .bss           0x00000000        0x0 build/py/objarray.o
 .text.mp_obj_new_bytearray
                0x00000000       0x1e build/py/objarray.o
 .text.mp_obj_new_bytearray_by_ref
                0x00000000       0x2c build/py/objarray.o
 .text          0x00000000        0x0 build/py/objbool.o
 .data          0x00000000        0x0 build/py/objbool.o
 .bss           0x00000000        0x0 build/py/objbool.o
 .text          0x00000000        0x0 build/py/objboundmeth.o
 .data          0x00000000        0x0 build/py/objboundmeth.o
 .bss           0x00000000        0x0 build/py/objboundmeth.o
 .text          0x00000000        0x0 build/py/objcell.o
 .data          0x00000000        0x0 build/py/objcell.o
 .bss           0x00000000        0x0 build/py/objcell.o
 .text          0x00000000        0x0 build/py/objclosure.o
 .data          0x00000000        0x0 build/py/objclosure.o
 .bss           0x00000000        0x0 build/py/objclosure.o
 .text          0x00000000        0x0 build/py/objcomplex.o
 .data          0x00000000        0x0 build/py/objcomplex.o
 .bss           0x00000000        0x0 build/py/objcomplex.o
 .text          0x00000000        0x0 build/py/objdict.o
 .data          0x00000000        0x0 build/py/objdict.o
 .bss           0x00000000        0x0 build/py/objdict.o
 .text          0x00000000        0x0 build/py/objenumerate.o
 .data          0x00000000        0x0 build/py/objenumerate.o
 .bss           0x00000000        0x0 build/py/objenumerate.o
 .text          0x00000000        0x0 build/py/objexcept.o
 .data          0x00000000        0x0 build/py/objexcept.o
 .bss           0x00000000        0x0 build/py/objexcept.o
 .text.mp_obj_exception_clear_traceback
                0x00000000       0x40 build/py/objexcept.o
 .rodata.__func__.7120
                0x00000000       0x21 build/py/objexcept.o
 .rodata.mp_type_KeyboardInterrupt
                0x00000000       0x40 build/py/objexcept.o
 .text          0x00000000        0x0 build/py/objfilter.o
 .data          0x00000000        0x0 build/py/objfilter.o
 .bss           0x00000000        0x0 build/py/objfilter.o
 .text          0x00000000        0x0 build/py/objfloat.o
 .data          0x00000000        0x0 build/py/objfloat.o
 .bss           0x00000000        0x0 build/py/objfloat.o
 .text          0x00000000        0x0 build/py/objfun.o
 .data          0x00000000        0x0 build/py/objfun.o
 .bss           0x00000000        0x0 build/py/objfun.o
 .text          0x00000000        0x0 build/py/objgenerator.o
 .data          0x00000000        0x0 build/py/objgenerator.o
 .bss           0x00000000        0x0 build/py/objgenerator.o
 .text          0x00000000        0x0 build/py/objgetitemiter.o
 .data          0x00000000        0x0 build/py/objgetitemiter.o
 .bss           0x00000000        0x0 build/py/objgetitemiter.o
 .text          0x00000000        0x0 build/py/objint.o
 .data          0x00000000        0x0 build/py/objint.o
 .bss           0x00000000        0x0 build/py/objint.o
 .text          0x00000000        0x0 build/py/objint_longlong.o
 .data          0x00000000        0x0 build/py/objint_longlong.o
 .bss           0x00000000        0x0 build/py/objint_longlong.o
 .comment       0x00000000       0x71 build/py/objint_longlong.o
 .ARM.attributes
                0x00000000       0x33 build/py/objint_longlong.o
 .text          0x00000000        0x0 build/py/objint_mpz.o
 .data          0x00000000        0x0 build/py/objint_mpz.o
 .bss           0x00000000        0x0 build/py/objint_mpz.o
 .text          0x00000000        0x0 build/py/objlist.o
 .data          0x00000000        0x0 build/py/objlist.o
 .bss           0x00000000        0x0 build/py/objlist.o
 .text          0x00000000        0x0 build/py/objmap.o
 .data          0x00000000        0x0 build/py/objmap.o
 .bss           0x00000000        0x0 build/py/objmap.o
 .text          0x00000000        0x0 build/py/objmodule.o
 .data          0x00000000        0x0 build/py/objmodule.o
 .bss           0x00000000        0x0 build/py/objmodule.o
 .text.mp_module_deinit
                0x00000000        0xc build/py/objmodule.o
 .text.mp_module_register
                0x00000000       0x1c build/py/objmodule.o
 .text          0x00000000        0x0 build/py/objobject.o
 .data          0x00000000        0x0 build/py/objobject.o
 .bss           0x00000000        0x0 build/py/objobject.o
 .text          0x00000000        0x0 build/py/objproperty.o
 .data          0x00000000        0x0 build/py/objproperty.o
 .bss           0x00000000        0x0 build/py/objproperty.o
 .text          0x00000000        0x0 build/py/objnone.o
 .data          0x00000000        0x0 build/py/objnone.o
 .bss           0x00000000        0x0 build/py/objnone.o
 .text          0x00000000        0x0 build/py/objnamedtuple.o
 .data          0x00000000        0x0 build/py/objnamedtuple.o
 .bss           0x00000000        0x0 build/py/objnamedtuple.o
 .text          0x00000000        0x0 build/py/objrange.o
 .data          0x00000000        0x0 build/py/objrange.o
 .bss           0x00000000        0x0 build/py/objrange.o
 .text          0x00000000        0x0 build/py/objreversed.o
 .data          0x00000000        0x0 build/py/objreversed.o
 .bss           0x00000000        0x0 build/py/objreversed.o
 .text          0x00000000        0x0 build/py/objset.o
 .data          0x00000000        0x0 build/py/objset.o
 .bss           0x00000000        0x0 build/py/objset.o
 .text          0x00000000        0x0 build/py/objslice.o
 .data          0x00000000        0x0 build/py/objslice.o
 .bss           0x00000000        0x0 build/py/objslice.o
 .text          0x00000000        0x0 build/py/objstr.o
 .data          0x00000000        0x0 build/py/objstr.o
 .bss           0x00000000        0x0 build/py/objstr.o
 .text.str_index_to_ptr
                0x00000000       0x14 build/py/objstr.o
 .text.mp_obj_str_intern
                0x00000000       0x2c build/py/objstr.o
 .text          0x00000000        0x0 build/py/objstrunicode.o
 .data          0x00000000        0x0 build/py/objstrunicode.o
 .bss           0x00000000        0x0 build/py/objstrunicode.o
 .comment       0x00000000       0x71 build/py/objstrunicode.o
 .ARM.attributes
                0x00000000       0x33 build/py/objstrunicode.o
 .text          0x00000000        0x0 build/py/objstringio.o
 .data          0x00000000        0x0 build/py/objstringio.o
 .bss           0x00000000        0x0 build/py/objstringio.o
 .comment       0x00000000       0x71 build/py/objstringio.o
 .ARM.attributes
                0x00000000       0x33 build/py/objstringio.o
 .text          0x00000000        0x0 build/py/objtuple.o
 .data          0x00000000        0x0 build/py/objtuple.o
 .bss           0x00000000        0x0 build/py/objtuple.o
 .text          0x00000000        0x0 build/py/objtype.o
 .data          0x00000000        0x0 build/py/objtype.o
 .bss           0x00000000        0x0 build/py/objtype.o
 .text          0x00000000        0x0 build/py/objzip.o
 .data          0x00000000        0x0 build/py/objzip.o
 .bss           0x00000000        0x0 build/py/objzip.o
 .text          0x00000000        0x0 build/py/opmethods.o
 .data          0x00000000        0x0 build/py/opmethods.o
 .bss           0x00000000        0x0 build/py/opmethods.o
 .text          0x00000000        0x0 build/py/sequence.o
 .data          0x00000000        0x0 build/py/sequence.o
 .bss           0x00000000        0x0 build/py/sequence.o
 .text          0x00000000        0x0 build/py/stream.o
 .data          0x00000000        0x0 build/py/stream.o
 .bss           0x00000000        0x0 build/py/stream.o
 .text.stream_unbuffered_readlines
                0x00000000       0x2e build/py/stream.o
 .text.stream_seek
                0x00000000       0x6c build/py/stream.o
 .text.stream_readinto
                0x00000000       0x70 build/py/stream.o
 .rodata.mp_stream_readinto_obj
                0x00000000        0xc build/py/stream.o
 .rodata.mp_stream_seek_obj
                0x00000000        0xc build/py/stream.o
 .rodata.mp_stream_unbuffered_readlines_obj
                0x00000000        0xc build/py/stream.o
 .text          0x00000000        0x0 build/py/binary.o
 .data          0x00000000        0x0 build/py/binary.o
 .bss           0x00000000        0x0 build/py/binary.o
 .text          0x00000000        0x0 build/py/builtinimport.o
 .data          0x00000000        0x0 build/py/builtinimport.o
 .bss           0x00000000        0x0 build/py/builtinimport.o
 .text          0x00000000        0x0 build/py/builtinevex.o
 .data          0x00000000        0x0 build/py/builtinevex.o
 .bss           0x00000000        0x0 build/py/builtinevex.o
 .text          0x00000000        0x0 build/py/modarray.o
 .data          0x00000000        0x0 build/py/modarray.o
 .bss           0x00000000        0x0 build/py/modarray.o
 .text          0x00000000        0x0 build/py/modbuiltins.o
 .data          0x00000000        0x0 build/py/modbuiltins.o
 .bss           0x00000000        0x0 build/py/modbuiltins.o
 .text          0x00000000        0x0 build/py/modcollections.o
 .data          0x00000000        0x0 build/py/modcollections.o
 .bss           0x00000000        0x0 build/py/modcollections.o
 .text          0x00000000        0x0 build/py/modgc.o
 .data          0x00000000        0x0 build/py/modgc.o
 .bss           0x00000000        0x0 build/py/modgc.o
 .text          0x00000000        0x0 build/py/modio.o
 .data          0x00000000        0x0 build/py/modio.o
 .bss           0x00000000        0x0 build/py/modio.o
 .comment       0x00000000       0x71 build/py/modio.o
 .ARM.attributes
                0x00000000       0x33 build/py/modio.o
 .text          0x00000000        0x0 build/py/modmath.o
 .data          0x00000000        0x0 build/py/modmath.o
 .bss           0x00000000        0x0 build/py/modmath.o
 .text          0x00000000        0x0 build/py/modcmath.o
 .data          0x00000000        0x0 build/py/modcmath.o
 .bss           0x00000000        0x0 build/py/modcmath.o
 .text          0x00000000        0x0 build/py/modmicropython.o
 .data          0x00000000        0x0 build/py/modmicropython.o
 .bss           0x00000000        0x0 build/py/modmicropython.o
 .text          0x00000000        0x0 build/py/modstruct.o
 .data          0x00000000        0x0 build/py/modstruct.o
 .bss           0x00000000        0x0 build/py/modstruct.o
 .text          0x00000000        0x0 build/py/modsys.o
 .data          0x00000000        0x0 build/py/modsys.o
 .bss           0x00000000        0x0 build/py/modsys.o
 .text          0x00000000        0x0 build/py/vm.o
 .data          0x00000000        0x0 build/py/vm.o
 .bss           0x00000000        0x0 build/py/vm.o
 .text          0x00000000        0x0 build/py/bc.o
 .data          0x00000000        0x0 build/py/bc.o
 .bss           0x00000000        0x0 build/py/bc.o
 .text          0x00000000        0x0 build/py/showbc.o
 .data          0x00000000        0x0 build/py/showbc.o
 .bss           0x00000000        0x0 build/py/showbc.o
 .comment       0x00000000       0x71 build/py/showbc.o
 .ARM.attributes
                0x00000000       0x33 build/py/showbc.o
 .text          0x00000000        0x0 build/py/repl.o
 .data          0x00000000        0x0 build/py/repl.o
 .bss           0x00000000        0x0 build/py/repl.o
 .text          0x00000000        0x0 build/py/smallint.o
 .data          0x00000000        0x0 build/py/smallint.o
 .bss           0x00000000        0x0 build/py/smallint.o
 .text          0x00000000        0x0 build/py/pfenv.o
 .data          0x00000000        0x0 build/py/pfenv.o
 .bss           0x00000000        0x0 build/py/pfenv.o
 .text          0x00000000        0x0 build/py/pfenv_printf.o
 .data          0x00000000        0x0 build/py/pfenv_printf.o
 .bss           0x00000000        0x0 build/py/pfenv_printf.o
 .text.pfenv_printf
                0x00000000       0x1a build/py/pfenv_printf.o
 .text          0x00000000        0x0 build/py/frozenmod.o
 .data          0x00000000        0x0 build/py/frozenmod.o
 .bss           0x00000000        0x0 build/py/frozenmod.o
 .comment       0x00000000       0x71 build/py/frozenmod.o
 .ARM.attributes
                0x00000000       0x33 build/py/frozenmod.o
 .text          0x00000000        0x0 build/py/../extmod/moductypes.o
 .data          0x00000000        0x0 build/py/../extmod/moductypes.o
 .bss           0x00000000        0x0 build/py/../extmod/moductypes.o
 .comment       0x00000000       0x71 build/py/../extmod/moductypes.o
 .ARM.attributes
                0x00000000       0x33 build/py/../extmod/moductypes.o
 .text          0x00000000        0x0 build/py/../extmod/modujson.o
 .data          0x00000000        0x0 build/py/../extmod/modujson.o
 .bss           0x00000000        0x0 build/py/../extmod/modujson.o
 .comment       0x00000000       0x71 build/py/../extmod/modujson.o
 .ARM.attributes
                0x00000000       0x33 build/py/../extmod/modujson.o
 .text          0x00000000        0x0 build/py/../extmod/modure.o
 .data          0x00000000        0x0 build/py/../extmod/modure.o
 .bss           0x00000000        0x0 build/py/../extmod/modure.o
 .comment       0x00000000       0x71 build/py/../extmod/modure.o
 .ARM.attributes
                0x00000000       0x33 build/py/../extmod/modure.o
 .text          0x00000000        0x0 build/py/../extmod/moduzlib.o
 .data          0x00000000        0x0 build/py/../extmod/moduzlib.o
 .bss           0x00000000        0x0 build/py/../extmod/moduzlib.o
 .comment       0x00000000       0x71 build/py/../extmod/moduzlib.o
 .ARM.attributes
                0x00000000       0x33 build/py/../extmod/moduzlib.o
 .text          0x00000000        0x0 build/py/../extmod/moduheapq.o
 .data          0x00000000        0x0 build/py/../extmod/moduheapq.o
 .bss           0x00000000        0x0 build/py/../extmod/moduheapq.o
 .comment       0x00000000       0x71 build/py/../extmod/moduheapq.o
 .ARM.attributes
                0x00000000       0x33 build/py/../extmod/moduheapq.o
 .text          0x00000000        0x0 build/py/../extmod/moduhashlib.o
 .data          0x00000000        0x0 build/py/../extmod/moduhashlib.o
 .bss           0x00000000        0x0 build/py/../extmod/moduhashlib.o
 .comment       0x00000000       0x71 build/py/../extmod/moduhashlib.o
 .ARM.attributes
                0x00000000       0x33 build/py/../extmod/moduhashlib.o
 .text          0x00000000        0x0 build/py/../extmod/modubinascii.o
 .data          0x00000000        0x0 build/py/../extmod/modubinascii.o
 .bss           0x00000000        0x0 build/py/../extmod/modubinascii.o
 .comment       0x00000000       0x71 build/py/../extmod/modubinascii.o
 .ARM.attributes
                0x00000000       0x33 build/py/../extmod/modubinascii.o
 .text          0x00000000        0x0 build/hal_ftm.o
 .data          0x00000000        0x0 build/hal_ftm.o
 .bss           0x00000000        0x0 build/hal_ftm.o
 .text.HAL_FTM_OC_Init
                0x00000000        0x4 build/hal_ftm.o
 .text.HAL_FTM_OC_DeInit
                0x00000000        0x4 build/hal_ftm.o
 .text.HAL_FTM_PWM_Init
                0x00000000        0x4 build/hal_ftm.o
 .text.HAL_FTM_PWM_DeInit
                0x00000000        0x4 build/hal_ftm.o
 .text.HAL_FTM_IC_Init
                0x00000000        0x4 build/hal_ftm.o
 .text.HAL_FTM_IC_DeInit
                0x00000000        0x4 build/hal_ftm.o
 .text          0x00000000        0x0 build/hal_gpio.o
 .data          0x00000000        0x0 build/hal_gpio.o
 .bss           0x00000000        0x0 build/hal_gpio.o
 .text          0x00000000        0x0 build/help.o
 .data          0x00000000        0x0 build/help.o
 .bss           0x00000000        0x0 build/help.o
 .text          0x00000000        0x0 build/import.o
 .data          0x00000000        0x0 build/import.o
 .bss           0x00000000        0x0 build/import.o
 .text          0x00000000        0x0 build/main.o
 .data          0x00000000        0x0 build/main.o
 .bss           0x00000000        0x0 build/main.o
 .text.pyb_analog_read
                0x00000000       0x14 build/main.o
 .text.pyb_analog_write
                0x00000000       0x20 build/main.o
 .text.pyb_analog_write_resolution
                0x00000000       0x14 build/main.o
 .text.pyb_analog_write_frequency
                0x00000000       0x20 build/main.o
 .text          0x00000000        0x0 build/lcd.o
 .data          0x00000000        0x0 build/lcd.o
 .bss           0x00000000        0x0 build/lcd.o
 .text.lcd_init
                0x00000000        0x2 build/lcd.o
 .text.lcd_print_str
                0x00000000        0x2 build/lcd.o
 .text.lcd_print_strn
                0x00000000        0x2 build/lcd.o
 .comment       0x00000000       0x71 build/lcd.o
 .ARM.attributes
                0x00000000       0x33 build/lcd.o
 .text          0x00000000        0x0 build/led.o
 .data          0x00000000        0x0 build/led.o
 .bss           0x00000000        0x0 build/led.o
 .text          0x00000000        0x0 build/lexermemzip.o
 .data          0x00000000        0x0 build/lexermemzip.o
 .bss           0x00000000        0x0 build/lexermemzip.o
 .text          0x00000000        0x0 build/memzip.o
 .data          0x00000000        0x0 build/memzip.o
 .bss           0x00000000        0x0 build/memzip.o
 .text          0x00000000        0x0 build/modpyb.o
 .data          0x00000000        0x0 build/modpyb.o
 .bss           0x00000000        0x0 build/modpyb.o
 .text          0x00000000        0x0 build/pin_defs_teensy.o
 .data          0x00000000        0x0 build/pin_defs_teensy.o
 .bss           0x00000000        0x0 build/pin_defs_teensy.o
 .text          0x00000000        0x0 build/reg.o
 .data          0x00000000        0x0 build/reg.o
 .bss           0x00000000        0x0 build/reg.o
 .comment       0x00000000       0x71 build/reg.o
 .ARM.attributes
                0x00000000       0x33 build/reg.o
 .text          0x00000000        0x0 build/teensy_hal.o
 .data          0x00000000        0x0 build/teensy_hal.o
 .bss           0x00000000        0x0 build/teensy_hal.o
 .text          0x00000000        0x0 build/timer.o
 .data          0x00000000        0x0 build/timer.o
 .bss           0x00000000        0x0 build/timer.o
 .text.timer_init0
                0x00000000       0x10 build/timer.o
 .text.timer_deinit
                0x00000000       0x1c build/timer.o
 .text          0x00000000        0x0 build/uart.o
 .data          0x00000000        0x0 build/uart.o
 .bss           0x00000000        0x0 build/uart.o
 .text.uart_init2
                0x00000000        0x4 build/uart.o
 .text.uart_init
                0x00000000        0x4 build/uart.o
 .text.uart_tx_char
                0x00000000        0x2 build/uart.o
 .text.uart_tx_str
                0x00000000        0x2 build/uart.o
 .bss.pyb_uart_global_debug
                0x00000000        0x4 build/uart.o
 .text          0x00000000        0x0 build/usb.o
 .data          0x00000000        0x0 build/usb.o
 .bss           0x00000000        0x0 build/usb.o
 .text.usb_vcp_rx_num
                0x00000000        0x4 build/usb.o
 .text.usb_vcp_send_str
                0x00000000       0x14 build/usb.o
 .text          0x00000000        0x0 build/stmhal/gccollect.o
 .data          0x00000000        0x0 build/stmhal/gccollect.o
 .bss           0x00000000        0x0 build/stmhal/gccollect.o
 .text          0x00000000        0x0 build/stmhal/input.o
 .data          0x00000000        0x0 build/stmhal/input.o
 .bss           0x00000000        0x0 build/stmhal/input.o
 .text          0x00000000        0x0 build/stmhal/irq.o
 .data          0x00000000        0x0 build/stmhal/irq.o
 .bss           0x00000000        0x0 build/stmhal/irq.o
 .text          0x00000000        0x0 build/stmhal/pin.o
 .data          0x00000000        0x0 build/stmhal/pin.o
 .bss           0x00000000        0x0 build/stmhal/pin.o
 .text          0x00000000        0x0 build/stmhal/pin_named_pins.o
 .data          0x00000000        0x0 build/stmhal/pin_named_pins.o
 .bss           0x00000000        0x0 build/stmhal/pin_named_pins.o
 .text          0x00000000        0x0 build/stmhal/printf.o
 .data          0x00000000        0x0 build/stmhal/printf.o
 .bss           0x00000000        0x0 build/stmhal/printf.o
 .text          0x00000000        0x0 build/stmhal/pyexec.o
 .data          0x00000000        0x0 build/stmhal/pyexec.o
 .bss           0x00000000        0x0 build/stmhal/pyexec.o
 .text          0x00000000        0x0 build/stmhal/pybstdio.o
 .data          0x00000000        0x0 build/stmhal/pybstdio.o
 .bss           0x00000000        0x0 build/stmhal/pybstdio.o
 .text          0x00000000        0x0 build/stmhal/string0.o
 .data          0x00000000        0x0 build/stmhal/string0.o
 .bss           0x00000000        0x0 build/stmhal/string0.o
 .text.strcpy   0x00000000       0x14 build/stmhal/string0.o
 .text.stpcpy   0x00000000       0x12 build/stmhal/string0.o
 .text.strcat   0x00000000       0x20 build/stmhal/string0.o
 .text.strstr   0x00000000       0x30 build/stmhal/string0.o
 .data          0x00000000        0x0 build/stmhal/gchelper.o
 .bss           0x00000000        0x0 build/stmhal/gchelper.o
 .text          0x00000000        0x0 build/core/mk20dx128.o
 .data          0x00000000        0x0 build/core/mk20dx128.o
 .bss           0x00000000        0x0 build/core/mk20dx128.o
 .text._sbrk    0x00000000       0x10 build/core/mk20dx128.o
 .text._read    0x00000000        0x4 build/core/mk20dx128.o
 .text._close   0x00000000        0x6 build/core/mk20dx128.o
 .text._fstat   0x00000000        0xa build/core/mk20dx128.o
 .text._isatty  0x00000000        0x4 build/core/mk20dx128.o
 .text._lseek   0x00000000        0x6 build/core/mk20dx128.o
 .text._exit    0x00000000        0x2 build/core/mk20dx128.o
 .text.__cxa_pure_virtual
                0x00000000        0x2 build/core/mk20dx128.o
 .text.__cxa_guard_acquire
                0x00000000        0xc build/core/mk20dx128.o
 .text.__cxa_guard_release
                0x00000000        0x6 build/core/mk20dx128.o
 .text.nvic_execution_priority
                0x00000000       0x3c build/core/mk20dx128.o
 .data.__brkval
                0x00000000        0x4 build/core/mk20dx128.o
 .text          0x00000000        0x0 build/core/pins_teensy.o
 .data          0x00000000        0x0 build/core/pins_teensy.o
 .bss           0x00000000        0x0 build/core/pins_teensy.o
 .text.attachInterrupt
                0x00000000       0x54 build/core/pins_teensy.o
 .text.detachInterrupt
                0x00000000       0x30 build/core/pins_teensy.o
 .text.rtc_get  0x00000000        0xc build/core/pins_teensy.o
 .text.rtc_compensate
                0x00000000       0x5c build/core/pins_teensy.o
 .text.analogWriteRes
                0x00000000       0x18 build/core/pins_teensy.o
 .text.analogWriteFrequency
                0x00000000       0x8c build/core/pins_teensy.o
 .text.digitalWrite
                0x00000000       0x40 build/core/pins_teensy.o
 .text.digitalRead
                0x00000000       0x18 build/core/pins_teensy.o
 .text.analogWrite
                0x00000000      0x1b4 build/core/pins_teensy.o
 .text.shiftOut_lsbFirst
                0x00000000       0x34 build/core/pins_teensy.o
 .text.shiftOut_msbFirst
                0x00000000       0x32 build/core/pins_teensy.o
 .text._shiftOut
                0x00000000        0xe build/core/pins_teensy.o
 .text.shiftIn_lsbFirst
                0x00000000       0x36 build/core/pins_teensy.o
 .text.shiftIn_msbFirst
                0x00000000       0x34 build/core/pins_teensy.o
 .text._shiftIn
                0x00000000        0xa build/core/pins_teensy.o
 .text.pulseIn_high
                0x00000000       0x3e build/core/pins_teensy.o
 .text.pulseIn_low
                0x00000000       0x3e build/core/pins_teensy.o
 .text.pulseIn  0x00000000       0x24 build/core/pins_teensy.o
 .data.analog_write_res
                0x00000000        0x1 build/core/pins_teensy.o
 .text          0x00000000        0x0 build/core/analog.o
 .data          0x00000000        0x0 build/core/analog.o
 .bss           0x00000000        0x0 build/core/analog.o
 .text.wait_for_cal
                0x00000000       0xe4 build/core/analog.o
 .text.analogReference
                0x00000000       0x48 build/core/analog.o
 .text.analogReadRes
                0x00000000       0x54 build/core/analog.o
 .text.analogReadAveraging
                0x00000000       0x54 build/core/analog.o
 .text.analogRead
                0x00000000       0xf0 build/core/analog.o
 .text.analogWriteDAC0
                0x00000000       0x40 build/core/analog.o
 .rodata.channel2sc1a
                0x00000000       0x17 build/core/analog.o
 .bss.analog_right_shift
                0x00000000        0x1 build/core/analog.o
 .bss.analogReadBusyADC1
                0x00000000        0x1 build/core/analog.o
 .bss.analogReadBusyADC0
                0x00000000        0x1 build/core/analog.o
 .text          0x00000000        0x0 build/core/usb_desc.o
 .data          0x00000000        0x0 build/core/usb_desc.o
 .bss           0x00000000        0x0 build/core/usb_desc.o
 .text          0x00000000        0x0 build/core/usb_dev.o
 .data          0x00000000        0x0 build/core/usb_dev.o
 .bss           0x00000000        0x0 build/core/usb_dev.o
 .text.usb_tx_byte_count
                0x00000000       0x28 build/core/usb_dev.o
 .text._reboot_Teensyduino_
                0x00000000        0x4 build/core/usb_dev.o
 .text          0x00000000        0x0 build/core/usb_mem.o
 .data          0x00000000        0x0 build/core/usb_mem.o
 .bss           0x00000000        0x0 build/core/usb_mem.o
 .text          0x00000000        0x0 build/core/usb_serial.o
 .data          0x00000000        0x0 build/core/usb_serial.o
 .bss           0x00000000        0x0 build/core/usb_serial.o
 .text.usb_serial_peekchar
                0x00000000       0x3c build/core/usb_serial.o
 .text.usb_serial_available
                0x00000000       0x1c build/core/usb_serial.o
 .text.usb_serial_read
                0x00000000       0x7c build/core/usb_serial.o
 .text.usb_serial_flush_input
                0x00000000       0x30 build/core/usb_serial.o
 .text.usb_serial_flush_output
                0x00000000       0x58 build/core/usb_serial.o
 .text          0x00000000        0x0 build/core/yield.o
 .data          0x00000000        0x0 build/core/yield.o
 .bss           0x00000000        0x0 build/core/yield.o
 .text          0x00000000        0x0 build/lib/mp-readline/readline.o
 .data          0x00000000        0x0 build/lib/mp-readline/readline.o
 .bss           0x00000000        0x0 build/lib/mp-readline/readline.o
 .text.readline_note_newline
                0x00000000       0x10 build/lib/mp-readline/readline.o
 .text          0x00000000        0x0 build/pins_gen.o
 .data          0x00000000        0x0 build/pins_gen.o
 .bss           0x00000000        0x0 build/pins_gen.o
 .rodata.pin_adc1
                0x00000000       0x40 build/pins_gen.o
 .rodata.pin_adc2
                0x00000000       0x40 build/pins_gen.o
 .rodata.pin_adc3
                0x00000000       0x40 build/pins_gen.o
 .text          0x00000000        0x0 /home/dhylands/gcc-arm-none-eabi/bin/../lib/gcc/arm-none-eabi/4.8.3/../../../../arm-none-eabi/lib/armv7e-m//libm.a(lib_a-sf_asinh.o)
 .data          0x00000000        0x0 /home/dhylands/gcc-arm-none-eabi/bin/../lib/gcc/arm-none-eabi/4.8.3/../../../../arm-none-eabi/lib/armv7e-m//libm.a(lib_a-sf_asinh.o)
 .bss           0x00000000        0x0 /home/dhylands/gcc-arm-none-eabi/bin/../lib/gcc/arm-none-eabi/4.8.3/../../../../arm-none-eabi/lib/armv7e-m//libm.a(lib_a-sf_asinh.o)
 .text          0x00000000        0x0 /home/dhylands/gcc-arm-none-eabi/bin/../lib/gcc/arm-none-eabi/4.8.3/../../../../arm-none-eabi/lib/armv7e-m//libm.a(lib_a-sf_atan.o)
 .data          0x00000000        0x0 /home/dhylands/gcc-arm-none-eabi/bin/../lib/gcc/arm-none-eabi/4.8.3/../../../../arm-none-eabi/lib/armv7e-m//libm.a(lib_a-sf_atan.o)
 .bss           0x00000000        0x0 /home/dhylands/gcc-arm-none-eabi/bin/../lib/gcc/arm-none-eabi/4.8.3/../../../../arm-none-eabi/lib/armv7e-m//libm.a(lib_a-sf_atan.o)
 .text          0x00000000        0x0 /home/dhylands/gcc-arm-none-eabi/bin/../lib/gcc/arm-none-eabi/4.8.3/../../../../arm-none-eabi/lib/armv7e-m//libm.a(lib_a-sf_ceil.o)
 .data          0x00000000        0x0 /home/dhylands/gcc-arm-none-eabi/bin/../lib/gcc/arm-none-eabi/4.8.3/../../../../arm-none-eabi/lib/armv7e-m//libm.a(lib_a-sf_ceil.o)
 .bss           0x00000000        0x0 /home/dhylands/gcc-arm-none-eabi/bin/../lib/gcc/arm-none-eabi/4.8.3/../../../../arm-none-eabi/lib/armv7e-m//libm.a(lib_a-sf_ceil.o)
 .text          0x00000000        0x0 /home/dhylands/gcc-arm-none-eabi/bin/../lib/gcc/arm-none-eabi/4.8.3/../../../../arm-none-eabi/lib/armv7e-m//libm.a(lib_a-sf_cos.o)
 .data          0x00000000        0x0 /home/dhylands/gcc-arm-none-eabi/bin/../lib/gcc/arm-none-eabi/4.8.3/../../../../arm-none-eabi/lib/armv7e-m//libm.a(lib_a-sf_cos.o)
 .bss           0x00000000        0x0 /home/dhylands/gcc-arm-none-eabi/bin/../lib/gcc/arm-none-eabi/4.8.3/../../../../arm-none-eabi/lib/armv7e-m//libm.a(lib_a-sf_cos.o)
 .text          0x00000000        0x0 /home/dhylands/gcc-arm-none-eabi/bin/../lib/gcc/arm-none-eabi/4.8.3/../../../../arm-none-eabi/lib/armv7e-m//libm.a(lib_a-sf_expm1.o)
 .data          0x00000000        0x0 /home/dhylands/gcc-arm-none-eabi/bin/../lib/gcc/arm-none-eabi/4.8.3/../../../../arm-none-eabi/lib/armv7e-m//libm.a(lib_a-sf_expm1.o)
 .bss           0x00000000        0x0 /home/dhylands/gcc-arm-none-eabi/bin/../lib/gcc/arm-none-eabi/4.8.3/../../../../arm-none-eabi/lib/armv7e-m//libm.a(lib_a-sf_expm1.o)
 .text          0x00000000        0x0 /home/dhylands/gcc-arm-none-eabi/bin/../lib/gcc/arm-none-eabi/4.8.3/../../../../arm-none-eabi/lib/armv7e-m//libm.a(lib_a-sf_fabs.o)
 .data          0x00000000        0x0 /home/dhylands/gcc-arm-none-eabi/bin/../lib/gcc/arm-none-eabi/4.8.3/../../../../arm-none-eabi/lib/armv7e-m//libm.a(lib_a-sf_fabs.o)
 .bss           0x00000000        0x0 /home/dhylands/gcc-arm-none-eabi/bin/../lib/gcc/arm-none-eabi/4.8.3/../../../../arm-none-eabi/lib/armv7e-m//libm.a(lib_a-sf_fabs.o)
 .text          0x00000000        0x0 /home/dhylands/gcc-arm-none-eabi/bin/../lib/gcc/arm-none-eabi/4.8.3/../../../../arm-none-eabi/lib/armv7e-m//libm.a(lib_a-sf_floor.o)
 .data          0x00000000        0x0 /home/dhylands/gcc-arm-none-eabi/bin/../lib/gcc/arm-none-eabi/4.8.3/../../../../arm-none-eabi/lib/armv7e-m//libm.a(lib_a-sf_floor.o)
 .bss           0x00000000        0x0 /home/dhylands/gcc-arm-none-eabi/bin/../lib/gcc/arm-none-eabi/4.8.3/../../../../arm-none-eabi/lib/armv7e-m//libm.a(lib_a-sf_floor.o)
 .text          0x00000000        0x0 /home/dhylands/gcc-arm-none-eabi/bin/../lib/gcc/arm-none-eabi/4.8.3/../../../../arm-none-eabi/lib/armv7e-m//libm.a(lib_a-sf_fpclassify.o)
 .data          0x00000000        0x0 /home/dhylands/gcc-arm-none-eabi/bin/../lib/gcc/arm-none-eabi/4.8.3/../../../../arm-none-eabi/lib/armv7e-m//libm.a(lib_a-sf_fpclassify.o)
 .bss           0x00000000        0x0 /home/dhylands/gcc-arm-none-eabi/bin/../lib/gcc/arm-none-eabi/4.8.3/../../../../arm-none-eabi/lib/armv7e-m//libm.a(lib_a-sf_fpclassify.o)
 .text          0x00000000        0x0 /home/dhylands/gcc-arm-none-eabi/bin/../lib/gcc/arm-none-eabi/4.8.3/../../../../arm-none-eabi/lib/armv7e-m//libm.a(lib_a-sf_frexp.o)
 .data          0x00000000        0x0 /home/dhylands/gcc-arm-none-eabi/bin/../lib/gcc/arm-none-eabi/4.8.3/../../../../arm-none-eabi/lib/armv7e-m//libm.a(lib_a-sf_frexp.o)
 .bss           0x00000000        0x0 /home/dhylands/gcc-arm-none-eabi/bin/../lib/gcc/arm-none-eabi/4.8.3/../../../../arm-none-eabi/lib/armv7e-m//libm.a(lib_a-sf_frexp.o)
 .text          0x00000000        0x0 /home/dhylands/gcc-arm-none-eabi/bin/../lib/gcc/arm-none-eabi/4.8.3/../../../../arm-none-eabi/lib/armv7e-m//libm.a(lib_a-sf_ldexp.o)
 .data          0x00000000        0x0 /home/dhylands/gcc-arm-none-eabi/bin/../lib/gcc/arm-none-eabi/4.8.3/../../../../arm-none-eabi/lib/armv7e-m//libm.a(lib_a-sf_ldexp.o)
 .bss           0x00000000        0x0 /home/dhylands/gcc-arm-none-eabi/bin/../lib/gcc/arm-none-eabi/4.8.3/../../../../arm-none-eabi/lib/armv7e-m//libm.a(lib_a-sf_ldexp.o)
 .text          0x00000000        0x0 /home/dhylands/gcc-arm-none-eabi/bin/../lib/gcc/arm-none-eabi/4.8.3/../../../../arm-none-eabi/lib/armv7e-m//libm.a(lib_a-sf_log1p.o)
 .data          0x00000000        0x0 /home/dhylands/gcc-arm-none-eabi/bin/../lib/gcc/arm-none-eabi/4.8.3/../../../../arm-none-eabi/lib/armv7e-m//libm.a(lib_a-sf_log1p.o)
 .bss           0x00000000        0x0 /home/dhylands/gcc-arm-none-eabi/bin/../lib/gcc/arm-none-eabi/4.8.3/../../../../arm-none-eabi/lib/armv7e-m//libm.a(lib_a-sf_log1p.o)
 .text          0x00000000        0x0 /home/dhylands/gcc-arm-none-eabi/bin/../lib/gcc/arm-none-eabi/4.8.3/../../../../arm-none-eabi/lib/armv7e-m//libm.a(lib_a-sf_log2.o)
 .data          0x00000000        0x0 /home/dhylands/gcc-arm-none-eabi/bin/../lib/gcc/arm-none-eabi/4.8.3/../../../../arm-none-eabi/lib/armv7e-m//libm.a(lib_a-sf_log2.o)
 .bss           0x00000000        0x0 /home/dhylands/gcc-arm-none-eabi/bin/../lib/gcc/arm-none-eabi/4.8.3/../../../../arm-none-eabi/lib/armv7e-m//libm.a(lib_a-sf_log2.o)
 .text          0x00000000        0x0 /home/dhylands/gcc-arm-none-eabi/bin/../lib/gcc/arm-none-eabi/4.8.3/../../../../arm-none-eabi/lib/armv7e-m//libm.a(lib_a-sf_modf.o)
 .data          0x00000000        0x0 /home/dhylands/gcc-arm-none-eabi/bin/../lib/gcc/arm-none-eabi/4.8.3/../../../../arm-none-eabi/lib/armv7e-m//libm.a(lib_a-sf_modf.o)
 .bss           0x00000000        0x0 /home/dhylands/gcc-arm-none-eabi/bin/../lib/gcc/arm-none-eabi/4.8.3/../../../../arm-none-eabi/lib/armv7e-m//libm.a(lib_a-sf_modf.o)
 .text          0x00000000        0x0 /home/dhylands/gcc-arm-none-eabi/bin/../lib/gcc/arm-none-eabi/4.8.3/../../../../arm-none-eabi/lib/armv7e-m//libm.a(lib_a-sf_round.o)
 .data          0x00000000        0x0 /home/dhylands/gcc-arm-none-eabi/bin/../lib/gcc/arm-none-eabi/4.8.3/../../../../arm-none-eabi/lib/armv7e-m//libm.a(lib_a-sf_round.o)
 .bss           0x00000000        0x0 /home/dhylands/gcc-arm-none-eabi/bin/../lib/gcc/arm-none-eabi/4.8.3/../../../../arm-none-eabi/lib/armv7e-m//libm.a(lib_a-sf_round.o)
 .text          0x00000000        0x0 /home/dhylands/gcc-arm-none-eabi/bin/../lib/gcc/arm-none-eabi/4.8.3/../../../../arm-none-eabi/lib/armv7e-m//libm.a(lib_a-sf_scalbn.o)
 .data          0x00000000        0x0 /home/dhylands/gcc-arm-none-eabi/bin/../lib/gcc/arm-none-eabi/4.8.3/../../../../arm-none-eabi/lib/armv7e-m//libm.a(lib_a-sf_scalbn.o)
 .bss           0x00000000        0x0 /home/dhylands/gcc-arm-none-eabi/bin/../lib/gcc/arm-none-eabi/4.8.3/../../../../arm-none-eabi/lib/armv7e-m//libm.a(lib_a-sf_scalbn.o)
 .text          0x00000000        0x0 /home/dhylands/gcc-arm-none-eabi/bin/../lib/gcc/arm-none-eabi/4.8.3/../../../../arm-none-eabi/lib/armv7e-m//libm.a(lib_a-sf_sin.o)
 .data          0x00000000        0x0 /home/dhylands/gcc-arm-none-eabi/bin/../lib/gcc/arm-none-eabi/4.8.3/../../../../arm-none-eabi/lib/armv7e-m//libm.a(lib_a-sf_sin.o)
 .bss           0x00000000        0x0 /home/dhylands/gcc-arm-none-eabi/bin/../lib/gcc/arm-none-eabi/4.8.3/../../../../arm-none-eabi/lib/armv7e-m//libm.a(lib_a-sf_sin.o)
 .text          0x00000000        0x0 /home/dhylands/gcc-arm-none-eabi/bin/../lib/gcc/arm-none-eabi/4.8.3/../../../../arm-none-eabi/lib/armv7e-m//libm.a(lib_a-sf_tan.o)
 .data          0x00000000        0x0 /home/dhylands/gcc-arm-none-eabi/bin/../lib/gcc/arm-none-eabi/4.8.3/../../../../arm-none-eabi/lib/armv7e-m//libm.a(lib_a-sf_tan.o)
 .bss           0x00000000        0x0 /home/dhylands/gcc-arm-none-eabi/bin/../lib/gcc/arm-none-eabi/4.8.3/../../../../arm-none-eabi/lib/armv7e-m//libm.a(lib_a-sf_tan.o)
 .text          0x00000000        0x0 /home/dhylands/gcc-arm-none-eabi/bin/../lib/gcc/arm-none-eabi/4.8.3/../../../../arm-none-eabi/lib/armv7e-m//libm.a(lib_a-sf_tanh.o)
 .data          0x00000000        0x0 /home/dhylands/gcc-arm-none-eabi/bin/../lib/gcc/arm-none-eabi/4.8.3/../../../../arm-none-eabi/lib/armv7e-m//libm.a(lib_a-sf_tanh.o)
 .bss           0x00000000        0x0 /home/dhylands/gcc-arm-none-eabi/bin/../lib/gcc/arm-none-eabi/4.8.3/../../../../arm-none-eabi/lib/armv7e-m//libm.a(lib_a-sf_tanh.o)
 .text          0x00000000        0x0 /home/dhylands/gcc-arm-none-eabi/bin/../lib/gcc/arm-none-eabi/4.8.3/../../../../arm-none-eabi/lib/armv7e-m//libm.a(lib_a-wf_acos.o)
 .data          0x00000000        0x0 /home/dhylands/gcc-arm-none-eabi/bin/../lib/gcc/arm-none-eabi/4.8.3/../../../../arm-none-eabi/lib/armv7e-m//libm.a(lib_a-wf_acos.o)
 .bss           0x00000000        0x0 /home/dhylands/gcc-arm-none-eabi/bin/../lib/gcc/arm-none-eabi/4.8.3/../../../../arm-none-eabi/lib/armv7e-m//libm.a(lib_a-wf_acos.o)
 .text          0x00000000        0x0 /home/dhylands/gcc-arm-none-eabi/bin/../lib/gcc/arm-none-eabi/4.8.3/../../../../arm-none-eabi/lib/armv7e-m//libm.a(lib_a-wf_acosh.o)
 .data          0x00000000        0x0 /home/dhylands/gcc-arm-none-eabi/bin/../lib/gcc/arm-none-eabi/4.8.3/../../../../arm-none-eabi/lib/armv7e-m//libm.a(lib_a-wf_acosh.o)
 .bss           0x00000000        0x0 /home/dhylands/gcc-arm-none-eabi/bin/../lib/gcc/arm-none-eabi/4.8.3/../../../../arm-none-eabi/lib/armv7e-m//libm.a(lib_a-wf_acosh.o)
 .text          0x00000000        0x0 /home/dhylands/gcc-arm-none-eabi/bin/../lib/gcc/arm-none-eabi/4.8.3/../../../../arm-none-eabi/lib/armv7e-m//libm.a(lib_a-wf_asin.o)
 .data          0x00000000        0x0 /home/dhylands/gcc-arm-none-eabi/bin/../lib/gcc/arm-none-eabi/4.8.3/../../../../arm-none-eabi/lib/armv7e-m//libm.a(lib_a-wf_asin.o)
 .bss           0x00000000        0x0 /home/dhylands/gcc-arm-none-eabi/bin/../lib/gcc/arm-none-eabi/4.8.3/../../../../arm-none-eabi/lib/armv7e-m//libm.a(lib_a-wf_asin.o)
 .text          0x00000000        0x0 /home/dhylands/gcc-arm-none-eabi/bin/../lib/gcc/arm-none-eabi/4.8.3/../../../../arm-none-eabi/lib/armv7e-m//libm.a(lib_a-wf_atan2.o)
 .data          0x00000000        0x0 /home/dhylands/gcc-arm-none-eabi/bin/../lib/gcc/arm-none-eabi/4.8.3/../../../../arm-none-eabi/lib/armv7e-m//libm.a(lib_a-wf_atan2.o)
 .bss           0x00000000        0x0 /home/dhylands/gcc-arm-none-eabi/bin/../lib/gcc/arm-none-eabi/4.8.3/../../../../arm-none-eabi/lib/armv7e-m//libm.a(lib_a-wf_atan2.o)
 .text          0x00000000        0x0 /home/dhylands/gcc-arm-none-eabi/bin/../lib/gcc/arm-none-eabi/4.8.3/../../../../arm-none-eabi/lib/armv7e-m//libm.a(lib_a-wf_atanh.o)
 .data          0x00000000        0x0 /home/dhylands/gcc-arm-none-eabi/bin/../lib/gcc/arm-none-eabi/4.8.3/../../../../arm-none-eabi/lib/armv7e-m//libm.a(lib_a-wf_atanh.o)
 .bss           0x00000000        0x0 /home/dhylands/gcc-arm-none-eabi/bin/../lib/gcc/arm-none-eabi/4.8.3/../../../../arm-none-eabi/lib/armv7e-m//libm.a(lib_a-wf_atanh.o)
 .text          0x00000000        0x0 /home/dhylands/gcc-arm-none-eabi/bin/../lib/gcc/arm-none-eabi/4.8.3/../../../../arm-none-eabi/lib/armv7e-m//libm.a(lib_a-wf_cosh.o)
 .data          0x00000000        0x0 /home/dhylands/gcc-arm-none-eabi/bin/../lib/gcc/arm-none-eabi/4.8.3/../../../../arm-none-eabi/lib/armv7e-m//libm.a(lib_a-wf_cosh.o)
 .bss           0x00000000        0x0 /home/dhylands/gcc-arm-none-eabi/bin/../lib/gcc/arm-none-eabi/4.8.3/../../../../arm-none-eabi/lib/armv7e-m//libm.a(lib_a-wf_cosh.o)
 .text          0x00000000        0x0 /home/dhylands/gcc-arm-none-eabi/bin/../lib/gcc/arm-none-eabi/4.8.3/../../../../arm-none-eabi/lib/armv7e-m//libm.a(lib_a-wf_exp.o)
 .data          0x00000000        0x0 /home/dhylands/gcc-arm-none-eabi/bin/../lib/gcc/arm-none-eabi/4.8.3/../../../../arm-none-eabi/lib/armv7e-m//libm.a(lib_a-wf_exp.o)
 .bss           0x00000000        0x0 /home/dhylands/gcc-arm-none-eabi/bin/../lib/gcc/arm-none-eabi/4.8.3/../../../../arm-none-eabi/lib/armv7e-m//libm.a(lib_a-wf_exp.o)
 .text          0x00000000        0x0 /home/dhylands/gcc-arm-none-eabi/bin/../lib/gcc/arm-none-eabi/4.8.3/../../../../arm-none-eabi/lib/armv7e-m//libm.a(lib_a-wf_fmod.o)
 .data          0x00000000        0x0 /home/dhylands/gcc-arm-none-eabi/bin/../lib/gcc/arm-none-eabi/4.8.3/../../../../arm-none-eabi/lib/armv7e-m//libm.a(lib_a-wf_fmod.o)
 .bss           0x00000000        0x0 /home/dhylands/gcc-arm-none-eabi/bin/../lib/gcc/arm-none-eabi/4.8.3/../../../../arm-none-eabi/lib/armv7e-m//libm.a(lib_a-wf_fmod.o)
 .text          0x00000000        0x0 /home/dhylands/gcc-arm-none-eabi/bin/../lib/gcc/arm-none-eabi/4.8.3/../../../../arm-none-eabi/lib/armv7e-m//libm.a(lib_a-wf_log.o)
 .data          0x00000000        0x0 /home/dhylands/gcc-arm-none-eabi/bin/../lib/gcc/arm-none-eabi/4.8.3/../../../../arm-none-eabi/lib/armv7e-m//libm.a(lib_a-wf_log.o)
 .bss           0x00000000        0x0 /home/dhylands/gcc-arm-none-eabi/bin/../lib/gcc/arm-none-eabi/4.8.3/../../../../arm-none-eabi/lib/armv7e-m//libm.a(lib_a-wf_log.o)
 .text          0x00000000        0x0 /home/dhylands/gcc-arm-none-eabi/bin/../lib/gcc/arm-none-eabi/4.8.3/../../../../arm-none-eabi/lib/armv7e-m//libm.a(lib_a-wf_log10.o)
 .data          0x00000000        0x0 /home/dhylands/gcc-arm-none-eabi/bin/../lib/gcc/arm-none-eabi/4.8.3/../../../../arm-none-eabi/lib/armv7e-m//libm.a(lib_a-wf_log10.o)
 .bss           0x00000000        0x0 /home/dhylands/gcc-arm-none-eabi/bin/../lib/gcc/arm-none-eabi/4.8.3/../../../../arm-none-eabi/lib/armv7e-m//libm.a(lib_a-wf_log10.o)
 .text          0x00000000        0x0 /home/dhylands/gcc-arm-none-eabi/bin/../lib/gcc/arm-none-eabi/4.8.3/../../../../arm-none-eabi/lib/armv7e-m//libm.a(lib_a-wf_pow.o)
 .data          0x00000000        0x0 /home/dhylands/gcc-arm-none-eabi/bin/../lib/gcc/arm-none-eabi/4.8.3/../../../../arm-none-eabi/lib/armv7e-m//libm.a(lib_a-wf_pow.o)
 .bss           0x00000000        0x0 /home/dhylands/gcc-arm-none-eabi/bin/../lib/gcc/arm-none-eabi/4.8.3/../../../../arm-none-eabi/lib/armv7e-m//libm.a(lib_a-wf_pow.o)
 .text          0x00000000        0x0 /home/dhylands/gcc-arm-none-eabi/bin/../lib/gcc/arm-none-eabi/4.8.3/../../../../arm-none-eabi/lib/armv7e-m//libm.a(lib_a-wf_sinh.o)
 .data          0x00000000        0x0 /home/dhylands/gcc-arm-none-eabi/bin/../lib/gcc/arm-none-eabi/4.8.3/../../../../arm-none-eabi/lib/armv7e-m//libm.a(lib_a-wf_sinh.o)
 .bss           0x00000000        0x0 /home/dhylands/gcc-arm-none-eabi/bin/../lib/gcc/arm-none-eabi/4.8.3/../../../../arm-none-eabi/lib/armv7e-m//libm.a(lib_a-wf_sinh.o)
 .text          0x00000000        0x0 /home/dhylands/gcc-arm-none-eabi/bin/../lib/gcc/arm-none-eabi/4.8.3/../../../../arm-none-eabi/lib/armv7e-m//libm.a(lib_a-wf_sqrt.o)
 .data          0x00000000        0x0 /home/dhylands/gcc-arm-none-eabi/bin/../lib/gcc/arm-none-eabi/4.8.3/../../../../arm-none-eabi/lib/armv7e-m//libm.a(lib_a-wf_sqrt.o)
 .bss           0x00000000        0x0 /home/dhylands/gcc-arm-none-eabi/bin/../lib/gcc/arm-none-eabi/4.8.3/../../../../arm-none-eabi/lib/armv7e-m//libm.a(lib_a-wf_sqrt.o)
 .text          0x00000000        0x0 /home/dhylands/gcc-arm-none-eabi/bin/../lib/gcc/arm-none-eabi/4.8.3/../../../../arm-none-eabi/lib/armv7e-m//libm.a(lib_a-ef_acos.o)
 .data          0x00000000        0x0 /home/dhylands/gcc-arm-none-eabi/bin/../lib/gcc/arm-none-eabi/4.8.3/../../../../arm-none-eabi/lib/armv7e-m//libm.a(lib_a-ef_acos.o)
 .bss           0x00000000        0x0 /home/dhylands/gcc-arm-none-eabi/bin/../lib/gcc/arm-none-eabi/4.8.3/../../../../arm-none-eabi/lib/armv7e-m//libm.a(lib_a-ef_acos.o)
 .text          0x00000000        0x0 /home/dhylands/gcc-arm-none-eabi/bin/../lib/gcc/arm-none-eabi/4.8.3/../../../../arm-none-eabi/lib/armv7e-m//libm.a(lib_a-ef_acosh.o)
 .data          0x00000000        0x0 /home/dhylands/gcc-arm-none-eabi/bin/../lib/gcc/arm-none-eabi/4.8.3/../../../../arm-none-eabi/lib/armv7e-m//libm.a(lib_a-ef_acosh.o)
 .bss           0x00000000        0x0 /home/dhylands/gcc-arm-none-eabi/bin/../lib/gcc/arm-none-eabi/4.8.3/../../../../arm-none-eabi/lib/armv7e-m//libm.a(lib_a-ef_acosh.o)
 .text          0x00000000        0x0 /home/dhylands/gcc-arm-none-eabi/bin/../lib/gcc/arm-none-eabi/4.8.3/../../../../arm-none-eabi/lib/armv7e-m//libm.a(lib_a-ef_asin.o)
 .data          0x00000000        0x0 /home/dhylands/gcc-arm-none-eabi/bin/../lib/gcc/arm-none-eabi/4.8.3/../../../../arm-none-eabi/lib/armv7e-m//libm.a(lib_a-ef_asin.o)
 .bss           0x00000000        0x0 /home/dhylands/gcc-arm-none-eabi/bin/../lib/gcc/arm-none-eabi/4.8.3/../../../../arm-none-eabi/lib/armv7e-m//libm.a(lib_a-ef_asin.o)
 .text          0x00000000        0x0 /home/dhylands/gcc-arm-none-eabi/bin/../lib/gcc/arm-none-eabi/4.8.3/../../../../arm-none-eabi/lib/armv7e-m//libm.a(lib_a-ef_atan2.o)
 .data          0x00000000        0x0 /home/dhylands/gcc-arm-none-eabi/bin/../lib/gcc/arm-none-eabi/4.8.3/../../../../arm-none-eabi/lib/armv7e-m//libm.a(lib_a-ef_atan2.o)
 .bss           0x00000000        0x0 /home/dhylands/gcc-arm-none-eabi/bin/../lib/gcc/arm-none-eabi/4.8.3/../../../../arm-none-eabi/lib/armv7e-m//libm.a(lib_a-ef_atan2.o)
 .text          0x00000000        0x0 /home/dhylands/gcc-arm-none-eabi/bin/../lib/gcc/arm-none-eabi/4.8.3/../../../../arm-none-eabi/lib/armv7e-m//libm.a(lib_a-ef_atanh.o)
 .data          0x00000000        0x0 /home/dhylands/gcc-arm-none-eabi/bin/../lib/gcc/arm-none-eabi/4.8.3/../../../../arm-none-eabi/lib/armv7e-m//libm.a(lib_a-ef_atanh.o)
 .bss           0x00000000        0x0 /home/dhylands/gcc-arm-none-eabi/bin/../lib/gcc/arm-none-eabi/4.8.3/../../../../arm-none-eabi/lib/armv7e-m//libm.a(lib_a-ef_atanh.o)
 .text          0x00000000        0x0 /home/dhylands/gcc-arm-none-eabi/bin/../lib/gcc/arm-none-eabi/4.8.3/../../../../arm-none-eabi/lib/armv7e-m//libm.a(lib_a-ef_cosh.o)
 .data          0x00000000        0x0 /home/dhylands/gcc-arm-none-eabi/bin/../lib/gcc/arm-none-eabi/4.8.3/../../../../arm-none-eabi/lib/armv7e-m//libm.a(lib_a-ef_cosh.o)
 .bss           0x00000000        0x0 /home/dhylands/gcc-arm-none-eabi/bin/../lib/gcc/arm-none-eabi/4.8.3/../../../../arm-none-eabi/lib/armv7e-m//libm.a(lib_a-ef_cosh.o)
 .text          0x00000000        0x0 /home/dhylands/gcc-arm-none-eabi/bin/../lib/gcc/arm-none-eabi/4.8.3/../../../../arm-none-eabi/lib/armv7e-m//libm.a(lib_a-ef_exp.o)
 .data          0x00000000        0x0 /home/dhylands/gcc-arm-none-eabi/bin/../lib/gcc/arm-none-eabi/4.8.3/../../../../arm-none-eabi/lib/armv7e-m//libm.a(lib_a-ef_exp.o)
 .bss           0x00000000        0x0 /home/dhylands/gcc-arm-none-eabi/bin/../lib/gcc/arm-none-eabi/4.8.3/../../../../arm-none-eabi/lib/armv7e-m//libm.a(lib_a-ef_exp.o)
 .text          0x00000000        0x0 /home/dhylands/gcc-arm-none-eabi/bin/../lib/gcc/arm-none-eabi/4.8.3/../../../../arm-none-eabi/lib/armv7e-m//libm.a(lib_a-ef_fmod.o)
 .data          0x00000000        0x0 /home/dhylands/gcc-arm-none-eabi/bin/../lib/gcc/arm-none-eabi/4.8.3/../../../../arm-none-eabi/lib/armv7e-m//libm.a(lib_a-ef_fmod.o)
 .bss           0x00000000        0x0 /home/dhylands/gcc-arm-none-eabi/bin/../lib/gcc/arm-none-eabi/4.8.3/../../../../arm-none-eabi/lib/armv7e-m//libm.a(lib_a-ef_fmod.o)
 .text          0x00000000        0x0 /home/dhylands/gcc-arm-none-eabi/bin/../lib/gcc/arm-none-eabi/4.8.3/../../../../arm-none-eabi/lib/armv7e-m//libm.a(lib_a-ef_log.o)
 .data          0x00000000        0x0 /home/dhylands/gcc-arm-none-eabi/bin/../lib/gcc/arm-none-eabi/4.8.3/../../../../arm-none-eabi/lib/armv7e-m//libm.a(lib_a-ef_log.o)
 .bss           0x00000000        0x0 /home/dhylands/gcc-arm-none-eabi/bin/../lib/gcc/arm-none-eabi/4.8.3/../../../../arm-none-eabi/lib/armv7e-m//libm.a(lib_a-ef_log.o)
 .text          0x00000000        0x0 /home/dhylands/gcc-arm-none-eabi/bin/../lib/gcc/arm-none-eabi/4.8.3/../../../../arm-none-eabi/lib/armv7e-m//libm.a(lib_a-ef_log10.o)
 .data          0x00000000        0x0 /home/dhylands/gcc-arm-none-eabi/bin/../lib/gcc/arm-none-eabi/4.8.3/../../../../arm-none-eabi/lib/armv7e-m//libm.a(lib_a-ef_log10.o)
 .bss           0x00000000        0x0 /home/dhylands/gcc-arm-none-eabi/bin/../lib/gcc/arm-none-eabi/4.8.3/../../../../arm-none-eabi/lib/armv7e-m//libm.a(lib_a-ef_log10.o)
 .text          0x00000000        0x0 /home/dhylands/gcc-arm-none-eabi/bin/../lib/gcc/arm-none-eabi/4.8.3/../../../../arm-none-eabi/lib/armv7e-m//libm.a(lib_a-ef_pow.o)
 .data          0x00000000        0x0 /home/dhylands/gcc-arm-none-eabi/bin/../lib/gcc/arm-none-eabi/4.8.3/../../../../arm-none-eabi/lib/armv7e-m//libm.a(lib_a-ef_pow.o)
 .bss           0x00000000        0x0 /home/dhylands/gcc-arm-none-eabi/bin/../lib/gcc/arm-none-eabi/4.8.3/../../../../arm-none-eabi/lib/armv7e-m//libm.a(lib_a-ef_pow.o)
 .text          0x00000000        0x0 /home/dhylands/gcc-arm-none-eabi/bin/../lib/gcc/arm-none-eabi/4.8.3/../../../../arm-none-eabi/lib/armv7e-m//libm.a(lib_a-ef_rem_pio2.o)
 .data          0x00000000        0x0 /home/dhylands/gcc-arm-none-eabi/bin/../lib/gcc/arm-none-eabi/4.8.3/../../../../arm-none-eabi/lib/armv7e-m//libm.a(lib_a-ef_rem_pio2.o)
 .bss           0x00000000        0x0 /home/dhylands/gcc-arm-none-eabi/bin/../lib/gcc/arm-none-eabi/4.8.3/../../../../arm-none-eabi/lib/armv7e-m//libm.a(lib_a-ef_rem_pio2.o)
 .text          0x00000000        0x0 /home/dhylands/gcc-arm-none-eabi/bin/../lib/gcc/arm-none-eabi/4.8.3/../../../../arm-none-eabi/lib/armv7e-m//libm.a(lib_a-ef_sinh.o)
 .data          0x00000000        0x0 /home/dhylands/gcc-arm-none-eabi/bin/../lib/gcc/arm-none-eabi/4.8.3/../../../../arm-none-eabi/lib/armv7e-m//libm.a(lib_a-ef_sinh.o)
 .bss           0x00000000        0x0 /home/dhylands/gcc-arm-none-eabi/bin/../lib/gcc/arm-none-eabi/4.8.3/../../../../arm-none-eabi/lib/armv7e-m//libm.a(lib_a-ef_sinh.o)
 .text          0x00000000        0x0 /home/dhylands/gcc-arm-none-eabi/bin/../lib/gcc/arm-none-eabi/4.8.3/../../../../arm-none-eabi/lib/armv7e-m//libm.a(lib_a-ef_sqrt.o)
 .data          0x00000000        0x0 /home/dhylands/gcc-arm-none-eabi/bin/../lib/gcc/arm-none-eabi/4.8.3/../../../../arm-none-eabi/lib/armv7e-m//libm.a(lib_a-ef_sqrt.o)
 .bss           0x00000000        0x0 /home/dhylands/gcc-arm-none-eabi/bin/../lib/gcc/arm-none-eabi/4.8.3/../../../../arm-none-eabi/lib/armv7e-m//libm.a(lib_a-ef_sqrt.o)
 .text          0x00000000        0x0 /home/dhylands/gcc-arm-none-eabi/bin/../lib/gcc/arm-none-eabi/4.8.3/../../../../arm-none-eabi/lib/armv7e-m//libm.a(lib_a-kf_cos.o)
 .data          0x00000000        0x0 /home/dhylands/gcc-arm-none-eabi/bin/../lib/gcc/arm-none-eabi/4.8.3/../../../../arm-none-eabi/lib/armv7e-m//libm.a(lib_a-kf_cos.o)
 .bss           0x00000000        0x0 /home/dhylands/gcc-arm-none-eabi/bin/../lib/gcc/arm-none-eabi/4.8.3/../../../../arm-none-eabi/lib/armv7e-m//libm.a(lib_a-kf_cos.o)
 .text          0x00000000        0x0 /home/dhylands/gcc-arm-none-eabi/bin/../lib/gcc/arm-none-eabi/4.8.3/../../../../arm-none-eabi/lib/armv7e-m//libm.a(lib_a-kf_rem_pio2.o)
 .data          0x00000000        0x0 /home/dhylands/gcc-arm-none-eabi/bin/../lib/gcc/arm-none-eabi/4.8.3/../../../../arm-none-eabi/lib/armv7e-m//libm.a(lib_a-kf_rem_pio2.o)
 .bss           0x00000000        0x0 /home/dhylands/gcc-arm-none-eabi/bin/../lib/gcc/arm-none-eabi/4.8.3/../../../../arm-none-eabi/lib/armv7e-m//libm.a(lib_a-kf_rem_pio2.o)
 .text          0x00000000        0x0 /home/dhylands/gcc-arm-none-eabi/bin/../lib/gcc/arm-none-eabi/4.8.3/../../../../arm-none-eabi/lib/armv7e-m//libm.a(lib_a-kf_sin.o)
 .data          0x00000000        0x0 /home/dhylands/gcc-arm-none-eabi/bin/../lib/gcc/arm-none-eabi/4.8.3/../../../../arm-none-eabi/lib/armv7e-m//libm.a(lib_a-kf_sin.o)
 .bss           0x00000000        0x0 /home/dhylands/gcc-arm-none-eabi/bin/../lib/gcc/arm-none-eabi/4.8.3/../../../../arm-none-eabi/lib/armv7e-m//libm.a(lib_a-kf_sin.o)
 .text          0x00000000        0x0 /home/dhylands/gcc-arm-none-eabi/bin/../lib/gcc/arm-none-eabi/4.8.3/../../../../arm-none-eabi/lib/armv7e-m//libm.a(lib_a-kf_tan.o)
 .data          0x00000000        0x0 /home/dhylands/gcc-arm-none-eabi/bin/../lib/gcc/arm-none-eabi/4.8.3/../../../../arm-none-eabi/lib/armv7e-m//libm.a(lib_a-kf_tan.o)
 .bss           0x00000000        0x0 /home/dhylands/gcc-arm-none-eabi/bin/../lib/gcc/arm-none-eabi/4.8.3/../../../../arm-none-eabi/lib/armv7e-m//libm.a(lib_a-kf_tan.o)
 .text          0x00000000        0x0 /home/dhylands/gcc-arm-none-eabi/bin/../lib/gcc/arm-none-eabi/4.8.3/../../../../arm-none-eabi/lib/armv7e-m//libm.a(lib_a-s_lib_ver.o)
 .data          0x00000000        0x0 /home/dhylands/gcc-arm-none-eabi/bin/../lib/gcc/arm-none-eabi/4.8.3/../../../../arm-none-eabi/lib/armv7e-m//libm.a(lib_a-s_lib_ver.o)
 .bss           0x00000000        0x0 /home/dhylands/gcc-arm-none-eabi/bin/../lib/gcc/arm-none-eabi/4.8.3/../../../../arm-none-eabi/lib/armv7e-m//libm.a(lib_a-s_lib_ver.o)
 .text          0x00000000        0x0 /home/dhylands/gcc-arm-none-eabi/bin/../lib/gcc/arm-none-eabi/4.8.3/../../../../arm-none-eabi/lib/armv7e-m//libm.a(lib_a-s_matherr.o)
 .data          0x00000000        0x0 /home/dhylands/gcc-arm-none-eabi/bin/../lib/gcc/arm-none-eabi/4.8.3/../../../../arm-none-eabi/lib/armv7e-m//libm.a(lib_a-s_matherr.o)
 .bss           0x00000000        0x0 /home/dhylands/gcc-arm-none-eabi/bin/../lib/gcc/arm-none-eabi/4.8.3/../../../../arm-none-eabi/lib/armv7e-m//libm.a(lib_a-s_matherr.o)
 .text          0x00000000        0x0 /home/dhylands/gcc-arm-none-eabi/bin/../lib/gcc/arm-none-eabi/4.8.3/../../../../arm-none-eabi/lib/armv7e-m//libm.a(lib_a-s_nan.o)
 .data          0x00000000        0x0 /home/dhylands/gcc-arm-none-eabi/bin/../lib/gcc/arm-none-eabi/4.8.3/../../../../arm-none-eabi/lib/armv7e-m//libm.a(lib_a-s_nan.o)
 .bss           0x00000000        0x0 /home/dhylands/gcc-arm-none-eabi/bin/../lib/gcc/arm-none-eabi/4.8.3/../../../../arm-none-eabi/lib/armv7e-m//libm.a(lib_a-s_nan.o)
 .text          0x00000000        0x0 /home/dhylands/gcc-arm-none-eabi/bin/../lib/gcc/arm-none-eabi/4.8.3/../../../../arm-none-eabi/lib/armv7e-m//libm.a(lib_a-s_rint.o)
 .data          0x00000000        0x0 /home/dhylands/gcc-arm-none-eabi/bin/../lib/gcc/arm-none-eabi/4.8.3/../../../../arm-none-eabi/lib/armv7e-m//libm.a(lib_a-s_rint.o)
 .bss           0x00000000        0x0 /home/dhylands/gcc-arm-none-eabi/bin/../lib/gcc/arm-none-eabi/4.8.3/../../../../arm-none-eabi/lib/armv7e-m//libm.a(lib_a-s_rint.o)
 .text          0x00000000        0x0 /home/dhylands/gcc-arm-none-eabi/bin/../lib/gcc/arm-none-eabi/4.8.3/../../../../arm-none-eabi/lib/armv7e-m//libm.a(lib_a-sf_copysign.o)
 .data          0x00000000        0x0 /home/dhylands/gcc-arm-none-eabi/bin/../lib/gcc/arm-none-eabi/4.8.3/../../../../arm-none-eabi/lib/armv7e-m//libm.a(lib_a-sf_copysign.o)
 .bss           0x00000000        0x0 /home/dhylands/gcc-arm-none-eabi/bin/../lib/gcc/arm-none-eabi/4.8.3/../../../../arm-none-eabi/lib/armv7e-m//libm.a(lib_a-sf_copysign.o)
 .text          0x00000000        0x0 /home/dhylands/gcc-arm-none-eabi/bin/../lib/gcc/arm-none-eabi/4.8.3/../../../../arm-none-eabi/lib/armv7e-m//libm.a(lib_a-sf_finite.o)
 .data          0x00000000        0x0 /home/dhylands/gcc-arm-none-eabi/bin/../lib/gcc/arm-none-eabi/4.8.3/../../../../arm-none-eabi/lib/armv7e-m//libm.a(lib_a-sf_finite.o)
 .bss           0x00000000        0x0 /home/dhylands/gcc-arm-none-eabi/bin/../lib/gcc/arm-none-eabi/4.8.3/../../../../arm-none-eabi/lib/armv7e-m//libm.a(lib_a-sf_finite.o)
 .text          0x00000000        0x0 /home/dhylands/gcc-arm-none-eabi/bin/../lib/gcc/arm-none-eabi/4.8.3/../../../../arm-none-eabi/lib/armv7e-m//libm.a(lib_a-sf_nan.o)
 .data          0x00000000        0x0 /home/dhylands/gcc-arm-none-eabi/bin/../lib/gcc/arm-none-eabi/4.8.3/../../../../arm-none-eabi/lib/armv7e-m//libm.a(lib_a-sf_nan.o)
 .bss           0x00000000        0x0 /home/dhylands/gcc-arm-none-eabi/bin/../lib/gcc/arm-none-eabi/4.8.3/../../../../arm-none-eabi/lib/armv7e-m//libm.a(lib_a-sf_nan.o)
 .text          0x00000000        0x0 /home/dhylands/gcc-arm-none-eabi/bin/../lib/gcc/arm-none-eabi/4.8.3/../../../../arm-none-eabi/lib/armv7e-m//libc.a(lib_a-errno.o)
 .data          0x00000000        0x0 /home/dhylands/gcc-arm-none-eabi/bin/../lib/gcc/arm-none-eabi/4.8.3/../../../../arm-none-eabi/lib/armv7e-m//libc.a(lib_a-errno.o)
 .bss           0x00000000        0x0 /home/dhylands/gcc-arm-none-eabi/bin/../lib/gcc/arm-none-eabi/4.8.3/../../../../arm-none-eabi/lib/armv7e-m//libc.a(lib_a-errno.o)
 .text          0x00000000        0x0 /home/dhylands/gcc-arm-none-eabi/bin/../lib/gcc/arm-none-eabi/4.8.3/../../../../arm-none-eabi/lib/armv7e-m//libc.a(lib_a-impure.o)
 .data          0x00000000        0x0 /home/dhylands/gcc-arm-none-eabi/bin/../lib/gcc/arm-none-eabi/4.8.3/../../../../arm-none-eabi/lib/armv7e-m//libc.a(lib_a-impure.o)
 .bss           0x00000000        0x0 /home/dhylands/gcc-arm-none-eabi/bin/../lib/gcc/arm-none-eabi/4.8.3/../../../../arm-none-eabi/lib/armv7e-m//libc.a(lib_a-impure.o)
 .rodata._global_impure_ptr
                0x00000000        0x4 /home/dhylands/gcc-arm-none-eabi/bin/../lib/gcc/arm-none-eabi/4.8.3/../../../../arm-none-eabi/lib/armv7e-m//libc.a(lib_a-impure.o)
 .data          0x00000000        0x0 /home/dhylands/gcc-arm-none-eabi/bin/../lib/gcc/arm-none-eabi/4.8.3/armv7e-m//libgcc.a(_arm_addsubdf3.o)
 .bss           0x00000000        0x0 /home/dhylands/gcc-arm-none-eabi/bin/../lib/gcc/arm-none-eabi/4.8.3/armv7e-m//libgcc.a(_arm_addsubdf3.o)
 .data          0x00000000        0x0 /home/dhylands/gcc-arm-none-eabi/bin/../lib/gcc/arm-none-eabi/4.8.3/armv7e-m//libgcc.a(_arm_muldivdf3.o)
 .bss           0x00000000        0x0 /home/dhylands/gcc-arm-none-eabi/bin/../lib/gcc/arm-none-eabi/4.8.3/armv7e-m//libgcc.a(_arm_muldivdf3.o)
 .data          0x00000000        0x0 /home/dhylands/gcc-arm-none-eabi/bin/../lib/gcc/arm-none-eabi/4.8.3/armv7e-m//libgcc.a(_arm_cmpdf2.o)
 .bss           0x00000000        0x0 /home/dhylands/gcc-arm-none-eabi/bin/../lib/gcc/arm-none-eabi/4.8.3/armv7e-m//libgcc.a(_arm_cmpdf2.o)
 .data          0x00000000        0x0 /home/dhylands/gcc-arm-none-eabi/bin/../lib/gcc/arm-none-eabi/4.8.3/armv7e-m//libgcc.a(_arm_truncdfsf2.o)
 .bss           0x00000000        0x0 /home/dhylands/gcc-arm-none-eabi/bin/../lib/gcc/arm-none-eabi/4.8.3/armv7e-m//libgcc.a(_arm_truncdfsf2.o)
 .data          0x00000000        0x0 /home/dhylands/gcc-arm-none-eabi/bin/../lib/gcc/arm-none-eabi/4.8.3/armv7e-m//libgcc.a(_arm_addsubsf3.o)
 .bss           0x00000000        0x0 /home/dhylands/gcc-arm-none-eabi/bin/../lib/gcc/arm-none-eabi/4.8.3/armv7e-m//libgcc.a(_arm_addsubsf3.o)
 .data          0x00000000        0x0 /home/dhylands/gcc-arm-none-eabi/bin/../lib/gcc/arm-none-eabi/4.8.3/armv7e-m//libgcc.a(_arm_muldivsf3.o)
 .bss           0x00000000        0x0 /home/dhylands/gcc-arm-none-eabi/bin/../lib/gcc/arm-none-eabi/4.8.3/armv7e-m//libgcc.a(_arm_muldivsf3.o)
 .data          0x00000000        0x0 /home/dhylands/gcc-arm-none-eabi/bin/../lib/gcc/arm-none-eabi/4.8.3/armv7e-m//libgcc.a(_arm_cmpsf2.o)
 .bss           0x00000000        0x0 /home/dhylands/gcc-arm-none-eabi/bin/../lib/gcc/arm-none-eabi/4.8.3/armv7e-m//libgcc.a(_arm_cmpsf2.o)
 .data          0x00000000        0x0 /home/dhylands/gcc-arm-none-eabi/bin/../lib/gcc/arm-none-eabi/4.8.3/armv7e-m//libgcc.a(_arm_fixsfsi.o)
 .bss           0x00000000        0x0 /home/dhylands/gcc-arm-none-eabi/bin/../lib/gcc/arm-none-eabi/4.8.3/armv7e-m//libgcc.a(_arm_fixsfsi.o)
 .data          0x00000000        0x0 /home/dhylands/gcc-arm-none-eabi/bin/../lib/gcc/arm-none-eabi/4.8.3/armv7e-m//libgcc.a(_arm_fixunssfsi.o)
 .bss           0x00000000        0x0 /home/dhylands/gcc-arm-none-eabi/bin/../lib/gcc/arm-none-eabi/4.8.3/armv7e-m//libgcc.a(_arm_fixunssfsi.o)

Memory Configuration

Name             Origin             Length             Attributes
FLASH            0x00000000         0x00040000         xr
RAM              0x1fff8000         0x00010000         xrw
*default*        0x00000000         0xffffffff

Linker script and memory map

LOAD build/py/mpstate.o
LOAD build/py/nlrx86.o
LOAD build/py/nlrx64.o
LOAD build/py/nlrthumb.o
LOAD build/py/nlrxtensa.o
LOAD build/py/nlrsetjmp.o
LOAD build/py/malloc.o
LOAD build/py/gc.o
LOAD build/py/qstr.o
LOAD build/py/vstr.o
LOAD build/py/unicode.o
LOAD build/py/mpz.o
LOAD build/py/lexer.o
LOAD build/py/lexerstr.o
LOAD build/py/lexerunix.o
LOAD build/py/parse.o
LOAD build/py/scope.o
LOAD build/py/compile.o
LOAD build/py/emitcommon.o
LOAD build/py/emitpass1.o
LOAD build/py/emitcpy.o
LOAD build/py/emitbc.o
LOAD build/py/asmx64.o
LOAD build/py/emitnx64.o
LOAD build/py/asmx86.o
LOAD build/py/emitnx86.o
LOAD build/py/asmthumb.o
LOAD build/py/emitnthumb.o
LOAD build/py/emitinlinethumb.o
LOAD build/py/asmarm.o
LOAD build/py/emitnarm.o
LOAD build/py/formatfloat.o
LOAD build/py/parsenumbase.o
LOAD build/py/parsenum.o
LOAD build/py/emitglue.o
LOAD build/py/runtime.o
LOAD build/py/nativeglue.o
LOAD build/py/stackctrl.o
LOAD build/py/argcheck.o
LOAD build/py/warning.o
LOAD build/py/map.o
LOAD build/py/obj.o
LOAD build/py/objarray.o
LOAD build/py/objbool.o
LOAD build/py/objboundmeth.o
LOAD build/py/objcell.o
LOAD build/py/objclosure.o
LOAD build/py/objcomplex.o
LOAD build/py/objdict.o
LOAD build/py/objenumerate.o
LOAD build/py/objexcept.o
LOAD build/py/objfilter.o
LOAD build/py/objfloat.o
LOAD build/py/objfun.o
LOAD build/py/objgenerator.o
LOAD build/py/objgetitemiter.o
LOAD build/py/objint.o
LOAD build/py/objint_longlong.o
LOAD build/py/objint_mpz.o
LOAD build/py/objlist.o
LOAD build/py/objmap.o
LOAD build/py/objmodule.o
LOAD build/py/objobject.o
LOAD build/py/objproperty.o
LOAD build/py/objnone.o
LOAD build/py/objnamedtuple.o
LOAD build/py/objrange.o
LOAD build/py/objreversed.o
LOAD build/py/objset.o
LOAD build/py/objslice.o
LOAD build/py/objstr.o
LOAD build/py/objstrunicode.o
LOAD build/py/objstringio.o
LOAD build/py/objtuple.o
LOAD build/py/objtype.o
LOAD build/py/objzip.o
LOAD build/py/opmethods.o
LOAD build/py/sequence.o
LOAD build/py/stream.o
LOAD build/py/binary.o
LOAD build/py/builtinimport.o
LOAD build/py/builtinevex.o
LOAD build/py/modarray.o
LOAD build/py/modbuiltins.o
LOAD build/py/modcollections.o
LOAD build/py/modgc.o
LOAD build/py/modio.o
LOAD build/py/modmath.o
LOAD build/py/modcmath.o
LOAD build/py/modmicropython.o
LOAD build/py/modstruct.o
LOAD build/py/modsys.o
LOAD build/py/vm.o
LOAD build/py/bc.o
LOAD build/py/showbc.o
LOAD build/py/repl.o
LOAD build/py/smallint.o
LOAD build/py/pfenv.o
LOAD build/py/pfenv_printf.o
LOAD build/py/frozenmod.o
LOAD build/py/../extmod/moductypes.o
LOAD build/py/../extmod/modujson.o
LOAD build/py/../extmod/modure.o
LOAD build/py/../extmod/moduzlib.o
LOAD build/py/../extmod/moduheapq.o
LOAD build/py/../extmod/moduhashlib.o
LOAD build/py/../extmod/modubinascii.o
LOAD build/hal_ftm.o
LOAD build/hal_gpio.o
LOAD build/help.o
LOAD build/import.o
LOAD build/main.o
LOAD build/lcd.o
LOAD build/led.o
LOAD build/lexermemzip.o
LOAD build/memzip.o
LOAD build/modpyb.o
LOAD build/pin_defs_teensy.o
LOAD build/reg.o
LOAD build/teensy_hal.o
LOAD build/timer.o
LOAD build/uart.o
LOAD build/usb.o
LOAD build/stmhal/gccollect.o
LOAD build/stmhal/input.o
LOAD build/stmhal/irq.o
LOAD build/stmhal/pin.o
LOAD build/stmhal/pin_named_pins.o
LOAD build/stmhal/printf.o
LOAD build/stmhal/pyexec.o
LOAD build/stmhal/pybstdio.o
LOAD build/stmhal/string0.o
LOAD build/stmhal/gchelper.o
LOAD build/core/mk20dx128.o
LOAD build/core/pins_teensy.o
LOAD build/core/analog.o
LOAD build/core/usb_desc.o
LOAD build/core/usb_dev.o
LOAD build/core/usb_mem.o
LOAD build/core/usb_serial.o
LOAD build/core/yield.o
LOAD build/lib/mp-readline/readline.o
LOAD build/pins_gen.o
LOAD /home/dhylands/gcc-arm-none-eabi/bin/../lib/gcc/arm-none-eabi/4.8.3/../../../../arm-none-eabi/lib/armv7e-m//libm.a
LOAD /home/dhylands/gcc-arm-none-eabi/bin/../lib/gcc/arm-none-eabi/4.8.3/../../../../arm-none-eabi/lib/armv7e-m//libc.a
LOAD /home/dhylands/gcc-arm-none-eabi/bin/../lib/gcc/arm-none-eabi/4.8.3/armv7e-m//libgcc.a
                0x00000800                _minimum_stack_size = 0x800
                0x00004000                _minimum_heap_size = 0x4000

.text           0x00000000    0x2e824
                0x00000000                . = 0x0
 *(.vectors)
 .vectors       0x00000000      0x1bc build/core/mk20dx128.o
                0x00000000                gVectors
 *(.startup*)
 .startup       0x000001bc      0x1b0 build/core/mk20dx128.o
                0x000001bc                ResetHandler
                0x00000400                . = 0x400
 *fill*         0x0000036c       0x94 ff
 *(.flashconfig*)
 .flashconfig   0x00000400       0x10 build/core/mk20dx128.o
                0x00000400                flashconfigbytes
 *(.text*)
 .text          0x00000410       0x74 build/py/nlrthumb.o
                0x00000410                nlr_push
                0x00000440                nlr_pop
                0x0000044c                nlr_jump
 .text.m_malloc
                0x00000484       0x1a build/py/malloc.o
                0x00000484                m_malloc
 .text.m_malloc_maybe
                0x0000049e        0x6 build/py/malloc.o
                0x0000049e                m_malloc_maybe
 .text.m_malloc0
                0x000004a4       0x26 build/py/malloc.o
                0x000004a4                m_malloc0
 .text.m_realloc
                0x000004ca       0x1a build/py/malloc.o
                0x000004ca                m_realloc
 .text.m_realloc_maybe
                0x000004e4        0x6 build/py/malloc.o
                0x000004e4                m_realloc_maybe
 .text.m_free   0x000004ea        0x4 build/py/malloc.o
                0x000004ea                m_free
 *fill*         0x000004ee        0x2 ff
 .text.gc_drain_stack
                0x000004f0       0xd8 build/py/gc.o
 .text.gc_free.part.0
                0x000005c8       0xa8 build/py/gc.o
 .text.gc_init  0x00000670       0x8c build/py/gc.o
                0x00000670                gc_init
 .text.gc_lock  0x000006fc       0x14 build/py/gc.o
                0x000006fc                gc_lock
 .text.gc_unlock
                0x00000710       0x14 build/py/gc.o
                0x00000710                gc_unlock
 .text.gc_is_locked
                0x00000724       0x14 build/py/gc.o
                0x00000724                gc_is_locked
 .text.gc_collect_start
                0x00000738       0x9c build/py/gc.o
                0x00000738                gc_collect_start
 .text.gc_collect_root
                0x000007d4       0x84 build/py/gc.o
                0x000007d4                gc_collect_root
 .text.gc_collect_end
                0x00000858      0x160 build/py/gc.o
                0x00000858                gc_collect_end
 .text.gc_info  0x000009b8       0xb4 build/py/gc.o
                0x000009b8                gc_info
 .text.gc_alloc
                0x00000a6c      0x16c build/py/gc.o
                0x00000a6c                gc_alloc
 .text.gc_free  0x00000bd8       0xac build/py/gc.o
                0x00000bd8                gc_free
 .text.gc_nbytes
                0x00000c84       0x6c build/py/gc.o
                0x00000c84                gc_nbytes
 .text.gc_realloc
                0x00000cf0      0x1dc build/py/gc.o
                0x00000cf0                gc_realloc
 .text.gc_dump_info
                0x00000ecc       0x2c build/py/gc.o
                0x00000ecc                gc_dump_info
 .text.gc_dump_alloc_table
                0x00000ef8      0x168 build/py/gc.o
                0x00000ef8                gc_dump_alloc_table
 .text.find_qstr
                0x00001060       0x24 build/py/qstr.o
 .text.qstr_add
                0x00001084       0x4c build/py/qstr.o
 .text.qstr_compute_hash
                0x000010d0       0x20 build/py/qstr.o
                0x000010d0                qstr_compute_hash
 .text.qstr_init
                0x000010f0       0x10 build/py/qstr.o
                0x000010f0                qstr_init
 .text.qstr_find_strn
                0x00001100       0x68 build/py/qstr.o
                0x00001100                qstr_find_strn
 .text.qstr_from_strn
                0x00001168       0x64 build/py/qstr.o
                0x00001168                qstr_from_strn
 .text.qstr_from_str
                0x000011cc       0x14 build/py/qstr.o
                0x000011cc                qstr_from_str
 .text.qstr_build_start
                0x000011e0       0x34 build/py/qstr.o
                0x000011e0                qstr_build_start
 .text.qstr_build_end
                0x00001214       0x3c build/py/qstr.o
                0x00001214                qstr_build_end
 .text.qstr_hash
                0x00001250       0x10 build/py/qstr.o
                0x00001250                qstr_hash
 .text.qstr_len
                0x00001260        0xa build/py/qstr.o
                0x00001260                qstr_len
 .text.qstr_str
                0x0000126a        0xa build/py/qstr.o
                0x0000126a                qstr_str
 .text.qstr_data
                0x00001274       0x10 build/py/qstr.o
                0x00001274                qstr_data
 .text.qstr_pool_info
                0x00001284       0x7c build/py/qstr.o
                0x00001284                qstr_pool_info
 .text.vstr_ensure_extra
                0x00001300       0x40 build/py/vstr.o
 .text.vstr_ins_blank_bytes.constprop.0
                0x00001340       0x3c build/py/vstr.o
 .text.vstr_init
                0x0000137c       0x2e build/py/vstr.o
                0x0000137c                vstr_init
 .text.vstr_init_len
                0x000013aa        0xe build/py/vstr.o
                0x000013aa                vstr_init_len
 .text.vstr_init_fixed_buf
                0x000013b8       0x16 build/py/vstr.o
                0x000013b8                vstr_init_fixed_buf
 .text.vstr_clear
                0x000013ce       0x18 build/py/vstr.o
                0x000013ce                vstr_clear
 .text.vstr_new
                0x000013e6       0x16 build/py/vstr.o
                0x000013e6                vstr_new
 .text.vstr_free
                0x000013fc       0x22 build/py/vstr.o
                0x000013fc                vstr_free
 .text.vstr_reset
                0x0000141e        0xe build/py/vstr.o
                0x0000141e                vstr_reset
 .text.vstr_had_error
                0x0000142c        0x8 build/py/vstr.o
                0x0000142c                vstr_had_error
 .text.vstr_str
                0x00001434        0xc build/py/vstr.o
                0x00001434                vstr_str
 .text.vstr_len
                0x00001440        0xc build/py/vstr.o
                0x00001440                vstr_len
 .text.vstr_extend
                0x0000144c       0x32 build/py/vstr.o
                0x0000144c                vstr_extend
 .text.vstr_add_len
                0x0000147e       0x24 build/py/vstr.o
                0x0000147e                vstr_add_len
 .text.vstr_null_terminated_str
                0x000014a2       0x26 build/py/vstr.o
                0x000014a2                vstr_null_terminated_str
 .text.vstr_add_byte
                0x000014c8       0x10 build/py/vstr.o
                0x000014c8                vstr_add_byte
 .text.vstr_add_char
                0x000014d8        0x6 build/py/vstr.o
                0x000014d8                vstr_add_char
 .text.vstr_add_strn
                0x000014de       0x44 build/py/vstr.o
                0x000014de                vstr_add_strn
 .text.vstr_add_str
                0x00001522       0x1a build/py/vstr.o
                0x00001522                vstr_add_str
 .text.vstr_ins_char
                0x0000153c        0xe build/py/vstr.o
                0x0000153c                vstr_ins_char
 .text.vstr_cut_tail_bytes
                0x0000154a       0x18 build/py/vstr.o
                0x0000154a                vstr_cut_tail_bytes
 .text.vstr_cut_out_bytes
                0x00001562       0x32 build/py/vstr.o
                0x00001562                vstr_cut_out_bytes
 .text.vstr_vprintf
                0x00001594       0x5a build/py/vstr.o
                0x00001594                vstr_vprintf
 .text.vstr_printf
                0x000015ee       0x1a build/py/vstr.o
                0x000015ee                vstr_printf
 .text.utf8_next_char
                0x00001608        0x4 build/py/unicode.o
                0x00001608                utf8_next_char
 .text.unichar_charlen
                0x0000160c        0x4 build/py/unicode.o
                0x0000160c                unichar_charlen
 .text.unichar_isspace
                0x00001610       0x14 build/py/unicode.o
                0x00001610                unichar_isspace
 .text.unichar_isalpha
                0x00001624       0x14 build/py/unicode.o
                0x00001624                unichar_isalpha
 .text.unichar_isdigit
                0x00001638       0x14 build/py/unicode.o
                0x00001638                unichar_isdigit
 .text.unichar_isxdigit
                0x0000164c       0x1e build/py/unicode.o
                0x0000164c                unichar_isxdigit
 *fill*         0x0000166a        0x2 ff
 .text.unichar_isupper
                0x0000166c       0x14 build/py/unicode.o
                0x0000166c                unichar_isupper
 .text.unichar_islower
                0x00001680       0x14 build/py/unicode.o
                0x00001680                unichar_islower
 .text.unichar_tolower
                0x00001694       0x14 build/py/unicode.o
                0x00001694                unichar_tolower
 .text.unichar_toupper
                0x000016a8       0x14 build/py/unicode.o
                0x000016a8                unichar_toupper
 .text.mpn_shr  0x000016bc       0x46 build/py/mpz.o
 .text.mpn_add  0x00001702       0x5a build/py/mpz.o
 .text.mpn_sub  0x0000175c       0x62 build/py/mpz.o
 .text.mpn_cmp  0x000017be       0x32 build/py/mpz.o
 .text.mpz_need_dig
                0x000017f0       0x54 build/py/mpz.o
 .text.mpz_set_from_int.part.3
                0x00001844       0x3c build/py/mpz.o
 .text.mpz_init_zero
                0x00001880       0x1c build/py/mpz.o
                0x00001880                mpz_init_zero
 .text.mpz_deinit
                0x0000189c       0x18 build/py/mpz.o
                0x0000189c                mpz_deinit
 .text.mpz_free
                0x000018b4       0x22 build/py/mpz.o
                0x000018b4                mpz_free
 .text.mpz_clone
                0x000018d6       0x4e build/py/mpz.o
                0x000018d6                mpz_clone
 .text.mpz_set  0x00001924       0x2a build/py/mpz.o
                0x00001924                mpz_set
 .text.mpz_set_from_int
                0x0000194e        0xc build/py/mpz.o
                0x0000194e                mpz_set_from_int
 .text.mpz_init_from_int
                0x0000195a       0x16 build/py/mpz.o
                0x0000195a                mpz_init_from_int
 .text.mpz_init_fixed_from_int
                0x00001970       0x26 build/py/mpz.o
                0x00001970                mpz_init_fixed_from_int
 .text.mpz_set_from_ll
                0x00001996       0x6e build/py/mpz.o
                0x00001996                mpz_set_from_ll
 .text.mpz_set_from_float
                0x00001a04       0xaa build/py/mpz.o
                0x00001a04                mpz_set_from_float
 *fill*         0x00001aae        0x2 ff
 .text.mpz_set_from_str
                0x00001ab0       0xb8 build/py/mpz.o
                0x00001ab0                mpz_set_from_str
 .text.mpz_is_zero
                0x00001b68        0xc build/py/mpz.o
                0x00001b68                mpz_is_zero
 .text.mpz_is_odd
                0x00001b74       0x16 build/py/mpz.o
                0x00001b74                mpz_is_odd
 .text.mpz_cmp  0x00001b8a       0x2e build/py/mpz.o
                0x00001b8a                mpz_cmp
 .text.mpz_neg_inpl
                0x00001bb8       0x1e build/py/mpz.o
                0x00001bb8                mpz_neg_inpl
 .text.mpz_not_inpl
                0x00001bd6       0x72 build/py/mpz.o
                0x00001bd6                mpz_not_inpl
 .text.mpz_shr_inpl
                0x00001c48       0xb4 build/py/mpz.o
                0x00001c48                mpz_shr_inpl
 .text.mpz_shl_inpl
                0x00001cfc       0xc6 build/py/mpz.o
                0x00001cfc                mpz_shl_inpl
 .text.mpz_add_inpl
                0x00001dc2       0x72 build/py/mpz.o
                0x00001dc2                mpz_add_inpl
 .text.mpz_sub_inpl
                0x00001e34       0x82 build/py/mpz.o
                0x00001e34                mpz_sub_inpl
 *fill*         0x00001eb6        0x2 ff
 .text.mpz_and_inpl
                0x00001eb8      0x13c build/py/mpz.o
                0x00001eb8                mpz_and_inpl
 .text.mpz_or_inpl
                0x00001ff4       0xb0 build/py/mpz.o
                0x00001ff4                mpz_or_inpl
 .text.mpz_xor_inpl
                0x000020a4       0xac build/py/mpz.o
                0x000020a4                mpz_xor_inpl
 .text.mpz_mul_inpl
                0x00002150      0x116 build/py/mpz.o
                0x00002150                mpz_mul_inpl
 .text.mpz_pow_inpl
                0x00002266       0x7e build/py/mpz.o
                0x00002266                mpz_pow_inpl
 .text.mpz_divmod_inpl
                0x000022e4      0x2b8 build/py/mpz.o
                0x000022e4                mpz_divmod_inpl
 .text.mpz_hash
                0x0000259c       0x26 build/py/mpz.o
                0x0000259c                mpz_hash
 .text.mpz_as_int_checked
                0x000025c2       0x32 build/py/mpz.o
                0x000025c2                mpz_as_int_checked
 .text.mpz_as_float
                0x000025f4       0x3a build/py/mpz.o
                0x000025f4                mpz_as_float
 *fill*         0x0000262e        0x2 ff
 .text.mpz_as_str_size
                0x00002630       0x3c build/py/mpz.o
                0x00002630                mpz_as_str_size
 .text.mpz_as_str_inpl
                0x0000266c      0x120 build/py/mpz.o
                0x0000266c                mpz_as_str_inpl
 .text.next_char
                0x0000278c       0x68 build/py/lexer.o
 .text.mp_lexer_next_token_into
                0x000027f4      0x6bc build/py/lexer.o
 .text.mp_lexer_free
                0x00002eb0       0x2e build/py/lexer.o
                0x00002eb0                mp_lexer_free
 .text.mp_lexer_new
                0x00002ede       0xb8 build/py/lexer.o
                0x00002ede                mp_lexer_new
 .text.mp_lexer_to_next
                0x00002f96        0x6 build/py/lexer.o
                0x00002f96                mp_lexer_to_next
 .text.str_buf_next_byte
                0x00002f9c       0x14 build/py/lexerstr.o
 .text.str_buf_free
                0x00002fb0       0x1a build/py/lexerstr.o
 *fill*         0x00002fca        0x2 ff
 .text.mp_lexer_new_from_str_len
                0x00002fcc       0x3c build/py/lexerstr.o
                0x00002fcc                mp_lexer_new_from_str_len
 .text.peek_result
                0x00003008       0x3c build/py/parse.o
 .text.pop_result
                0x00003044       0x34 build/py/parse.o
 .text.push_result_node
                0x00003078       0x3c build/py/parse.o
 .text.push_result_rule
                0x000030b4       0x4e build/py/parse.o
 .text.push_rule
                0x00003102       0x5a build/py/parse.o
 .text.push_rule_from_arg
                0x0000315c       0x58 build/py/parse.o
 .text.mp_parse_node_new_leaf
                0x000031b4       0x10 build/py/parse.o
                0x000031b4                mp_parse_node_new_leaf
 .text.push_result_token
                0x000031c4       0xfc build/py/parse.o
 .text.mp_parse_node_free
                0x000032c0       0x64 build/py/parse.o
                0x000032c0                mp_parse_node_free
 .text.mp_parse_node_extract_list
                0x00003324       0x26 build/py/parse.o
                0x00003324                mp_parse_node_extract_list
 *fill*         0x0000334a        0x2 ff
 .text.mp_parse
                0x0000334c      0x47c build/py/parse.o
                0x0000334c                mp_parse
 .text.scope_new
                0x000037c8       0x9c build/py/scope.o
                0x000037c8                scope_new
 .text.scope_free
                0x00003864       0x1a build/py/scope.o
                0x00003864                scope_free
 .text.scope_find
                0x0000387e       0x20 build/py/scope.o
                0x0000387e                scope_find
 .text.scope_find_or_add_id
                0x0000389e       0x4c build/py/scope.o
                0x0000389e                scope_find_or_add_id
 .text.scope_find_global
                0x000038ea        0xc build/py/scope.o
                0x000038ea                scope_find_global
 .text.scope_find_local_in_parent
                0x000038f6       0x1e build/py/scope.o
                0x000038f6                scope_find_local_in_parent
 .text.scope_close_over_in_parents
                0x00003914       0x70 build/py/scope.o
                0x00003914                scope_close_over_in_parents
 .text.compile_increase_except_level
                0x00003984       0x14 build/py/compile.o
 .text.apply_to_single_or_list
                0x00003998       0x3e build/py/compile.o
 .text.node_is_const_false
                0x000039d6       0x1c build/py/compile.o
 .text.node_is_const_true
                0x000039f2       0x1e build/py/compile.o
 .text.compile_del_stmt
                0x00003a10       0x10 build/py/compile.o
 .text.compile_import_name
                0x00003a20       0x10 build/py/compile.o
 .text.compile_trailer_period
                0x00003a30       0x10 build/py/compile.o
 .text.compile_const_object
                0x00003a40        0xe build/py/compile.o
 *fill*         0x00003a4e        0x2 ff
 .text.close_over_variables_etc
                0x00003a50       0xcc build/py/compile.o
 .text.compile_syntax_error
                0x00003b1c       0x34 build/py/compile.o
 .text.fold_constants
                0x00003b50      0x328 build/py/compile.o
 .text.compile_star_expr
                0x00003e78        0xc build/py/compile.o
 .text.scope_new_and_link
                0x00003e84       0x2a build/py/compile.o
 .text.compile_lambdef
                0x00003eae       0x2a build/py/compile.o
 .text.compile_funcdef_helper
                0x00003ed8       0x7c build/py/compile.o
 .text.compile_funcdef
                0x00003f54       0x18 build/py/compile.o
 .text.compile_scope_inline_asm
                0x00003f6c      0x284 build/py/compile.o
 .text.compile_scope_func_lambda_param
                0x000041f0       0xfc build/py/compile.o
 .text.compile_scope_lambda_param
                0x000042ec       0x14 build/py/compile.o
 .text.compile_scope_func_param
                0x00004300       0x14 build/py/compile.o
 .text.compile_atom_string
                0x00004314      0x130 build/py/compile.o
 .text.do_import_name
                0x00004444      0x104 build/py/compile.o
 .text.compile_import_from
                0x00004548      0x168 build/py/compile.o
 .text.compile_dotted_as_name
                0x000046b0       0x32 build/py/compile.o
 *fill*         0x000046e2        0x2 ff
 .text.compile_decrease_except_level.isra.2
                0x000046e4       0x28 build/py/compile.o
 .text.compile_node
                0x0000470c       0x8c build/py/compile.o
 .text.c_assign
                0x00004798      0x250 build/py/compile.o
 .text.c_assign_tuple
                0x000049e8       0xe0 build/py/compile.o
 .text.c_if_cond
                0x00004ac8       0xfa build/py/compile.o
 *fill*         0x00004bc2        0x2 ff
 .text.compile_scope_comp_iter
                0x00004bc4      0x100 build/py/compile.o
 .text.compile_dictorsetmaker_item
                0x00004cc4       0x18 build/py/compile.o
 .text.compile_subscript_3_helper
                0x00004cdc       0xb0 build/py/compile.o
 .text.compile_subscript_3
                0x00004d8c       0x1c build/py/compile.o
 .text.compile_trailer_bracket
                0x00004da8       0x14 build/py/compile.o
 .text.c_tuple  0x00004dbc       0x42 build/py/compile.o
 .text.compile_generic_tuple
                0x00004dfe        0x8 build/py/compile.o
 .text.compile_power_dbl_star
                0x00004e06       0x18 build/py/compile.o
 *fill*         0x00004e1e        0x2 ff
 .text.compile_term
                0x00004e20       0x94 build/py/compile.o
 .text.c_binary_op
                0x00004eb4       0x3a build/py/compile.o
 .text.compile_and_expr
                0x00004eee        0x6 build/py/compile.o
 .text.compile_xor_expr
                0x00004ef4        0x6 build/py/compile.o
 .text.compile_expr
                0x00004efa        0x6 build/py/compile.o
 .text.compile_comparison
                0x00004f00      0x148 build/py/compile.o
 .text.compile_not_test_2
                0x00005048       0x18 build/py/compile.o
 .text.compile_or_and_test
                0x00005060       0x4a build/py/compile.o
 .text.compile_and_test
                0x000050aa        0x6 build/py/compile.o
 .text.compile_or_test
                0x000050b0        0x6 build/py/compile.o
 *fill*         0x000050b6        0x2 ff
 .text.compile_test_if_expr
                0x000050b8       0x84 build/py/compile.o
 .text.compile_with_stmt_helper
                0x0000513c       0xbe build/py/compile.o
 .text.compile_while_stmt
                0x000051fa       0x92 build/py/compile.o
 .text.compile_assert_stmt
                0x0000528c       0x52 build/py/compile.o
 .text.compile_raise_stmt
                0x000052de       0x4e build/py/compile.o
 .text.compile_yield_stmt
                0x0000532c       0x16 build/py/compile.o
 *fill*         0x00005342        0x2 ff
 .text.compile_expr_stmt
                0x00005344      0x260 build/py/compile.o
 .text.compile_generic_all_nodes
                0x000055a4       0x22 build/py/compile.o
 .text.compile_power
                0x000055c6       0x1e build/py/compile.o
 .text.compile_try_except
                0x000055e4      0x230 build/py/compile.o
 .text.compile_try_finally
                0x00005814       0xb4 build/py/compile.o
 .text.compile_try_stmt
                0x000058c8       0x88 build/py/compile.o
 .text.c_del_stmt
                0x00005950      0x168 build/py/compile.o
 .text.compile_funcdef_param
                0x00005ab8       0xd0 build/py/compile.o
 .text.compile_comprehension
                0x00005b88       0x8c build/py/compile.o
 .text.compile_atom_bracket
                0x00005c14       0xb4 build/py/compile.o
 .text.compile_atom_paren
                0x00005cc8       0x88 build/py/compile.o
 .text.compile_trailer_paren_helper
                0x00005d50      0x194 build/py/compile.o
 .text.compile_classdef_helper
                0x00005ee4       0x5a build/py/compile.o
 .text.compile_classdef
                0x00005f3e       0x18 build/py/compile.o
 .text.compile_trailer_paren
                0x00005f56        0xa build/py/compile.o
 .text.compile_power_trailers
                0x00005f60       0x78 build/py/compile.o
 .text.compile_atom_brace
                0x00005fd8      0x188 build/py/compile.o
 .text.compile_for_stmt
                0x00006160      0x29c build/py/compile.o
 .text.compile_if_stmt
                0x000063fc      0x110 build/py/compile.o
 .text.compile_decorated
                0x0000650c      0x154 build/py/compile.o
 .text.compile_scope
                0x00006660      0x390 build/py/compile.o
 .text.compile_subscript_2
                0x000069f0       0x38 build/py/compile.o
 .text.compile_factor_2
                0x00006a28       0x68 build/py/compile.o
 .text.compile_arith_expr
                0x00006a90       0x6c build/py/compile.o
 .text.compile_shift_expr
                0x00006afc       0x6c build/py/compile.o
 .text.compile_yield_expr
                0x00006b68       0x6c build/py/compile.o
 .text.compile_return_stmt
                0x00006bd4       0x7c build/py/compile.o
 .text.compile_continue_stmt
                0x00006c50       0x44 build/py/compile.o
 .text.compile_break_stmt
                0x00006c94       0x44 build/py/compile.o
 .text.compile_with_stmt
                0x00006cd8       0x40 build/py/compile.o
 .text.compile_scope_func_annotations
                0x00006d18       0x8c build/py/compile.o
 .text.compile_bytes
                0x00006da4       0x2c build/py/compile.o
 .text.compile_string
                0x00006dd0       0x30 build/py/compile.o
 .text.compile_nonlocal_stmt
                0x00006e00       0x98 build/py/compile.o
 .text.compile_global_stmt
                0x00006e98       0x6c build/py/compile.o
 .text.mp_compile
                0x00006f04      0x354 build/py/compile.o
                0x00006f04                mp_compile
 .text.emit_common_load_id
                0x00007258       0x6c build/py/emitcommon.o
                0x00007258                emit_common_load_id
 .text.emit_common_store_id
                0x000072c4       0x6c build/py/emitcommon.o
                0x000072c4                emit_common_store_id
 .text.emit_common_delete_id
                0x00007330       0x74 build/py/emitcommon.o
                0x00007330                emit_common_delete_id
 .text.emit_pass1_dummy
                0x000073a4        0x2 build/py/emitpass1.o
 .text.emit_pass1_end_pass
                0x000073a6        0x2 build/py/emitpass1.o
 .text.emit_pass1_last_emit_was_return_value
                0x000073a8        0x4 build/py/emitpass1.o
 .text.emit_pass1_load_id
                0x000073ac       0x40 build/py/emitpass1.o
 .text.get_id_for_modification
                0x000073ec       0x4c build/py/emitpass1.o
 .text.emit_pass1_delete_id
                0x00007438        0x6 build/py/emitpass1.o
 .text.emit_pass1_store_id
                0x0000743e        0x6 build/py/emitpass1.o
 .text.emit_pass1_start_pass
                0x00007444       0x24 build/py/emitpass1.o
 .text.emit_pass1_new
                0x00007468        0x6 build/py/emitpass1.o
                0x00007468                emit_pass1_new
 .text.emit_pass1_free
                0x0000746e        0x6 build/py/emitpass1.o
                0x0000746e                emit_pass1_free
 .text.emit_write_uint
                0x00007474       0x42 build/py/emitbc.o
 .text.emit_bc_set_native_type
                0x000074b6        0x2 build/py/emitbc.o
 .text.emit_bc_last_emit_was_return_value
                0x000074b8        0xa build/py/emitbc.o
 .text.emit_bc_adjust_stack_size
                0x000074c2        0x8 build/py/emitbc.o
 .text.emit_bc_start_except_handler
                0x000074ca        0x8 build/py/emitbc.o
 .text.emit_bc_end_except_handler
                0x000074d2        0x8 build/py/emitbc.o
 *fill*         0x000074da        0x2 ff
 .text.emit_bc_delete_id
                0x000074dc       0x10 build/py/emitbc.o
 .text.emit_bc_store_id
                0x000074ec       0x10 build/py/emitbc.o
 .text.emit_bc_load_id
                0x000074fc       0x10 build/py/emitbc.o
 .text.emit_bc_pre
                0x0000750c       0x38 build/py/emitbc.o
 .text.emit_bc_for_iter_end
                0x00007544        0x8 build/py/emitbc.o
 .text.emit_get_cur_to_write_bytecode
                0x0000754c       0x3c build/py/emitbc.o
 .text.emit_write_bytecode_byte
                0x00007588        0xe build/py/emitbc.o
 .text.emit_bc_yield_from
                0x00007596       0x22 build/py/emitbc.o
 .text.emit_bc_yield_value
                0x000075b8       0x20 build/py/emitbc.o
 .text.emit_bc_return_value
                0x000075d8       0x1c build/py/emitbc.o
 .text.emit_write_bytecode_byte_uint
                0x000075f4       0x1c build/py/emitbc.o
 .text.emit_bc_unpack_ex
                0x00007610       0x1e build/py/emitbc.o
 .text.emit_bc_unpack_sequence
                0x0000762e       0x1a build/py/emitbc.o
 .text.emit_bc_build_slice
                0x00007648       0x1c build/py/emitbc.o
 .text.emit_bc_set_add
                0x00007664       0x1c build/py/emitbc.o
 .text.emit_bc_build_set
                0x00007680       0x1c build/py/emitbc.o
 .text.emit_bc_map_add
                0x0000769c       0x1c build/py/emitbc.o
 .text.emit_bc_build_map
                0x000076b8       0x1a build/py/emitbc.o
 .text.emit_bc_list_append
                0x000076d2       0x1c build/py/emitbc.o
 .text.emit_bc_build_list
                0x000076ee       0x1c build/py/emitbc.o
 .text.emit_bc_build_tuple
                0x0000770a       0x1c build/py/emitbc.o
 .text.emit_bc_delete_global
                0x00007726       0x1a build/py/emitbc.o
 .text.emit_bc_delete_name
                0x00007740       0x1a build/py/emitbc.o
 .text.emit_bc_store_attr
                0x0000775a       0x1c build/py/emitbc.o
 .text.emit_bc_store_global
                0x00007776       0x1c build/py/emitbc.o
 .text.emit_bc_store_name
                0x00007792       0x1c build/py/emitbc.o
 .text.emit_bc_load_method
                0x000077ae       0x1a build/py/emitbc.o
 .text.emit_bc_load_attr
                0x000077c8       0x1a build/py/emitbc.o
 .text.emit_bc_load_global
                0x000077e2       0x1a build/py/emitbc.o
 .text.emit_bc_load_name
                0x000077fc       0x1a build/py/emitbc.o
 .text.emit_bc_load_const_str
                0x00007816       0x22 build/py/emitbc.o
 .text.emit_bc_import_from
                0x00007838       0x1a build/py/emitbc.o
 .text.emit_bc_import_name
                0x00007852       0x1c build/py/emitbc.o
 .text.emit_bc_delete_deref
                0x0000786e        0x6 build/py/emitbc.o
 .text.emit_bc_delete_fast
                0x00007874        0x6 build/py/emitbc.o
 .text.emit_bc_store_deref
                0x0000787a       0x1c build/py/emitbc.o
 .text.emit_bc_load_deref
                0x00007896       0x1a build/py/emitbc.o
 .text.emit_bc_store_map
                0x000078b0       0x18 build/py/emitbc.o
 .text.emit_bc_pop_except
                0x000078c8       0x16 build/py/emitbc.o
 .text.emit_bc_pop_block
                0x000078de       0x16 build/py/emitbc.o
 .text.emit_bc_get_iter
                0x000078f4       0x16 build/py/emitbc.o
 .text.emit_bc_end_finally
                0x0000790a       0x18 build/py/emitbc.o
 .text.emit_bc_with_cleanup
                0x00007922       0x18 build/py/emitbc.o
 .text.emit_bc_rot_three
                0x0000793a       0x16 build/py/emitbc.o
 .text.emit_bc_rot_two
                0x00007950       0x16 build/py/emitbc.o
 .text.emit_bc_pop_top
                0x00007966       0x18 build/py/emitbc.o
 .text.emit_bc_dup_top_two
                0x0000797e       0x16 build/py/emitbc.o
 .text.emit_bc_dup_top
                0x00007994       0x16 build/py/emitbc.o
 .text.emit_bc_store_subscr
                0x000079aa       0x18 build/py/emitbc.o
 .text.emit_bc_store_fast
                0x000079c2       0x30 build/py/emitbc.o
 .text.emit_bc_load_subscr
                0x000079f2       0x18 build/py/emitbc.o
 .text.emit_bc_load_build_class
                0x00007a0a       0x16 build/py/emitbc.o
 .text.emit_bc_load_fast
                0x00007a20       0x2e build/py/emitbc.o
 .text.emit_bc_load_null
                0x00007a4e       0x16 build/py/emitbc.o
 .text.emit_bc_delete_subscr
                0x00007a64       0x18 build/py/emitbc.o
 .text.emit_bc_delete_attr
                0x00007a7c       0x1c build/py/emitbc.o
 .text.emit_bc_import_star
                0x00007a98       0x18 build/py/emitbc.o
 .text.emit_write_bytecode_byte_unsigned_label
                0x00007ab0       0x2e build/py/emitbc.o
 .text.emit_bc_for_iter
                0x00007ade       0x1a build/py/emitbc.o
 .text.emit_bc_setup_finally
                0x00007af8       0x1a build/py/emitbc.o
 .text.emit_bc_setup_except
                0x00007b12       0x1a build/py/emitbc.o
 .text.emit_bc_setup_with
                0x00007b2c       0x1a build/py/emitbc.o
 .text.emit_write_bytecode_byte_signed_label
                0x00007b46       0x2e build/py/emitbc.o
 .text.emit_bc_jump_if_or_pop
                0x00007b74       0x24 build/py/emitbc.o
 .text.emit_bc_pop_jump_if
                0x00007b98       0x24 build/py/emitbc.o
 .text.emit_bc_jump
                0x00007bbc       0x1a build/py/emitbc.o
 .text.emit_bc_binary_op
                0x00007bd6       0x4a build/py/emitbc.o
 .text.emit_bc_unary_op
                0x00007c20       0x3c build/py/emitbc.o
 .text.emit_bc_call_function_method_helper
                0x00007c5c       0x5e build/py/emitbc.o
 .text.emit_bc_call_method
                0x00007cba       0x18 build/py/emitbc.o
 .text.emit_bc_call_function
                0x00007cd2       0x16 build/py/emitbc.o
 .text.emit_bc_unwind_jump
                0x00007ce8       0x4e build/py/emitbc.o
 *fill*         0x00007d36        0x2 ff
 .text.emit_write_bytecode_byte_ptr
                0x00007d38       0x44 build/py/emitbc.o
 .text.emit_bc_load_const_obj
                0x00007d7c       0x1a build/py/emitbc.o
 *fill*         0x00007d96        0x2 ff
 .text.emit_bc_make_closure
                0x00007d98       0x58 build/py/emitbc.o
 .text.emit_bc_make_function
                0x00007df0       0x2e build/py/emitbc.o
 *fill*         0x00007e1e        0x2 ff
 .text.emit_bc_load_const_tok
                0x00007e20       0x54 build/py/emitbc.o
 .text.emit_bc_label_assign
                0x00007e74       0x6c build/py/emitbc.o
 .text.emit_get_cur_to_write_code_info
                0x00007ee0       0x38 build/py/emitbc.o
 .text.emit_bc_set_source_line
                0x00007f18       0xb0 build/py/emitbc.o
 .text.emit_bc_load_const_small_int
                0x00007fc8       0x8e build/py/emitbc.o
 *fill*         0x00008056        0x2 ff
 .text.emit_bc_raise_varargs
                0x00008058       0x3c build/py/emitbc.o
 .text.emit_bc_end_pass
                0x00008094       0x70 build/py/emitbc.o
 .text.emit_bc_start_pass
                0x00008104      0x128 build/py/emitbc.o
 .text.emit_bc_new
                0x0000822c       0x1a build/py/emitbc.o
                0x0000822c                emit_bc_new
 .text.emit_bc_free
                0x00008246       0x1a build/py/emitbc.o
                0x00008246                emit_bc_free
 .text.asm_thumb_get_cur_to_write_bytes
                0x00008260       0x38 build/py/asmthumb.o
 .text.get_label_dest
                0x00008298       0x28 build/py/asmthumb.o
 .text.asm_thumb_new
                0x000082c0       0x1a build/py/asmthumb.o
                0x000082c0                asm_thumb_new
 .text.asm_thumb_free
                0x000082da       0x24 build/py/asmthumb.o
                0x000082da                asm_thumb_free
 *fill*         0x000082fe        0x2 ff
 .text.asm_thumb_start_pass
                0x00008300       0x4c build/py/asmthumb.o
                0x00008300                asm_thumb_start_pass
 .text.asm_thumb_end_pass
                0x0000834c        0x2 build/py/asmthumb.o
                0x0000834c                asm_thumb_end_pass
 .text.asm_thumb_get_code_size
                0x0000834e        0x4 build/py/asmthumb.o
                0x0000834e                asm_thumb_get_code_size
 .text.asm_thumb_get_code
                0x00008352        0x4 build/py/asmthumb.o
                0x00008352                asm_thumb_get_code
 *fill*         0x00008356        0x2 ff
 .text.asm_thumb_label_assign
                0x00008358       0x5c build/py/asmthumb.o
                0x00008358                asm_thumb_label_assign
 .text.asm_thumb_align
                0x000083b4        0xe build/py/asmthumb.o
                0x000083b4                asm_thumb_align
 .text.asm_thumb_data
                0x000083c2       0x22 build/py/asmthumb.o
                0x000083c2                asm_thumb_data
 .text.asm_thumb_op16
                0x000083e4       0x12 build/py/asmthumb.o
                0x000083e4                asm_thumb_op16
 .text.asm_thumb_entry
                0x000083f6       0x46 build/py/asmthumb.o
                0x000083f6                asm_thumb_entry
 .text.asm_thumb_exit
                0x0000843c       0x20 build/py/asmthumb.o
                0x0000843c                asm_thumb_exit
 .text.asm_thumb_op32
                0x0000845c       0x1a build/py/asmthumb.o
                0x0000845c                asm_thumb_op32
 *fill*         0x00008476        0x2 ff
 .text.asm_thumb_format_4
                0x00008478       0x44 build/py/asmthumb.o
                0x00008478                asm_thumb_format_4
 .text.asm_thumb_mov_reg_reg
                0x000084bc       0x22 build/py/asmthumb.o
                0x000084bc                asm_thumb_mov_reg_reg
 *fill*         0x000084de        0x2 ff
 .text.asm_thumb_mov_reg_i16
                0x000084e0       0x44 build/py/asmthumb.o
                0x000084e0                asm_thumb_mov_reg_i16
 .text.asm_thumb_b_n_label
                0x00008524       0x34 build/py/asmthumb.o
                0x00008524                asm_thumb_b_n_label
 .text.asm_thumb_bcc_n_label
                0x00008558       0x38 build/py/asmthumb.o
                0x00008558                asm_thumb_bcc_n_label
 .text.asm_thumb_bl_label
                0x00008590       0x38 build/py/asmthumb.o
                0x00008590                asm_thumb_bl_label
 .text.asm_thumb_mov_reg_i32
                0x000085c8       0x26 build/py/asmthumb.o
                0x000085c8                asm_thumb_mov_reg_i32
 .text.asm_thumb_mov_reg_i32_optimised
                0x000085ee       0x44 build/py/asmthumb.o
                0x000085ee                asm_thumb_mov_reg_i32_optimised
 .text.asm_thumb_mov_reg_i32_aligned
                0x00008632       0x38 build/py/asmthumb.o
                0x00008632                asm_thumb_mov_reg_i32_aligned
 *fill*         0x0000866a        0x2 ff
 .text.asm_thumb_mov_local_reg
                0x0000866c       0x4c build/py/asmthumb.o
                0x0000866c                asm_thumb_mov_local_reg
 .text.asm_thumb_mov_reg_local
                0x000086b8       0x4c build/py/asmthumb.o
                0x000086b8                asm_thumb_mov_reg_local
 .text.asm_thumb_mov_reg_local_addr
                0x00008704       0x4c build/py/asmthumb.o
                0x00008704                asm_thumb_mov_reg_local_addr
 .text.asm_thumb_b_label
                0x00008750       0x54 build/py/asmthumb.o
                0x00008750                asm_thumb_b_label
 .text.asm_thumb_bcc_label
                0x000087a4       0x68 build/py/asmthumb.o
                0x000087a4                asm_thumb_bcc_label
 .text.asm_thumb_bl_ind
                0x0000880c       0x3a build/py/asmthumb.o
                0x0000880c                asm_thumb_bl_ind
 .text.emit_native_last_emit_was_return_value
                0x00008846        0x6 build/py/emitnthumb.o
 .text.emit_native_set_source_line
                0x0000884c        0x2 build/py/emitnthumb.o
 .text.emit_native_delete_fast
                0x0000884e        0x2 build/py/emitnthumb.o
 .text.emit_native_delete_deref
                0x00008850        0x2 build/py/emitnthumb.o
 .text.emit_native_pop_except
                0x00008852        0x2 build/py/emitnthumb.o
 .text.emit_native_yield_from
                0x00008854       0x1c build/py/emitnthumb.o
 .text.emit_native_yield_value
                0x00008870       0x1c build/py/emitnthumb.o
 .text.emit_native_make_closure
                0x0000888c       0x1c build/py/emitnthumb.o
 .text.emit_native_with_cleanup
                0x000088a8       0x1c build/py/emitnthumb.o
 .text.emit_native_setup_with
                0x000088c4       0x1c build/py/emitnthumb.o
 .text.emit_native_store_deref
                0x000088e0       0x1c build/py/emitnthumb.o
 .text.emit_native_load_deref
                0x000088fc       0x1c build/py/emitnthumb.o
 .text.need_reg_single
                0x00008918       0x3e build/py/emitnthumb.o
 .text.emit_access_stack
                0x00008956       0x6c build/py/emitnthumb.o
 .text.need_reg_all
                0x000089c2       0x2e build/py/emitnthumb.o
 .text.need_stack_settled
                0x000089f0       0x60 build/py/emitnthumb.o
 .text.emit_call
                0x00008a50       0x24 build/py/emitnthumb.o
 .text.emit_call_with_imm_arg
                0x00008a74       0x34 build/py/emitnthumb.o
 .text.emit_native_delete_global
                0x00008aa8       0x14 build/py/emitnthumb.o
 .text.emit_native_delete_name
                0x00008abc       0x14 build/py/emitnthumb.o
 .text.emit_native_jump
                0x00008ad0       0x1c build/py/emitnthumb.o
 .text.emit_native_continue_loop
                0x00008aec        0x4 build/py/emitnthumb.o
 .text.emit_native_break_loop
                0x00008af0        0x8 build/py/emitnthumb.o
 .text.emit_native_label_assign
                0x00008af8       0x1c build/py/emitnthumb.o
 .text.emit_native_delete_id
                0x00008b14       0x10 build/py/emitnthumb.o
 .text.emit_native_store_id
                0x00008b24       0x10 build/py/emitnthumb.o
 .text.emit_native_load_id
                0x00008b34       0x10 build/py/emitnthumb.o
 .text.emit_native_start_pass
                0x00008b44      0x114 build/py/emitnthumb.o
 .text.adjust_stack
                0x00008c58       0x38 build/py/emitnthumb.o
 .text.emit_native_end_except_handler
                0x00008c90        0x8 build/py/emitnthumb.o
 .text.emit_pre_pop_discard
                0x00008c98        0xe build/py/emitnthumb.o
 .text.emit_native_pop_top
                0x00008ca6        0x4 build/py/emitnthumb.o
 .text.emit_post_push_reg
                0x00008caa       0x1c build/py/emitnthumb.o
 .text.emit_native_load_build_class
                0x00008cc6       0x1e build/py/emitnthumb.o
 .text.emit_native_build_map
                0x00008ce4       0x22 build/py/emitnthumb.o
 .text.emit_native_load_name
                0x00008d06       0x22 build/py/emitnthumb.o
 .text.emit_native_load_const_str
                0x00008d28       0x2e build/py/emitnthumb.o
 .text.emit_native_load_const_obj
                0x00008d56       0x2c build/py/emitnthumb.o
 *fill*         0x00008d82        0x2 ff
 .text.emit_native_load_fast
                0x00008d84       0x64 build/py/emitnthumb.o
 .text.emit_native_for_iter_end
                0x00008de8        0xe build/py/emitnthumb.o
 .text.emit_post_push_imm
                0x00008df6       0x1e build/py/emitnthumb.o
 .text.emit_native_load_null
                0x00008e14        0xc build/py/emitnthumb.o
 .text.emit_native_load_global
                0x00008e20       0x60 build/py/emitnthumb.o
 .text.emit_native_adjust_stack_size
                0x00008e80       0x2c build/py/emitnthumb.o
 .text.emit_pre_pop_reg
                0x00008eac       0x24 build/py/emitnthumb.o
 .text.emit_pre_pop_reg_reg
                0x00008ed0       0x1a build/py/emitnthumb.o
 .text.emit_pre_pop_reg_reg_reg
                0x00008eea       0x2a build/py/emitnthumb.o
 .text.emit_native_build_slice
                0x00008f14       0xe4 build/py/emitnthumb.o
 .text.emit_native_end_finally
                0x00008ff8       0x1a build/py/emitnthumb.o
 *fill*         0x00009012        0x2 ff
 .text.emit_native_store_fast
                0x00009014       0x68 build/py/emitnthumb.o
 .text.emit_native_pop_block
                0x0000907c       0x1e build/py/emitnthumb.o
 *fill*         0x0000909a        0x2 ff
 .text.emit_get_stack_pointer_to_reg_for_pop
                0x0000909c      0x148 build/py/emitnthumb.o
 .text.emit_native_build_set
                0x000091e4       0x2e build/py/emitnthumb.o
 .text.emit_native_build_list
                0x00009212       0x2e build/py/emitnthumb.o
 .text.emit_native_build_tuple
                0x00009240       0x2e build/py/emitnthumb.o
 .text.emit_get_stack_pointer_to_reg_for_push
                0x0000926e       0x42 build/py/emitnthumb.o
 .text.emit_native_load_const_small_int
                0x000092b0       0x1a build/py/emitnthumb.o
 *fill*         0x000092ca        0x2 ff
 .text.emit_native_load_const_tok
                0x000092cc       0x80 build/py/emitnthumb.o
 .text.emit_native_raise_varargs
                0x0000934c       0x48 build/py/emitnthumb.o
 .text.emit_native_set_add
                0x00009394       0x60 build/py/emitnthumb.o
 .text.emit_native_map_add
                0x000093f4       0x80 build/py/emitnthumb.o
 .text.emit_native_store_map
                0x00009474       0x84 build/py/emitnthumb.o
 .text.emit_native_list_append
                0x000094f8       0x60 build/py/emitnthumb.o
 .text.emit_native_get_iter
                0x00009558       0x44 build/py/emitnthumb.o
 .text.emit_native_import_star
                0x0000959c       0x3c build/py/emitnthumb.o
 .text.emit_native_unary_op
                0x000095d8       0x64 build/py/emitnthumb.o
 .text.emit_native_delete_subscr
                0x0000963c       0x5c build/py/emitnthumb.o
 .text.emit_native_store_attr
                0x00009698       0x60 build/py/emitnthumb.o
 .text.emit_native_store_name
                0x000096f8       0x40 build/py/emitnthumb.o
 .text.emit_native_load_attr
                0x00009738       0x4c build/py/emitnthumb.o
 .text.emit_native_import_from
                0x00009784       0x50 build/py/emitnthumb.o
 .text.emit_native_import_name
                0x000097d4       0x68 build/py/emitnthumb.o
 .text.emit_native_call_method
                0x0000983c       0x70 build/py/emitnthumb.o
 .text.emit_native_unpack_ex
                0x000098ac       0x50 build/py/emitnthumb.o
 .text.emit_native_unpack_sequence
                0x000098fc       0x4c build/py/emitnthumb.o
 .text.emit_native_load_method
                0x00009948       0x4c build/py/emitnthumb.o
 .text.unlikely.asm_thumb_format_2.part.24
                0x00009994       0x1c build/py/emitnthumb.o
 .text.emit_native_set_native_type
                0x000099b0       0x8c build/py/emitnthumb.o
 .text.emit_native_end_pass
                0x00009a3c       0x7c build/py/emitnthumb.o
 .text.emit_native_make_function
                0x00009ab8       0xb8 build/py/emitnthumb.o
 .text.emit_native_dup_top_two
                0x00009b70       0x4c build/py/emitnthumb.o
 .text.emit_native_start_except_handler
                0x00009bbc       0x3e build/py/emitnthumb.o
 .text.emit_native_setup_except
                0x00009bfa       0x3a build/py/emitnthumb.o
 .text.emit_native_setup_finally
                0x00009c34        0x4 build/py/emitnthumb.o
 .text.peek_vtype
                0x00009c38       0x12 build/py/emitnthumb.o
 .text.emit_native_store_global
                0x00009c4a       0x4e build/py/emitnthumb.o
 .text.emit_native_return_value
                0x00009c98       0x88 build/py/emitnthumb.o
 .text.emit_native_call_function
                0x00009d20      0x150 build/py/emitnthumb.o
 .text.emit_native_jump_helper
                0x00009e70       0x84 build/py/emitnthumb.o
 .text.emit_native_jump_if_or_pop
                0x00009ef4       0x3c build/py/emitnthumb.o
 .text.emit_native_pop_jump_if
                0x00009f30       0x32 build/py/emitnthumb.o
 *fill*         0x00009f62        0x2 ff
 .text.asm_thumb_add_rlo_rlo_rlo
                0x00009f64       0x3c build/py/emitnthumb.o
 .text.emit_pre_pop_reg_flexible
                0x00009fa0       0x60 build/py/emitnthumb.o
 .text.emit_native_dup_top
                0x0000a000       0x36 build/py/emitnthumb.o
 *fill*         0x0000a036        0x2 ff
 .text.emit_native_binary_op
                0x0000a038      0x1bc build/py/emitnthumb.o
 .text.emit_native_for_iter
                0x0000a1f4       0x70 build/py/emitnthumb.o
 .text.emit_native_rot_two
                0x0000a264       0x34 build/py/emitnthumb.o
 .text.emit_native_load_subscr
                0x0000a298      0x1b8 build/py/emitnthumb.o
 .text.emit_native_store_subscr
                0x0000a450      0x1f4 build/py/emitnthumb.o
 .text.emit_native_rot_three
                0x0000a644       0x52 build/py/emitnthumb.o
 *fill*         0x0000a696        0x2 ff
 .text.emit_native_delete_attr
                0x0000a698       0x60 build/py/emitnthumb.o
 .text.emit_native_thumb_new
                0x0000a6f8       0x18 build/py/emitnthumb.o
                0x0000a6f8                emit_native_thumb_new
 .text.emit_native_thumb_free
                0x0000a710       0x2a build/py/emitnthumb.o
                0x0000a710                emit_native_thumb_free
 *fill*         0x0000a73a        0x2 ff
 .text.get_arg_addr
                0x0000a73c       0x50 build/py/emitinlinethumb.o
 .text.emit_inline_thumb_data
                0x0000a78c        0x6 build/py/emitinlinethumb.o
 .text.emit_inline_thumb_align
                0x0000a792        0x6 build/py/emitinlinethumb.o
 .text.emit_inline_thumb_start_pass
                0x0000a798       0x24 build/py/emitinlinethumb.o
 .text.get_arg_label
                0x0000a7bc       0x60 build/py/emitinlinethumb.o
 .text.get_arg_i
                0x0000a81c       0x4c build/py/emitinlinethumb.o
 .text.emit_inline_thumb_label
                0x0000a868       0x30 build/py/emitinlinethumb.o
 .text.emit_inline_thumb_end_pass
                0x0000a898       0x42 build/py/emitinlinethumb.o
 *fill*         0x0000a8da        0x2 ff
 .text.get_arg_reg
                0x0000a8dc       0x90 build/py/emitinlinethumb.o
 .text.get_arg_reglist
                0x0000a96c       0xdc build/py/emitinlinethumb.o
 .text.emit_inline_thumb_count_params
                0x0000aa48       0x70 build/py/emitinlinethumb.o
 .text.emit_inline_thumb_op
                0x0000aab8      0x74c build/py/emitinlinethumb.o
 .text.emit_inline_thumb_new
                0x0000b204       0x2c build/py/emitinlinethumb.o
                0x0000b204                emit_inline_thumb_new
 .text.emit_inline_thumb_free
                0x0000b230       0x22 build/py/emitinlinethumb.o
                0x0000b230                emit_inline_thumb_free
 *fill*         0x0000b252        0x2 ff
 .text.mp_format_float
                0x0000b254      0x400 build/py/formatfloat.o
                0x0000b254                mp_format_float
 .text.mp_parse_num_base
                0x0000b654       0x70 build/py/parsenumbase.o
                0x0000b654                mp_parse_num_base
 .text.raise    0x0000b6c4       0x20 build/py/parsenum.o
 .text.mp_parse_num_integer
                0x0000b6e4      0x118 build/py/parsenum.o
                0x0000b6e4                mp_parse_num_integer
 .text.mp_parse_num_decimal
                0x0000b7fc      0x294 build/py/parsenum.o
                0x0000b7fc                mp_parse_num_decimal
 .text.mp_emit_glue_new_raw_code
                0x0000ba90       0x14 build/py/emitglue.o
                0x0000ba90                mp_emit_glue_new_raw_code
 .text.mp_emit_glue_assign_bytecode
                0x0000baa4       0x2e build/py/emitglue.o
                0x0000baa4                mp_emit_glue_assign_bytecode
 *fill*         0x0000bad2        0x2 ff
 .text.mp_emit_glue_assign_native
                0x0000bad4       0x44 build/py/emitglue.o
                0x0000bad4                mp_emit_glue_assign_native
 .text.mp_make_function_from_raw_code
                0x0000bb18       0xe0 build/py/emitglue.o
                0x0000bb18                mp_make_function_from_raw_code
 .text.mp_make_closure_from_raw_code
                0x0000bbf8       0x26 build/py/emitglue.o
                0x0000bbf8                mp_make_closure_from_raw_code
 *fill*         0x0000bc1e        0x2 ff
 .text.mp_init  0x0000bc20       0x3c build/py/runtime.o
                0x0000bc20                mp_init
 .text.mp_load_const_str
                0x0000bc5c        0x8 build/py/runtime.o
                0x0000bc5c                mp_load_const_str
 .text.mp_load_const_bytes
                0x0000bc64       0x14 build/py/runtime.o
                0x0000bc64                mp_load_const_bytes
 .text.mp_load_global
                0x0000bc78       0x50 build/py/runtime.o
                0x0000bc78                mp_load_global
 .text.mp_load_name
                0x0000bcc8       0x30 build/py/runtime.o
                0x0000bcc8                mp_load_name
 .text.mp_load_build_class
                0x0000bcf8        0x8 build/py/runtime.o
                0x0000bcf8                mp_load_build_class
 .text.mp_store_name
                0x0000bd00       0x14 build/py/runtime.o
                0x0000bd00                mp_store_name
 .text.mp_delete_name
                0x0000bd14       0x14 build/py/runtime.o
                0x0000bd14                mp_delete_name
 .text.mp_store_global
                0x0000bd28       0x14 build/py/runtime.o
                0x0000bd28                mp_store_global
 .text.mp_delete_global
                0x0000bd3c       0x14 build/py/runtime.o
                0x0000bd3c                mp_delete_global
 .text.mp_unary_op
                0x0000bd50       0xb0 build/py/runtime.o
                0x0000bd50                mp_unary_op
 .text.mp_call_function_n_kw
                0x0000be00       0x3c build/py/runtime.o
                0x0000be00                mp_call_function_n_kw
 .text.mp_call_function_0
                0x0000be3c        0xa build/py/runtime.o
                0x0000be3c                mp_call_function_0
 .text.mp_call_function_1
                0x0000be46       0x16 build/py/runtime.o
                0x0000be46                mp_call_function_1
 .text.mp_call_method_n_kw
                0x0000be5c       0x20 build/py/runtime.o
                0x0000be5c                mp_call_method_n_kw
 .text.mp_load_method_maybe
                0x0000be7c       0xcc build/py/runtime.o
                0x0000be7c                mp_load_method_maybe
 .text.mp_load_method
                0x0000bf48       0x64 build/py/runtime.o
                0x0000bf48                mp_load_method
 .text.mp_load_attr
                0x0000bfac       0x18 build/py/runtime.o
                0x0000bfac                mp_load_attr
 .text.mp_store_attr
                0x0000bfc4       0x44 build/py/runtime.o
                0x0000bfc4                mp_store_attr
 .text.mp_getiter
                0x0000c008       0x68 build/py/runtime.o
                0x0000c008                mp_getiter
 .text.mp_iternext_allow_raise
                0x0000c070       0x4c build/py/runtime.o
                0x0000c070                mp_iternext_allow_raise
 .text.mp_iternext
                0x0000c0bc       0x74 build/py/runtime.o
                0x0000c0bc                mp_iternext
 .text.mp_binary_op
                0x0000c130      0x334 build/py/runtime.o
                0x0000c130                mp_binary_op
 .text.mp_call_method_n_kw_var
                0x0000c464      0x274 build/py/runtime.o
                0x0000c464                mp_call_method_n_kw_var
 .text.mp_unpack_sequence
                0x0000c6d8       0xb4 build/py/runtime.o
                0x0000c6d8                mp_unpack_sequence
 .text.mp_unpack_ex
                0x0000c78c      0x134 build/py/runtime.o
                0x0000c78c                mp_unpack_ex
 .text.mp_resume
                0x0000c8c0      0x114 build/py/runtime.o
                0x0000c8c0                mp_resume
 .text.mp_make_raise_obj
                0x0000c9d4       0x3c build/py/runtime.o
                0x0000c9d4                mp_make_raise_obj
 .text.mp_import_name
                0x0000ca10       0x28 build/py/runtime.o
                0x0000ca10                mp_import_name
 .text.mp_import_from
                0x0000ca38       0xe0 build/py/runtime.o
                0x0000ca38                mp_import_from
 .text.mp_import_all
                0x0000cb18       0x4e build/py/runtime.o
                0x0000cb18                mp_import_all
 *fill*         0x0000cb66        0x2 ff
 .text.mp_parse_compile_execute
                0x0000cb68       0x64 build/py/runtime.o
                0x0000cb68                mp_parse_compile_execute
 .text.m_malloc_fail
                0x0000cbcc       0x30 build/py/runtime.o
                0x0000cbcc                m_malloc_fail
 .text.mp_native_call_function_n_kw
                0x0000cbfc       0x14 build/py/nativeglue.o
                0x0000cbfc                mp_native_call_function_n_kw
 .text.mp_convert_obj_to_native
                0x0000cc10       0x2c build/py/nativeglue.o
                0x0000cc10                mp_convert_obj_to_native
 .text.mp_convert_native_to_obj
                0x0000cc3c       0x30 build/py/nativeglue.o
                0x0000cc3c                mp_convert_native_to_obj
 .text.mp_native_raise
                0x0000cc6c       0x18 build/py/nativeglue.o
                0x0000cc6c                mp_native_raise
 .text.mp_stack_ctrl_init
                0x0000cc84       0x14 build/py/stackctrl.o
                0x0000cc84                mp_stack_ctrl_init
 .text.mp_stack_set_limit
                0x0000cc98        0xc build/py/stackctrl.o
                0x0000cc98                mp_stack_set_limit
 .text.mp_stack_check
                0x0000cca4       0x30 build/py/stackctrl.o
                0x0000cca4                mp_stack_check
 .text.mp_arg_check_num
                0x0000ccd4       0x60 build/py/argcheck.o
                0x0000ccd4                mp_arg_check_num
 .text.mp_arg_parse_all
                0x0000cd34       0xf4 build/py/argcheck.o
                0x0000cd34                mp_arg_parse_all
 .text.mp_arg_parse_all_kw_array
                0x0000ce28       0x2c build/py/argcheck.o
                0x0000ce28                mp_arg_parse_all_kw_array
 .text.mp_arg_error_unimpl_kw
                0x0000ce54       0x18 build/py/argcheck.o
                0x0000ce54                mp_arg_error_unimpl_kw
 .text.mp_map_init
                0x0000ce6c       0x2a build/py/map.o
                0x0000ce6c                mp_map_init
 .text.mp_map_init_fixed_table
                0x0000ce96       0x16 build/py/map.o
                0x0000ce96                mp_map_init_fixed_table
 .text.mp_map_deinit
                0x0000ceac       0x22 build/py/map.o
                0x0000ceac                mp_map_deinit
 .text.mp_map_clear
                0x0000cece       0x30 build/py/map.o
                0x0000cece                mp_map_clear
 *fill*         0x0000cefe        0x2 ff
 .text.mp_map_lookup
                0x0000cf00      0x17c build/py/map.o
                0x0000cf00                mp_map_lookup
 .text.mp_map_rehash
                0x0000d07c       0x74 build/py/map.o
 .text.mp_set_init
                0x0000d0f0       0x14 build/py/map.o
                0x0000d0f0                mp_set_init
 .text.mp_set_lookup
                0x0000d104       0xe0 build/py/map.o
                0x0000d104                mp_set_lookup
 .text.mp_set_rehash
                0x0000d1e4       0x5c build/py/map.o
 .text.mp_set_remove_first
                0x0000d240       0x4c build/py/map.o
                0x0000d240                mp_set_remove_first
 .text.mp_set_clear
                0x0000d28c       0x18 build/py/map.o
                0x0000d28c                mp_set_clear
 .text.mp_identity
                0x0000d2a4        0x2 build/py/obj.o
                0x0000d2a4                mp_identity
 *fill*         0x0000d2a6        0x2 ff
 .text.mp_obj_get_type
                0x0000d2a8       0x20 build/py/obj.o
                0x0000d2a8                mp_obj_get_type
 .text.mp_obj_get_type_str
                0x0000d2c8       0x10 build/py/obj.o
                0x0000d2c8                mp_obj_get_type_str
 .text.mp_obj_print_helper
                0x0000d2d8       0x50 build/py/obj.o
                0x0000d2d8                mp_obj_print_helper
 .text.mp_obj_print
                0x0000d328       0x10 build/py/obj.o
                0x0000d328                mp_obj_print
 .text.mp_obj_print_exception
                0x0000d338       0xc8 build/py/obj.o
                0x0000d338                mp_obj_print_exception
 .text.mp_obj_is_callable
                0x0000d400       0x28 build/py/obj.o
                0x0000d400                mp_obj_is_callable
 .text.mp_obj_hash
                0x0000d428       0xdc build/py/obj.o
                0x0000d428                mp_obj_hash
 .text.mp_obj_equal
                0x0000d504       0x98 build/py/obj.o
                0x0000d504                mp_obj_equal
 .text.mp_obj_get_int
                0x0000d59c       0x5c build/py/obj.o
                0x0000d59c                mp_obj_get_int
 .text.mp_obj_get_int_maybe
                0x0000d5f8       0x54 build/py/obj.o
                0x0000d5f8                mp_obj_get_int_maybe
 .text.mp_obj_get_float
                0x0000d64c       0x74 build/py/obj.o
                0x0000d64c                mp_obj_get_float
 .text.mp_obj_get_complex
                0x0000d6c0       0x90 build/py/obj.o
                0x0000d6c0                mp_obj_get_complex
 .text.mp_obj_get_array
                0x0000d750       0x4c build/py/obj.o
                0x0000d750                mp_obj_get_array
 .text.mp_obj_get_array_fixed_n
                0x0000d79c       0x2c build/py/obj.o
                0x0000d79c                mp_obj_get_array_fixed_n
 .text.mp_get_index
                0x0000d7c8       0x8c build/py/obj.o
                0x0000d7c8                mp_get_index
 .text.mp_obj_id
                0x0000d854       0x18 build/py/obj.o
                0x0000d854                mp_obj_id
 .text.mp_obj_len_maybe
                0x0000d86c       0x48 build/py/obj.o
                0x0000d86c                mp_obj_len_maybe
 .text.mp_obj_is_true
                0x0000d8b4       0x68 build/py/obj.o
                0x0000d8b4                mp_obj_is_true
 .text.mp_obj_len
                0x0000d91c       0x28 build/py/obj.o
                0x0000d91c                mp_obj_len
 .text.mp_obj_subscr
                0x0000d944       0x60 build/py/obj.o
                0x0000d944                mp_obj_subscr
 .text.mp_get_buffer
                0x0000d9a4       0x26 build/py/obj.o
                0x0000d9a4                mp_get_buffer
 *fill*         0x0000d9ca        0x2 ff
 .text.mp_get_buffer_raise
                0x0000d9cc       0x20 build/py/obj.o
                0x0000d9cc                mp_get_buffer_raise
 .text.array_unary_op
                0x0000d9ec       0x2c build/py/objarray.o
 .text.array_get_buffer
                0x0000da18       0x2a build/py/objarray.o
 *fill*         0x0000da42        0x2 ff
 .text.array_extend
                0x0000da44       0xa4 build/py/objarray.o
 .text.array_append
                0x0000dae8       0xa4 build/py/objarray.o
 .text.array_iterator_new
                0x0000db8c       0x18 build/py/objarray.o
 .text.array_it_iternext
                0x0000dba4       0x28 build/py/objarray.o
 .text.array_print
                0x0000dbcc       0x84 build/py/objarray.o
 .text.array_new
                0x0000dc50       0x60 build/py/objarray.o
 .text.array_subscr
                0x0000dcb0       0xc8 build/py/objarray.o
 .text.array_binary_op
                0x0000dd78       0xbc build/py/objarray.o
 .text.array_construct
                0x0000de34       0xb0 build/py/objarray.o
 .text.array_make_new
                0x0000dee4       0x36 build/py/objarray.o
 *fill*         0x0000df1a        0x2 ff
 .text.bytearray_make_new
                0x0000df1c       0x6c build/py/objarray.o
 .text.bool_unary_op
                0x0000df88       0x3c build/py/objbool.o
 .text.bool_binary_op
                0x0000dfc4       0x26 build/py/objbool.o
 *fill*         0x0000dfea        0x2 ff
 .text.bool_print
                0x0000dfec       0x1c build/py/objbool.o
 .text.bool_make_new
                0x0000e008       0x3c build/py/objbool.o
 .text.bound_meth_call
                0x0000e044       0x70 build/py/objboundmeth.o
 .text.mp_obj_new_bound_meth
                0x0000e0b4       0x18 build/py/objboundmeth.o
                0x0000e0b4                mp_obj_new_bound_meth
 .text.mp_obj_cell_get
                0x0000e0cc        0x4 build/py/objcell.o
                0x0000e0cc                mp_obj_cell_get
 .text.mp_obj_cell_set
                0x0000e0d0        0x4 build/py/objcell.o
                0x0000e0d0                mp_obj_cell_set
 .text.mp_obj_new_cell
                0x0000e0d4       0x18 build/py/objcell.o
                0x0000e0d4                mp_obj_new_cell
 .text.closure_call
                0x0000e0ec       0x94 build/py/objclosure.o
 .text.mp_obj_new_closure
                0x0000e180       0x34 build/py/objclosure.o
                0x0000e180                mp_obj_new_closure
 .text.complex_print
                0x0000e1b4       0x88 build/py/objcomplex.o
 .text.complex_load_attr
                0x0000e23c       0x1a build/py/objcomplex.o
 *fill*         0x0000e256        0x2 ff
 .text.mp_obj_new_complex
                0x0000e258       0x1c build/py/objcomplex.o
                0x0000e258                mp_obj_new_complex
 .text.complex_unary_op
                0x0000e274       0x58 build/py/objcomplex.o
 .text.mp_obj_complex_get
                0x0000e2cc       0x34 build/py/objcomplex.o
                0x0000e2cc                mp_obj_complex_get
 .text.complex_make_new
                0x0000e300       0xd0 build/py/objcomplex.o
 .text.mp_obj_complex_binary_op
                0x0000e3d0      0x24c build/py/objcomplex.o
                0x0000e3d0                mp_obj_complex_binary_op
 .text.complex_binary_op
                0x0000e61c       0x12 build/py/objcomplex.o
 *fill*         0x0000e62e        0x2 ff
 .text.dict_unary_op
                0x0000e630       0x30 build/py/objdict.o
 .text.dict_getiter
                0x0000e660       0x1c build/py/objdict.o
 .text.dict_iter_next
                0x0000e67c       0x32 build/py/objdict.o
 .text.dict_it_iternext
                0x0000e6ae       0x16 build/py/objdict.o
 .text.dict_print
                0x0000e6c4       0x68 build/py/objdict.o
 .text.dict_get_helper
                0x0000e72c       0x4c build/py/objdict.o
 .text.dict_setdefault
                0x0000e778       0x60 build/py/objdict.o
 .text.dict_pop
                0x0000e7d8       0x60 build/py/objdict.o
 .text.dict_get
                0x0000e838       0x60 build/py/objdict.o
 .text.dict_view
                0x0000e898       0x44 build/py/objdict.o
 .text.dict_values
                0x0000e8dc        0x6 build/py/objdict.o
 .text.dict_keys
                0x0000e8e2        0x6 build/py/objdict.o
 .text.dict_items
                0x0000e8e8        0x6 build/py/objdict.o
 *fill*         0x0000e8ee        0x2 ff
 .text.dict_view_getiter
                0x0000e8f0       0x4c build/py/objdict.o
 .text.dict_view_it_iternext
                0x0000e93c       0x64 build/py/objdict.o
 .text.dict_view_print
                0x0000e9a0       0x90 build/py/objdict.o
 .text.dict_popitem
                0x0000ea30       0x74 build/py/objdict.o
 .text.dict_clear
                0x0000eaa4       0x38 build/py/objdict.o
 .text.dict_binary_op
                0x0000eadc       0x88 build/py/objdict.o
 .text.dict_view_binary_op
                0x0000eb64       0x1a build/py/objdict.o
 *fill*         0x0000eb7e        0x2 ff
 .text.dict_update
                0x0000eb80      0x11c build/py/objdict.o
 .text.mp_obj_dict_get
                0x0000ec9c       0x24 build/py/objdict.o
                0x0000ec9c                mp_obj_dict_get
 .text.mp_obj_dict_init
                0x0000ecc0       0x10 build/py/objdict.o
                0x0000ecc0                mp_obj_dict_init
 .text.mp_obj_new_dict
                0x0000ecd0       0x16 build/py/objdict.o
                0x0000ecd0                mp_obj_new_dict
 *fill*         0x0000ece6        0x2 ff
 .text.dict_fromkeys
                0x0000ece8       0x64 build/py/objdict.o
 .text.dict_copy
                0x0000ed4c       0x64 build/py/objdict.o
 .text.dict_make_new
                0x0000edb0       0x38 build/py/objdict.o
 .text.mp_obj_dict_len
                0x0000ede8        0x6 build/py/objdict.o
                0x0000ede8                mp_obj_dict_len
 *fill*         0x0000edee        0x2 ff
 .text.mp_obj_dict_store
                0x0000edf0       0x40 build/py/objdict.o
                0x0000edf0                mp_obj_dict_store
 .text.mp_obj_dict_delete
                0x0000ee30       0x3c build/py/objdict.o
                0x0000ee30                mp_obj_dict_delete
 .text.dict_subscr
                0x0000ee6c       0x3c build/py/objdict.o
 .text.mp_obj_dict_get_map
                0x0000eea8       0x30 build/py/objdict.o
                0x0000eea8                mp_obj_dict_get_map
 .text.enumerate_make_new
                0x0000eed8       0x3c build/py/objenumerate.o
 .text.enumerate_iternext
                0x0000ef14       0x54 build/py/objenumerate.o
 .text.mp_obj_exception_make_new
                0x0000ef68       0x4c build/py/objexcept.o
                0x0000ef68                mp_obj_exception_make_new
 .text.exc___init__
                0x0000efb4       0x18 build/py/objexcept.o
 .text.mp_obj_exception_print
                0x0000efcc       0x84 build/py/objexcept.o
 .text.mp_init_emergency_exception_buf
                0x0000f050       0x10 build/py/objexcept.o
                0x0000f050                mp_init_emergency_exception_buf
 .text.mp_alloc_emergency_exception_buf
                0x0000f060       0x40 build/py/objexcept.o
                0x0000f060                mp_alloc_emergency_exception_buf
 .text.mp_obj_exception_get_value
                0x0000f0a0       0x14 build/py/objexcept.o
                0x0000f0a0                mp_obj_exception_get_value
 .text.exception_load_attr
                0x0000f0b4       0x28 build/py/objexcept.o
 .text.mp_obj_new_exception_args
                0x0000f0dc       0x34 build/py/objexcept.o
                0x0000f0dc                mp_obj_new_exception_args
 .text.mp_obj_new_exception
                0x0000f110        0x8 build/py/objexcept.o
                0x0000f110                mp_obj_new_exception
 .text.mp_obj_new_exception_arg1
                0x0000f118       0x14 build/py/objexcept.o
                0x0000f118                mp_obj_new_exception_arg1
 .text.mp_obj_new_exception_msg_varg
                0x0000f12c      0x138 build/py/objexcept.o
                0x0000f12c                mp_obj_new_exception_msg_varg
 .text.mp_obj_new_exception_msg
                0x0000f264        0x4 build/py/objexcept.o
                0x0000f264                mp_obj_new_exception_msg
 .text.mp_obj_is_exception_type
                0x0000f268       0x2c build/py/objexcept.o
                0x0000f268                mp_obj_is_exception_type
 .text.mp_obj_is_exception_instance
                0x0000f294        0xe build/py/objexcept.o
                0x0000f294                mp_obj_is_exception_instance
 .text.mp_obj_exception_match
                0x0000f2a2       0x20 build/py/objexcept.o
                0x0000f2a2                mp_obj_exception_match
 *fill*         0x0000f2c2        0x2 ff
 .text.mp_obj_exception_add_traceback
                0x0000f2c4       0x90 build/py/objexcept.o
                0x0000f2c4                mp_obj_exception_add_traceback
 .text.mp_obj_exception_get_traceback
                0x0000f354       0x4c build/py/objexcept.o
                0x0000f354                mp_obj_exception_get_traceback
 .text.filter_make_new
                0x0000f3a0       0x32 build/py/objfilter.o
 *fill*         0x0000f3d2        0x2 ff
 .text.filter_iternext
                0x0000f3d4       0x60 build/py/objfilter.o
 .text.float_print
                0x0000f434       0x4c build/py/objfloat.o
 .text.mp_obj_new_float
                0x0000f480       0x18 build/py/objfloat.o
                0x0000f480                mp_obj_new_float
 .text.float_unary_op
                0x0000f498       0x40 build/py/objfloat.o
 .text.float_make_new
                0x0000f4d8       0x60 build/py/objfloat.o
 .text.mp_obj_float_get
                0x0000f538       0x30 build/py/objfloat.o
                0x0000f538                mp_obj_float_get
 .text.mp_obj_float_divmod
                0x0000f568       0xd0 build/py/objfloat.o
                0x0000f568                mp_obj_float_divmod
 .text.mp_obj_float_binary_op
                0x0000f638      0x154 build/py/objfloat.o
                0x0000f638                mp_obj_float_binary_op
 .text.float_binary_op
                0x0000f78c       0x30 build/py/objfloat.o
 .text.fun_native_call
                0x0000f7bc       0x60 build/py/objfun.o
 .text.fun_builtin_call
                0x0000f81c       0xa8 build/py/objfun.o
 .text.fun_bc_call
                0x0000f8c4       0xfc build/py/objfun.o
 .text.fun_viper_call
                0x0000f9c0       0xac build/py/objfun.o
 .text.convert_obj_for_inline_asm
                0x0000fa6c       0xc0 build/py/objfun.o
 .text.fun_asm_call
                0x0000fb2c       0x90 build/py/objfun.o
 .text.mp_obj_code_get_name
                0x0000fbbc       0x1c build/py/objfun.o
                0x0000fbbc                mp_obj_code_get_name
 .text.mp_obj_fun_get_name
                0x0000fbd8        0x6 build/py/objfun.o
                0x0000fbd8                mp_obj_fun_get_name
 *fill*         0x0000fbde        0x2 ff
 .text.fun_bc_print
                0x0000fbe0       0x20 build/py/objfun.o
 .text.mp_obj_new_fun_bc
                0x0000fc00       0xb4 build/py/objfun.o
                0x0000fc00                mp_obj_new_fun_bc
 .text.mp_obj_new_fun_native
                0x0000fcb4       0x38 build/py/objfun.o
                0x0000fcb4                mp_obj_new_fun_native
 .text.mp_obj_new_fun_viper
                0x0000fcec       0x1c build/py/objfun.o
                0x0000fcec                mp_obj_new_fun_viper
 .text.mp_obj_new_fun_asm
                0x0000fd08       0x18 build/py/objfun.o
                0x0000fd08                mp_obj_new_fun_asm
 .text.gen_wrap_call
                0x0000fd20       0xa4 build/py/objgenerator.o
 .text.gen_instance_print
                0x0000fdc4       0x20 build/py/objgenerator.o
 .text.mp_obj_new_gen_wrap
                0x0000fde4       0x18 build/py/objgenerator.o
                0x0000fde4                mp_obj_new_gen_wrap
 .text.mp_obj_gen_resume
                0x0000fdfc       0x94 build/py/objgenerator.o
                0x0000fdfc                mp_obj_gen_resume
 .text.gen_resume_and_raise
                0x0000fe90       0x78 build/py/objgenerator.o
 .text.gen_instance_throw
                0x0000ff08       0x34 build/py/objgenerator.o
 .text.gen_instance_send
                0x0000ff3c       0x1c build/py/objgenerator.o
 .text.gen_instance_iternext
                0x0000ff58        0xc build/py/objgenerator.o
 .text.gen_instance_close
                0x0000ff64       0x64 build/py/objgenerator.o
 .text.it_iternext
                0x0000ffc8       0x50 build/py/objgetitemiter.o
 .text.mp_obj_new_getitem_iter
                0x00010018       0x20 build/py/objgetitemiter.o
                0x00010018                mp_obj_new_getitem_iter
 .text.int_to_bytes
                0x00010038       0x48 build/py/objint.o
 .text.int_from_bytes
                0x00010080       0x2e build/py/objint.o
 *fill*         0x000100ae        0x2 ff
 .text.mp_obj_int_make_new
                0x000100b0       0xa0 build/py/objint.o
 .text.mp_classify_fp_as_int
                0x00010150       0x18 build/py/objint.o
                0x00010150                mp_classify_fp_as_int
 .text.mp_obj_int_formatted
                0x00010168      0x17c build/py/objint.o
                0x00010168                mp_obj_int_formatted
 .text.mp_obj_int_print
                0x000102e4       0x44 build/py/objint.o
                0x000102e4                mp_obj_int_print
 .text.mp_obj_int_binary_op_extra_cases
                0x00010328       0x6c build/py/objint.o
                0x00010328                mp_obj_int_binary_op_extra_cases
 .text.mp_obj_int_new_mpz
                0x00010394       0x1c build/py/objint_mpz.o
 .text.mp_obj_int_formatted_impl
                0x000103b0       0x80 build/py/objint_mpz.o
                0x000103b0                mp_obj_int_formatted_impl
 .text.mp_obj_int_hash
                0x00010430        0xe build/py/objint_mpz.o
                0x00010430                mp_obj_int_hash
 .text.mp_obj_int_is_positive
                0x0001043e       0x14 build/py/objint_mpz.o
                0x0001043e                mp_obj_int_is_positive
 *fill*         0x00010452        0x2 ff
 .text.mp_obj_int_unary_op
                0x00010454       0x58 build/py/objint_mpz.o
                0x00010454                mp_obj_int_unary_op
 .text.mp_obj_new_int_from_ll
                0x000104ac       0x20 build/py/objint_mpz.o
                0x000104ac                mp_obj_new_int_from_ll
 .text.mp_obj_new_int
                0x000104cc       0x14 build/py/objint_mpz.o
                0x000104cc                mp_obj_new_int
 .text.mp_obj_new_int_from_ull
                0x000104e0       0x20 build/py/objint_mpz.o
                0x000104e0                mp_obj_new_int_from_ull
 .text.mp_obj_new_int_from_uint
                0x00010500       0x14 build/py/objint_mpz.o
                0x00010500                mp_obj_new_int_from_uint
 .text.mp_obj_new_int_from_float
                0x00010514       0x58 build/py/objint_mpz.o
                0x00010514                mp_obj_new_int_from_float
 .text.mp_obj_new_int_from_str_len
                0x0001056c       0x30 build/py/objint_mpz.o
                0x0001056c                mp_obj_new_int_from_str_len
 .text.mp_obj_int_get_truncated
                0x0001059c        0xe build/py/objint_mpz.o
                0x0001059c                mp_obj_int_get_truncated
 *fill*         0x000105aa        0x2 ff
 .text.mp_obj_int_get_checked
                0x000105ac       0x34 build/py/objint_mpz.o
                0x000105ac                mp_obj_int_get_checked
 .text.mp_obj_int_binary_op
                0x000105e0      0x290 build/py/objint_mpz.o
                0x000105e0                mp_obj_int_binary_op
 .text.mp_obj_int_as_float
                0x00010870       0x18 build/py/objint_mpz.o
                0x00010870                mp_obj_int_as_float
 .text.list_unary_op
                0x00010888       0x2c build/py/objlist.o
 .text.list_it_iternext
                0x000108b4       0x1c build/py/objlist.o
 .text.mp_obj_list_append
                0x000108d0       0x78 build/py/objlist.o
                0x000108d0                mp_obj_list_append
 .text.mp_quicksort
                0x00010948       0xc6 build/py/objlist.o
 *fill*         0x00010a0e        0x2 ff
 .text.list_pop
                0x00010a10       0xc0 build/py/objlist.o
 .text.list_extend_from_iter
                0x00010ad0       0x22 build/py/objlist.o
 *fill*         0x00010af2        0x2 ff
 .text.list_print
                0x00010af4       0x48 build/py/objlist.o
 .text.list_reverse
                0x00010b3c       0x64 build/py/objlist.o
 .text.list_insert
                0x00010ba0       0x74 build/py/objlist.o
 .text.list_clear
                0x00010c14       0x54 build/py/objlist.o
 .text.mp_obj_list_sort
                0x00010c68       0x88 build/py/objlist.o
                0x00010c68                mp_obj_list_sort
 .text.list_index
                0x00010cf0       0x54 build/py/objlist.o
 .text.mp_obj_list_remove
                0x00010d44       0x50 build/py/objlist.o
                0x00010d44                mp_obj_list_remove
 .text.list_extend
                0x00010d94       0x98 build/py/objlist.o
 .text.list_count
                0x00010e2c       0x3c build/py/objlist.o
 .text.list_getiter
                0x00010e68       0x1c build/py/objlist.o
 .text.mp_obj_list_init
                0x00010e84       0x38 build/py/objlist.o
                0x00010e84                mp_obj_list_init
 .text.list_new
                0x00010ebc       0x16 build/py/objlist.o
 *fill*         0x00010ed2        0x2 ff
 .text.list_binary_op
                0x00010ed4      0x108 build/py/objlist.o
 .text.list_make_new
                0x00010fdc       0x36 build/py/objlist.o
 .text.mp_obj_new_list
                0x00011012       0x20 build/py/objlist.o
                0x00011012                mp_obj_new_list
 *fill*         0x00011032        0x2 ff
 .text.list_copy
                0x00011034       0x3c build/py/objlist.o
 .text.mp_obj_list_get
                0x00011070        0xa build/py/objlist.o
                0x00011070                mp_obj_list_get
 .text.mp_obj_list_set_len
                0x0001107a        0x4 build/py/objlist.o
                0x0001107a                mp_obj_list_set_len
 .text.mp_obj_list_store
                0x0001107e       0x1c build/py/objlist.o
                0x0001107e                mp_obj_list_store
 *fill*         0x0001109a        0x2 ff
 .text.list_subscr
                0x0001109c      0x1e0 build/py/objlist.o
 .text.map_make_new
                0x0001127c       0x50 build/py/objmap.o
 .text.map_iternext
                0x000112cc       0x78 build/py/objmap.o
 .text.module_store_attr
                0x00011344       0x24 build/py/objmodule.o
 .text.module_load_attr
                0x00011368       0x1c build/py/objmodule.o
 .text.module_print
                0x00011384       0x44 build/py/objmodule.o
 .text.mp_obj_new_module
                0x000113c8       0x48 build/py/objmodule.o
                0x000113c8                mp_obj_new_module
 .text.mp_obj_module_get_globals
                0x00011410       0x30 build/py/objmodule.o
                0x00011410                mp_obj_module_get_globals
 .text.mp_module_init
                0x00011440        0xc build/py/objmodule.o
                0x00011440                mp_module_init
 .text.mp_module_get
                0x0001144c       0x30 build/py/objmodule.o
                0x0001144c                mp_module_get
 .text.object___init__
                0x0001147c        0x8 build/py/objobject.o
 .text.object___new__
                0x00011484       0x18 build/py/objobject.o
 .text.object_make_new
                0x0001149c       0x1e build/py/objobject.o
 .text.property_deleter
                0x000114ba       0x1c build/py/objproperty.o
 .text.property_setter
                0x000114d6       0x1c build/py/objproperty.o
 .text.property_getter
                0x000114f2       0x1c build/py/objproperty.o
 *fill*         0x0001150e        0x2 ff
 .text.property_make_new
                0x00011510       0x48 build/py/objproperty.o
 .text.mp_obj_property_get
                0x00011558       0x30 build/py/objproperty.o
                0x00011558                mp_obj_property_get
 .text.none_print
                0x00011588       0x10 build/py/objnone.o
 .text.none_unary_op
                0x00011598       0x10 build/py/objnone.o
 .text.new_namedtuple_type
                0x000115a8       0xa8 build/py/objnamedtuple.o
 .text.namedtuple_store_attr
                0x00011650       0x18 build/py/objnamedtuple.o
 .text.namedtuple_make_new
                0x00011668       0xe0 build/py/objnamedtuple.o
 .text.namedtuple_print
                0x00011748       0x74 build/py/objnamedtuple.o
 .text.namedtuple_load_attr
                0x000117bc       0x2a build/py/objnamedtuple.o
 .text.range_it_iternext
                0x000117e6       0x2c build/py/objrange.o
 .text.range_len
                0x00011812       0x1e build/py/objrange.o
 .text.range_unary_op
                0x00011830       0x34 build/py/objrange.o
 .text.range_getiter
                0x00011864       0x20 build/py/objrange.o
 .text.range_make_new
                0x00011884       0x5c build/py/objrange.o
 .text.range_print
                0x000118e0       0x34 build/py/objrange.o
 .text.range_subscr
                0x00011914       0x68 build/py/objrange.o
 .text.reversed_iternext
                0x0001197c       0x48 build/py/objreversed.o
 .text.reversed_make_new
                0x000119c4       0x50 build/py/objreversed.o
 .text.set_unary_op
                0x00011a14       0x2c build/py/objset.o
 .text.set_update_int
                0x00011a40       0x24 build/py/objset.o
 .text.set_getiter
                0x00011a64       0x1c build/py/objset.o
 .text.set_copy_as_mutable
                0x00011a80       0x30 build/py/objset.o
 .text.set_update
                0x00011ab0       0x40 build/py/objset.o
 .text.check_set
                0x00011af0       0x28 build/py/objset.o
 .text.set_symmetric_difference_update
                0x00011b18       0x30 build/py/objset.o
 .text.set_isdisjoint
                0x00011b48       0x3c build/py/objset.o
 .text.set_add  0x00011b84       0x1c build/py/objset.o
 .text.set_discard
                0x00011ba0       0x1c build/py/objset.o
 .text.set_copy
                0x00011bbc       0x14 build/py/objset.o
 .text.set_union
                0x00011bd0       0x1c build/py/objset.o
 .text.set_symmetric_difference
                0x00011bec       0x20 build/py/objset.o
 .text.set_clear
                0x00011c0c       0x18 build/py/objset.o
 .text.set_diff_int
                0x00011c24       0x7c build/py/objset.o
 .text.set_diff_update
                0x00011ca0       0x10 build/py/objset.o
 .text.set_diff
                0x00011cb0        0x6 build/py/objset.o
 *fill*         0x00011cb6        0x2 ff
 .text.set_remove
                0x00011cb8       0x2c build/py/objset.o
 .text.set_pop  0x00011ce4       0x28 build/py/objset.o
 .text.set_print
                0x00011d0c       0x70 build/py/objset.o
 .text.set_it_iternext
                0x00011d7c       0x60 build/py/objset.o
 .text.mp_obj_new_set
                0x00011ddc       0x40 build/py/objset.o
                0x00011ddc                mp_obj_new_set
 .text.set_intersect_int
                0x00011e1c       0x88 build/py/objset.o
 .text.set_intersect_update
                0x00011ea4        0x6 build/py/objset.o
 .text.set_intersect
                0x00011eaa        0x6 build/py/objset.o
 .text.mp_obj_set_store
                0x00011eb0       0x38 build/py/objset.o
                0x00011eb0                mp_obj_set_store
 .text.set_make_new
                0x00011ee8       0x54 build/py/objset.o
 .text.set_issubset_internal
                0x00011f3c       0xc4 build/py/objset.o
 .text.set_issuperset
                0x00012000        0xc build/py/objset.o
 .text.set_issubset
                0x0001200c        0x6 build/py/objset.o
 *fill*         0x00012012        0x2 ff
 .text.set_binary_op
                0x00012014       0xc8 build/py/objset.o
 .text.ellipsis_print
                0x000120dc       0x10 build/py/objslice.o
 .text.slice_print
                0x000120ec       0x54 build/py/objslice.o
 .text.mp_obj_new_slice
                0x00012140       0x1c build/py/objslice.o
                0x00012140                mp_obj_new_slice
 .text.mp_obj_slice_get
                0x0001215c       0x38 build/py/objslice.o
                0x0001215c                mp_obj_slice_get
 .text.str_to_int
                0x00012194       0x36 build/py/objstr.o
 *fill*         0x000121ca        0x2 ff
 .text.arg_looks_integer
                0x000121cc       0x34 build/py/objstr.o
 .text.arg_looks_numeric
                0x00012200       0x28 build/py/objstr.o
 .text.bytes_it_iternext
                0x00012228       0x3a build/py/objstr.o
 .text.find_subbytes
                0x00012262       0x44 build/py/objstr.o
 *fill*         0x000122a6        0x2 ff
 .text.str_endswith
                0x000122a8       0x88 build/py/objstr.o
 .text.str_startswith
                0x00012330       0x90 build/py/objstr.o
 .text.unlikely.bad_implicit_conversion
                0x000123c0       0x1c build/py/objstr.o
 .text.str_finder
                0x000123dc      0x130 build/py/objstr.o
 .text.str_find
                0x0001250c        0x8 build/py/objstr.o
 .text.str_rfind
                0x00012514        0xa build/py/objstr.o
 .text.str_index
                0x0001251e        0x8 build/py/objstr.o
 .text.str_rindex
                0x00012526        0xa build/py/objstr.o
 .text.str_count
                0x00012530      0x134 build/py/objstr.o
 .text.str_uni_istype
                0x00012664       0x84 build/py/objstr.o
 .text.str_isspace
                0x000126e8        0xc build/py/objstr.o
 .text.str_isalpha
                0x000126f4        0xc build/py/objstr.o
 .text.str_isdigit
                0x00012700        0xc build/py/objstr.o
 .text.str_isupper
                0x0001270c        0xc build/py/objstr.o
 .text.str_islower
                0x00012718        0xc build/py/objstr.o
 .text.mp_obj_new_bytes_iterator
                0x00012724       0x1c build/py/objstr.o
 .text.mp_obj_new_str_iterator
                0x00012740       0x1c build/py/objstr.o
                0x00012740                mp_obj_new_str_iterator
 .text.mp_obj_str_get_buffer
                0x0001275c       0x40 build/py/objstr.o
                0x0001275c                mp_obj_str_get_buffer
 .text.mp_str_print_quoted
                0x0001279c       0xc0 build/py/objstr.o
                0x0001279c                mp_str_print_quoted
 .text.str_print
                0x0001285c       0x70 build/py/objstr.o
 .text.mp_obj_new_str_of_type
                0x000128cc       0x38 build/py/objstr.o
                0x000128cc                mp_obj_new_str_of_type
 .text.str_uni_strip
                0x00012904      0x194 build/py/objstr.o
 .text.str_strip
                0x00012a98        0xc build/py/objstr.o
 .text.str_lstrip
                0x00012aa4        0xc build/py/objstr.o
 .text.str_rstrip
                0x00012ab0        0xc build/py/objstr.o
 .text.str_partitioner
                0x00012abc      0x100 build/py/objstr.o
 .text.str_partition
                0x00012bbc        0x6 build/py/objstr.o
 .text.str_rpartition
                0x00012bc2        0x8 build/py/objstr.o
 *fill*         0x00012bca        0x2 ff
 .text.mp_obj_new_str_from_vstr
                0x00012bcc       0x60 build/py/objstr.o
                0x00012bcc                mp_obj_new_str_from_vstr
 .text.bytes_make_new.part.1
                0x00012c2c       0xf8 build/py/objstr.o
 .text.bytes_make_new
                0x00012d24       0x20 build/py/objstr.o
 .text.str_encode
                0x00012d44       0x2c build/py/objstr.o
 .text.str_join
                0x00012d70      0x14c build/py/objstr.o
 .text.str_replace
                0x00012ebc      0x1b0 build/py/objstr.o
 .text.str_caseconv
                0x0001306c       0x56 build/py/objstr.o
 *fill*         0x000130c2        0x2 ff
 .text.str_lower
                0x000130c4        0xc build/py/objstr.o
 .text.str_upper
                0x000130d0        0xc build/py/objstr.o
 .text.mp_obj_new_str
                0x000130dc       0x30 build/py/objstr.o
                0x000130dc                mp_obj_new_str
 .text.mp_obj_str_make_new
                0x0001310c       0x8c build/py/objstr.o
                0x0001310c                mp_obj_str_make_new
 .text.bytes_decode
                0x00013198       0x2c build/py/objstr.o
 .text.bytes_subscr
                0x000131c4       0xa0 build/py/objstr.o
 .text.str_it_iternext
                0x00013264       0x3e build/py/objstr.o
 *fill*         0x000132a2        0x2 ff
 .text.mp_obj_new_bytes
                0x000132a4       0x10 build/py/objstr.o
                0x000132a4                mp_obj_new_bytes
 .text.mp_obj_str_equal
                0x000132b4       0x92 build/py/objstr.o
                0x000132b4                mp_obj_str_equal
 *fill*         0x00013346        0x2 ff
 .text.mp_obj_str_get_hash
                0x00013348       0x2c build/py/objstr.o
                0x00013348                mp_obj_str_get_hash
 .text.mp_obj_str_get_len
                0x00013374       0x2c build/py/objstr.o
                0x00013374                mp_obj_str_get_len
 .text.mp_obj_str_get_qstr
                0x000133a0       0x30 build/py/objstr.o
                0x000133a0                mp_obj_str_get_qstr
 .text.mp_obj_str_get_str
                0x000133d0       0x34 build/py/objstr.o
                0x000133d0                mp_obj_str_get_str
 .text.mp_obj_str_get_data
                0x00013404       0x38 build/py/objstr.o
                0x00013404                mp_obj_str_get_data
 .text.mp_obj_str_binary_op
                0x0001343c      0x53c build/py/objstr.o
                0x0001343c                mp_obj_str_binary_op
 .text.mp_obj_str_format
                0x00013978      0x648 build/py/objstr.o
                0x00013978                mp_obj_str_format
 .text.str_split
                0x00013fc0      0x150 build/py/objstr.o
 .text.str_rsplit
                0x00014110      0x134 build/py/objstr.o
 .text.mp_obj_tuple_unary_op
                0x00014244       0x2c build/py/objtuple.o
                0x00014244                mp_obj_tuple_unary_op
 .text.tuple_it_iternext
                0x00014270       0x1c build/py/objtuple.o
 .text.mp_obj_tuple_print
                0x0001428c       0x54 build/py/objtuple.o
                0x0001428c                mp_obj_tuple_print
 .text.tuple_index
                0x000142e0       0x40 build/py/objtuple.o
 .text.tuple_count
                0x00014320       0x3c build/py/objtuple.o
 .text.mp_obj_tuple_getiter
                0x0001435c       0x1c build/py/objtuple.o
                0x0001435c                mp_obj_tuple_getiter
 .text.mp_obj_new_tuple
                0x00014378       0x40 build/py/objtuple.o
                0x00014378                mp_obj_new_tuple
 .text.mp_obj_tuple_binary_op
                0x000143b8      0x118 build/py/objtuple.o
                0x000143b8                mp_obj_tuple_binary_op
 .text.mp_obj_tuple_subscr
                0x000144d0       0x7c build/py/objtuple.o
                0x000144d0                mp_obj_tuple_subscr
 .text.mp_obj_tuple_make_new
                0x0001454c       0x88 build/py/objtuple.o
 .text.mp_obj_tuple_get
                0x000145d4       0x34 build/py/objtuple.o
                0x000145d4                mp_obj_tuple_get
 .text.mp_obj_tuple_del
                0x00014608       0x3c build/py/objtuple.o
                0x00014608                mp_obj_tuple_del
 .text.mp_obj_tuple_hash
                0x00014644       0x50 build/py/objtuple.o
                0x00014644                mp_obj_tuple_hash
 .text.type_store_attr
                0x00014694       0x84 build/py/objtype.o
 .text.type_print
                0x00014718       0x1c build/py/objtype.o
 .text.super_print
                0x00014734       0x40 build/py/objtype.o
 .text.instance_count_native_bases.isra.0
                0x00014774       0x74 build/py/objtype.o
 .text.instance_convert_return_attr
                0x000147e8       0x6c build/py/objtype.o
 .text.mp_obj_class_lookup
                0x00014854      0x180 build/py/objtype.o
 .text.instance_make_new
                0x000149d4      0x1bc build/py/objtype.o
                0x000149d4                instance_make_new
 .text.mp_obj_instance_get_call
                0x00014b90       0x2e build/py/objtype.o
 *fill*         0x00014bbe        0x2 ff
 .text.super_load_attr
                0x00014bc0       0xc0 build/py/objtype.o
 .text.mp_obj_instance_load_attr
                0x00014c80       0xbc build/py/objtype.o
                0x00014c80                mp_obj_instance_load_attr
 .text.mp_obj_instance_store_attr
                0x00014d3c       0x88 build/py/objtype.o
                0x00014d3c                mp_obj_instance_store_attr
 .text.instance_subscr
                0x00014dc4       0x7c build/py/objtype.o
 .text.instance_print
                0x00014e40       0xb8 build/py/objtype.o
 .text.type_load_attr
                0x00014ef8       0x5c build/py/objtype.o
 .text.instance_get_buffer
                0x00014f54       0x48 build/py/objtype.o
 .text.instance_getiter
                0x00014f9c       0x4a build/py/objtype.o
 *fill*         0x00014fe6        0x2 ff
 .text.mp_obj_instance_call
                0x00014fe8       0x4c build/py/objtype.o
                0x00014fe8                mp_obj_instance_call
 .text.type_call
                0x00015034       0x28 build/py/objtype.o
 .text.static_class_method_make_new
                0x0001505c       0x54 build/py/objtype.o
 .text.instance_binary_op
                0x000150b0       0x5c build/py/objtype.o
 .text.instance_unary_op
                0x0001510c       0x4c build/py/objtype.o
 .text.mp_obj_instance_is_callable
                0x00015158        0xe build/py/objtype.o
                0x00015158                mp_obj_instance_is_callable
 *fill*         0x00015166        0x2 ff
 .text.mp_obj_new_type
                0x00015168      0x168 build/py/objtype.o
                0x00015168                mp_obj_new_type
 .text.type_make_new
                0x000152d0       0x54 build/py/objtype.o
 .text.mp_obj_new_super
                0x00015324       0x18 build/py/objtype.o
                0x00015324                mp_obj_new_super
 .text.super_make_new
                0x0001533c       0x22 build/py/objtype.o
 *fill*         0x0001535e        0x2 ff
 .text.mp_obj_is_subclass_fast
                0x00015360       0x60 build/py/objtype.o
                0x00015360                mp_obj_is_subclass_fast
 .text.mp_obj_is_subclass
                0x000153c0       0x84 build/py/objtype.o
 .text.mp_builtin_issubclass
                0x00015444       0x30 build/py/objtype.o
 .text.mp_builtin_isinstance
                0x00015474       0x12 build/py/objtype.o
 .text.mp_instance_cast_to_native_base
                0x00015486       0x16 build/py/objtype.o
                0x00015486                mp_instance_cast_to_native_base
 .text.zip_make_new
                0x0001549c       0x4e build/py/objzip.o
 *fill*         0x000154ea        0x2 ff
 .text.zip_iternext
                0x000154ec       0x78 build/py/objzip.o
 .text.op_getitem
                0x00015564       0x16 build/py/opmethods.o
 .text.op_setitem
                0x0001557a       0x18 build/py/opmethods.o
 .text.op_delitem
                0x00015592       0x16 build/py/opmethods.o
 .text.op_contains
                0x000155a8       0x16 build/py/opmethods.o
 .text.mp_seq_multiply
                0x000155be       0x28 build/py/sequence.o
                0x000155be                mp_seq_multiply
 *fill*         0x000155e6        0x2 ff
 .text.mp_seq_get_fast_slice_indexes
                0x000155e8       0x74 build/py/sequence.o
                0x000155e8                mp_seq_get_fast_slice_indexes
 .text.mp_seq_extract_slice
                0x0001565c       0x52 build/py/sequence.o
                0x0001565c                mp_seq_extract_slice
 .text.mp_seq_cmp_bytes
                0x000156ae       0x72 build/py/sequence.o
                0x000156ae                mp_seq_cmp_bytes
 .text.mp_seq_cmp_objs
                0x00015720       0xa0 build/py/sequence.o
                0x00015720                mp_seq_cmp_objs
 .text.mp_seq_index_obj
                0x000157c0       0x74 build/py/sequence.o
                0x000157c0                mp_seq_index_obj
 .text.mp_seq_count_obj
                0x00015834       0x2e build/py/sequence.o
                0x00015834                mp_seq_count_obj
 *fill*         0x00015862        0x2 ff
 .text.stream_unbuffered_readline
                0x00015864       0xc8 build/py/stream.o
 .text.stream_readall
                0x0001592c       0xb4 build/py/stream.o
 .text.stream_read
                0x000159e0       0x98 build/py/stream.o
 .text.mp_stream_write
                0x00015a78       0x44 build/py/stream.o
                0x00015a78                mp_stream_write
 .text.stream_write_method
                0x00015abc       0x1c build/py/stream.o
 .text.mp_stream_unbuffered_iter
                0x00015ad8       0x20 build/py/stream.o
                0x00015ad8                mp_stream_unbuffered_iter
 .text.mp_binary_get_size
                0x00015af8       0x40 build/py/binary.o
                0x00015af8                mp_binary_get_size
 .text.mp_binary_get_val_array
                0x00015b38       0xa0 build/py/binary.o
                0x00015b38                mp_binary_get_val_array
 .text.mp_binary_get_int
                0x00015bd8       0x58 build/py/binary.o
                0x00015bd8                mp_binary_get_int
 .text.mp_binary_get_val
                0x00015c30       0xac build/py/binary.o
                0x00015c30                mp_binary_get_val
 .text.mp_binary_set_int
                0x00015cdc       0x30 build/py/binary.o
                0x00015cdc                mp_binary_set_int
 .text.mp_binary_set_val
                0x00015d0c       0xc0 build/py/binary.o
                0x00015d0c                mp_binary_set_val
 .text.mp_binary_set_val_array_from_int
                0x00015dcc       0x8c build/py/binary.o
                0x00015dcc                mp_binary_set_val_array_from_int
 .text.mp_binary_set_val_array
                0x00015e58       0x42 build/py/binary.o
                0x00015e58                mp_binary_set_val_array
 *fill*         0x00015e9a        0x2 ff
 .text.do_load  0x00015e9c       0x50 build/py/builtinimport.o
 .text.stat_dir_or_file
                0x00015eec       0x30 build/py/builtinimport.o
 .text.mp_builtin___import__
                0x00015f1c      0x340 build/py/builtinimport.o
                0x00015f1c                mp_builtin___import__
 .text.mp_obj_is_package
                0x0001625c       0x18 build/py/builtinimport.o
                0x0001625c                mp_obj_is_package
 .text.eval_exec_helper
                0x00016274       0x40 build/py/builtinevex.o
 .text.mp_builtin_eval
                0x000162b4        0x6 build/py/builtinevex.o
 .text.mp_builtin_exec
                0x000162ba        0x6 build/py/builtinevex.o
 .text.mp_locals_get
                0x000162c0        0xc build/py/modbuiltins.o
 .text.mp_globals_get
                0x000162cc        0xc build/py/modbuiltins.o
 .text.mp_builtin___build_class__
                0x000162d8       0x98 build/py/modbuiltins.o
 .text.mp_builtin_iter
                0x00016370        0x4 build/py/modbuiltins.o
 .text.mp_builtin_all
                0x00016374       0x2c build/py/modbuiltins.o
 .text.mp_builtin_any
                0x000163a0       0x2c build/py/modbuiltins.o
 .text.mp_builtin_bin
                0x000163cc       0x1a build/py/modbuiltins.o
 *fill*         0x000163e6        0x2 ff
 .text.mp_builtin_callable
                0x000163e8       0x1c build/py/modbuiltins.o
 .text.mp_builtin_divmod
                0x00016404       0xc4 build/py/modbuiltins.o
 .text.mp_builtin_hash
                0x000164c8        0xe build/py/modbuiltins.o
 .text.mp_builtin_hex
                0x000164d6        0xc build/py/modbuiltins.o
 .text.mp_builtin_oct
                0x000164e2        0xc build/py/modbuiltins.o
 *fill*         0x000164ee        0x2 ff
 .text.mp_builtin_min_max
                0x000164f0       0xd4 build/py/modbuiltins.o
 .text.mp_builtin_max
                0x000165c4        0x6 build/py/modbuiltins.o
 .text.mp_builtin_min
                0x000165ca        0x6 build/py/modbuiltins.o
 .text.mp_builtin_ord
                0x000165d0       0x30 build/py/modbuiltins.o
 .text.mp_builtin_print
                0x00016600       0x9c build/py/modbuiltins.o
 .text.mp_builtin___repl_print__
                0x0001669c       0x1c build/py/modbuiltins.o
 .text.mp_builtin_repr
                0x000166b8       0x2c build/py/modbuiltins.o
 .text.mp_builtin_getattr
                0x000166e4       0x44 build/py/modbuiltins.o
 .text.mp_builtin_setattr
                0x00016728       0x20 build/py/modbuiltins.o
 .text.mp_builtin_dir
                0x00016748       0x8c build/py/modbuiltins.o
 .text.mp_builtin_abs
                0x000167d4       0x94 build/py/modbuiltins.o
 .text.mp_builtin_chr
                0x00016868       0x34 build/py/modbuiltins.o
 .text.mp_builtin_pow
                0x0001689c       0x40 build/py/modbuiltins.o
 .text.mp_builtin_sum
                0x000168dc       0x58 build/py/modbuiltins.o
 .text.mp_builtin_next
                0x00016934       0x1c build/py/modbuiltins.o
 .text.mp_builtin_round
                0x00016950       0x5c build/py/modbuiltins.o
 .text.mp_builtin_sorted
                0x000169ac       0x5c build/py/modbuiltins.o
 .text.mp_builtin_hasattr
                0x00016a08       0x48 build/py/modbuiltins.o
 .text.gc_disable
                0x00016a50       0x14 build/py/modgc.o
 .text.gc_enable
                0x00016a64       0x14 build/py/modgc.o
 .text.gc_isenabled
                0x00016a78       0x20 build/py/modgc.o
 .text.py_gc_collect
                0x00016a98       0x10 build/py/modgc.o
 .text.gc_mem_free
                0x00016aa8       0x16 build/py/modgc.o
 .text.gc_mem_alloc
                0x00016abe       0x16 build/py/modgc.o
 .text.mp_math_degrees
                0x00016ad4       0x24 build/py/modmath.o
 .text.mp_math_radians
                0x00016af8       0x24 build/py/modmath.o
 .text.mp_math_fabs
                0x00016b1c       0x12 build/py/modmath.o
 .text.mp_math_trunc
                0x00016b2e       0x12 build/py/modmath.o
 .text.mp_math_isnan
                0x00016b40       0x20 build/py/modmath.o
 .text.mp_math_isinf
                0x00016b60       0x20 build/py/modmath.o
 .text.mp_math_isfinite
                0x00016b80       0x20 build/py/modmath.o
 .text.mp_math_modf
                0x00016ba0       0x2e build/py/modmath.o
 .text.mp_math_ldexp
                0x00016bce       0x24 build/py/modmath.o
 .text.mp_math_frexp
                0x00016bf2       0x2e build/py/modmath.o
 .text.mp_math_fmod
                0x00016c20       0x20 build/py/modmath.o
 .text.mp_math_floor
                0x00016c40       0x16 build/py/modmath.o
 .text.mp_math_copysign
                0x00016c56       0x22 build/py/modmath.o
 .text.mp_math_ceil
                0x00016c78       0x16 build/py/modmath.o
 .text.mp_math_atan2
                0x00016c8e       0x20 build/py/modmath.o
 .text.mp_math_atan
                0x00016cae       0x12 build/py/modmath.o
 .text.mp_math_asin
                0x00016cc0       0x12 build/py/modmath.o
 .text.mp_math_acos
                0x00016cd2       0x12 build/py/modmath.o
 .text.mp_math_tan
                0x00016ce4       0x12 build/py/modmath.o
 .text.mp_math_sin
                0x00016cf6       0x12 build/py/modmath.o
 .text.mp_math_cos
                0x00016d08       0x12 build/py/modmath.o
 .text.mp_math_atanh
                0x00016d1a       0x12 build/py/modmath.o
 .text.mp_math_asinh
                0x00016d2c       0x12 build/py/modmath.o
 .text.mp_math_acosh
                0x00016d3e       0x12 build/py/modmath.o
 .text.mp_math_tanh
                0x00016d50       0x12 build/py/modmath.o
 .text.mp_math_sinh
                0x00016d62       0x12 build/py/modmath.o
 .text.mp_math_cosh
                0x00016d74       0x12 build/py/modmath.o
 .text.mp_math_log10
                0x00016d86       0x12 build/py/modmath.o
 .text.mp_math_log2
                0x00016d98       0x12 build/py/modmath.o
 .text.mp_math_log
                0x00016daa       0x12 build/py/modmath.o
 .text.mp_math_expm1
                0x00016dbc       0x12 build/py/modmath.o
 .text.mp_math_exp
                0x00016dce       0x12 build/py/modmath.o
 .text.mp_math_pow
                0x00016de0       0x20 build/py/modmath.o
 .text.mp_math_sqrt
                0x00016e00       0x12 build/py/modmath.o
 .text.mp_cmath_sin
                0x00016e12       0x48 build/py/modcmath.o
 .text.mp_cmath_cos
                0x00016e5a       0x4a build/py/modcmath.o
 .text.mp_cmath_sqrt
                0x00016ea4       0x6e build/py/modcmath.o
 *fill*         0x00016f12        0x2 ff
 .text.mp_cmath_log10
                0x00016f14       0x5c build/py/modcmath.o
 .text.mp_cmath_log
                0x00016f70       0x4a build/py/modcmath.o
 .text.mp_cmath_exp
                0x00016fba       0x42 build/py/modcmath.o
 .text.mp_cmath_rect
                0x00016ffc       0x3e build/py/modcmath.o
 .text.mp_cmath_phase
                0x0001703a       0x1c build/py/modcmath.o
 .text.mp_cmath_polar
                0x00017056       0x4c build/py/modcmath.o
 .text.get_fmt_type
                0x000170a2       0x24 build/py/modstruct.o
 .text.get_fmt_num
                0x000170c6       0x30 build/py/modstruct.o
 *fill*         0x000170f6        0x2 ff
 .text.struct_calcsize
                0x000170f8       0x98 build/py/modstruct.o
 .text.struct_unpack
                0x00017190       0xc8 build/py/modstruct.o
 .text.struct_pack
                0x00017258       0xe4 build/py/modstruct.o
 .text.mp_sys_exit
                0x0001733c       0x1c build/py/modsys.o
 .text.mp_sys_print_exception
                0x00017358       0x1c build/py/modsys.o
 .text.mp_execute_bytecode
                0x00017374     0x10bc build/py/vm.o
                0x00017374                mp_execute_bytecode
 .text.mp_decode_uint
                0x00018430       0x1c build/py/bc.o
                0x00018430                mp_decode_uint
 .text.mp_setup_code_state
                0x0001844c      0x29c build/py/bc.o
                0x0001844c                mp_setup_code_state
 .text.str_startswith_word
                0x000186e8       0x38 build/py/repl.o
 .text.mp_repl_continue_with_input
                0x00018720      0x124 build/py/repl.o
                0x00018720                mp_repl_continue_with_input
 .text.mp_small_int_mul_overflow
                0x00018844       0x44 build/py/smallint.o
                0x00018844                mp_small_int_mul_overflow
 .text.mp_small_int_modulo
                0x00018888       0x1c build/py/smallint.o
                0x00018888                mp_small_int_modulo
 .text.mp_small_int_floor_divide
                0x000188a4       0x1c build/py/smallint.o
                0x000188a4                mp_small_int_floor_divide
 .text.pfenv_vstr_add_strn
                0x000188c0        0x4 build/py/pfenv.o
                0x000188c0                pfenv_vstr_add_strn
 .text.pfenv_print_strn
                0x000188c4       0xc4 build/py/pfenv.o
                0x000188c4                pfenv_print_strn
 .text.pfenv_print_int
                0x00018988      0x144 build/py/pfenv.o
                0x00018988                pfenv_print_int
 .text.pfenv_print_mp_int
                0x00018acc      0x23c build/py/pfenv.o
                0x00018acc                pfenv_print_mp_int
 .text.pfenv_print_float
                0x00018d08       0xc8 build/py/pfenv.o
                0x00018d08                pfenv_print_float
 .text.pfenv_vprintf
                0x00018dd0      0x25c build/py/pfenv_printf.o
                0x00018dd0                pfenv_vprintf
 .text.printf_wrapper
                0x0001902c       0x1a build/py/pfenv_printf.o
                0x0001902c                printf_wrapper
 .text.HAL_FTM_Base_Init
                0x00019046       0x26 build/hal_ftm.o
                0x00019046                HAL_FTM_Base_Init
 .text.HAL_FTM_Base_Start
                0x0001906c       0x1c build/hal_ftm.o
                0x0001906c                HAL_FTM_Base_Start
 .text.HAL_FTM_Base_Start_IT
                0x00019088       0x14 build/hal_ftm.o
                0x00019088                HAL_FTM_Base_Start_IT
 .text.HAL_FTM_Base_DeInit
                0x0001909c       0x10 build/hal_ftm.o
                0x0001909c                HAL_FTM_Base_DeInit
 .text.HAL_FTM_OC_ConfigChannel
                0x000190ac       0x34 build/hal_ftm.o
                0x000190ac                HAL_FTM_OC_ConfigChannel
 .text.HAL_FTM_OC_Start
                0x000190e0        0x2 build/hal_ftm.o
                0x000190e0                HAL_FTM_OC_Start
 .text.HAL_FTM_OC_Start_IT
                0x000190e2       0x10 build/hal_ftm.o
                0x000190e2                HAL_FTM_OC_Start_IT
 .text.HAL_FTM_PWM_ConfigChannel
                0x000190f2       0x34 build/hal_ftm.o
                0x000190f2                HAL_FTM_PWM_ConfigChannel
 .text.HAL_FTM_PWM_Start
                0x00019126        0x2 build/hal_ftm.o
                0x00019126                HAL_FTM_PWM_Start
 .text.HAL_FTM_PWM_Start_IT
                0x00019128       0x10 build/hal_ftm.o
                0x00019128                HAL_FTM_PWM_Start_IT
 .text.HAL_FTM_IC_ConfigChannel
                0x00019138       0x12 build/hal_ftm.o
                0x00019138                HAL_FTM_IC_ConfigChannel
 .text.HAL_FTM_IC_Start
                0x0001914a        0x2 build/hal_ftm.o
                0x0001914a                HAL_FTM_IC_Start
 .text.HAL_FTM_IC_Start_IT
                0x0001914c       0x10 build/hal_ftm.o
                0x0001914c                HAL_FTM_IC_Start_IT
 .text.HAL_GPIO_Init
                0x0001915c       0xd6 build/hal_gpio.o
                0x0001915c                HAL_GPIO_Init
 *fill*         0x00019232        0x2 ff
 .text.pyb_help
                0x00019234       0xc4 build/help.o
 .text.mp_import_stat
                0x000192f8       0x20 build/import.o
                0x000192f8                mp_import_stat
 .text.pyb_source_dir
                0x00019318       0x28 build/main.o
                0x00019318                pyb_source_dir
 .text.pyb_main
                0x00019340       0x28 build/main.o
                0x00019340                pyb_main
 .text.pyb_usb_mode
                0x00019368       0x28 build/main.o
 .text.flash_error
                0x00019390       0x2c build/main.o
                0x00019390                flash_error
 .text.__fatal_error
                0x000193bc       0x80 build/main.o
                0x000193bc                __fatal_error
 .text.nlr_jump_fail
                0x0001943c       0x18 build/main.o
                0x0001943c                nlr_jump_fail
 .text.__assert_func
                0x00019454       0x20 build/main.o
                0x00019454                __assert_func
 .text.startup.main
                0x00019474       0xf0 build/main.o
                0x00019474                main
 .text.__libc_init_array
                0x00019564        0x2 build/main.o
                0x00019564                __libc_init_array
 .text.ultoa    0x00019566       0x3c build/main.o
                0x00019566                ultoa
 *fill*         0x000195a2        0x2 ff
 .text.led_obj_print
                0x000195a4       0x14 build/led.o
                0x000195a4                led_obj_print
 .text.led_obj_make_new
                0x000195b8       0x40 build/led.o
 .text.led_obj_off
                0x000195f8       0x1c build/led.o
                0x000195f8                led_obj_off
 .text.led_init
                0x00019614       0x28 build/led.o
                0x00019614                led_init
 .text.led_state
                0x0001963c       0x18 build/led.o
                0x0001963c                led_state
 .text.led_obj_on
                0x00019654       0x14 build/led.o
                0x00019654                led_obj_on
 .text.led_toggle
                0x00019668       0x1c build/led.o
                0x00019668                led_toggle
 .text.led_obj_toggle
                0x00019684       0x10 build/led.o
                0x00019684                led_obj_toggle
 .text.mp_lexer_new_from_file
                0x00019694       0x28 build/lexermemzip.o
                0x00019694                mp_lexer_new_from_file
 .text.memzip_find_file_header
                0x000196bc       0x44 build/memzip.o
                0x000196bc                memzip_find_file_header
 .text.memzip_is_dir
                0x00019700       0x6c build/memzip.o
                0x00019700                memzip_is_dir
 .text.memzip_locate
                0x0001976c       0x30 build/memzip.o
                0x0001976c                memzip_locate
 .text.memzip_stat
                0x0001979c       0x48 build/memzip.o
                0x0001979c                memzip_stat
 .text.pyb_sync
                0x000197e4       0x14 build/modpyb.o
 .text.pyb_hid_send_report
                0x000197f8       0x14 build/modpyb.o
 .text.pyb_standby
                0x0001980c       0x14 build/modpyb.o
 .text.pyb_stop
                0x00019820       0x14 build/modpyb.o
 .text.pyb_bootloader
                0x00019834       0x14 build/modpyb.o
 .text.pyb_udelay
                0x00019848       0x18 build/modpyb.o
 .text.pyb_delay
                0x00019860       0x18 build/modpyb.o
 .text.pyb_elapsed_micros
                0x00019878       0x1a build/modpyb.o
 .text.pyb_micros
                0x00019892        0xe build/modpyb.o
 .text.pyb_elapsed_millis
                0x000198a0       0x1a build/modpyb.o
 .text.pyb_millis
                0x000198ba        0xe build/modpyb.o
 .text.pyb_have_cdc
                0x000198c8       0x1c build/modpyb.o
 .text.pyb_freq
                0x000198e4       0x34 build/modpyb.o
 .text.pyb_unique_id
                0x00019918        0xc build/modpyb.o
 .text.pyb_info
                0x00019924      0x1ac build/modpyb.o
 .text.pin_get_mode
                0x00019ad0       0x5a build/pin_defs_teensy.o
                0x00019ad0                pin_get_mode
 .text.pin_get_pull
                0x00019b2a       0x46 build/pin_defs_teensy.o
                0x00019b2a                pin_get_pull
 .text.pin_get_af
                0x00019b70       0x34 build/pin_defs_teensy.o
                0x00019b70                pin_get_af
 .text.HAL_GetTick
                0x00019ba4       0x14 build/teensy_hal.o
                0x00019ba4                HAL_GetTick
 .text.HAL_Delay
                0x00019bb8        0x4 build/teensy_hal.o
                0x00019bb8                HAL_Delay
 .text.mp_hal_set_interrupt_char
                0x00019bbc        0x2 build/teensy_hal.o
                0x00019bbc                mp_hal_set_interrupt_char
 *fill*         0x00019bbe        0x2 ff
 .text.mp_hal_stdin_rx_chr
                0x00019bc0       0x38 build/teensy_hal.o
                0x00019bc0                mp_hal_stdin_rx_chr
 .text.mp_hal_stdout_tx_strn
                0x00019bf8       0x30 build/teensy_hal.o
                0x00019bf8                mp_hal_stdout_tx_strn
 .text.mp_hal_stdout_tx_str
                0x00019c28       0x14 build/teensy_hal.o
                0x00019c28                mp_hal_stdout_tx_str
 .text.mp_hal_stdout_tx_strn_cooked
                0x00019c3c       0x30 build/teensy_hal.o
                0x00019c3c                mp_hal_stdout_tx_strn_cooked
 .text.pyb_timer_channel_callback
                0x00019c6c       0x94 build/timer.o
 .text.pyb_timer_period
                0x00019d00       0x30 build/timer.o
 .text.pyb_timer_counter
                0x00019d30       0x2c build/timer.o
 .text.pyb_timer_channel_capture_compare
                0x00019d5c       0x3c build/timer.o
 .text.pyb_timer_channel_print
                0x00019d98       0x30 build/timer.o
 .text.ftm_handle_irq_callback
                0x00019dc8       0x70 build/timer.o
 .text.pyb_timer_print
                0x00019e38       0x50 build/timer.o
 .text.pyb_timer_callback
                0x00019e88       0x64 build/timer.o
 .text.pyb_timer_deinit
                0x00019eec       0x34 build/timer.o
 .text.compute_pwm_value_from_percent
                0x00019f20       0x74 build/timer.o
 .text.pyb_timer_channel
                0x00019f94      0x258 build/timer.o
 .text.ftm_irq_handler.part.4
                0x0001a1ec      0x10c build/timer.o
 .text.pyb_timer_channel_pulse_width_percent
                0x0001a2f8       0x70 build/timer.o
 .text.get_prescaler_shift
                0x0001a368       0x2c build/timer.o
                0x0001a368                get_prescaler_shift
 .text.pyb_timer_prescaler
                0x0001a394       0x3c build/timer.o
 .text.pyb_timer_init_helper
                0x0001a3d0       0xec build/timer.o
 .text.pyb_timer_init
                0x0001a4bc       0x14 build/timer.o
 .text.pyb_timer_make_new
                0x0001a4d0       0xc8 build/timer.o
 .text.ftm0_isr
                0x0001a598        0x6 build/timer.o
                0x0001a598                ftm0_isr
 .text.ftm1_isr
                0x0001a59e        0x6 build/timer.o
                0x0001a59e                ftm1_isr
 .text.ftm2_isr
                0x0001a5a4        0x6 build/timer.o
                0x0001a5a4                ftm2_isr
 *fill*         0x0001a5aa        0x2 ff
 .text.pyb_uart_deinit
                0x0001a5ac        0x8 build/uart.o
 .text.pyb_uart_any
                0x0001a5b4        0x8 build/uart.o
 .text.pyb_uart_recv
                0x0001a5bc        0x8 build/uart.o
 .text.pyb_uart_send
                0x0001a5c4       0x24 build/uart.o
 .text.pyb_uart_print
                0x0001a5e8       0x18 build/uart.o
 .text.pyb_uart_make_new
                0x0001a600       0x60 build/uart.o
 .text.pyb_uart_init
                0x0001a660       0x24 build/uart.o
 .text.uart_rx_any
                0x0001a684        0x4 build/uart.o
                0x0001a684                uart_rx_any
 .text.uart_rx_char
                0x0001a688        0x4 build/uart.o
                0x0001a688                uart_rx_char
 .text.uart_tx_strn
                0x0001a68c        0x2 build/uart.o
                0x0001a68c                uart_tx_strn
 .text.uart_tx_strn_cooked
                0x0001a68e        0x2 build/uart.o
                0x0001a68e                uart_tx_strn_cooked
 .text.usb_vcp_is_connected
                0x0001a690       0x24 build/usb.o
                0x0001a690                usb_vcp_is_connected
 .text.usb_vcp_is_enabled
                0x0001a6b4        0x4 build/usb.o
                0x0001a6b4                usb_vcp_is_enabled
 .text.usb_vcp_recv_byte
                0x0001a6b8       0x14 build/usb.o
                0x0001a6b8                usb_vcp_recv_byte
 .text.usb_vcp_send_strn
                0x0001a6cc        0x4 build/usb.o
                0x0001a6cc                usb_vcp_send_strn
 .text.usb_vcp_send_strn_cooked
                0x0001a6d0       0x28 build/usb.o
                0x0001a6d0                usb_vcp_send_strn_cooked
 .text.gc_collect
                0x0001a6f8       0x28 build/stmhal/gccollect.o
                0x0001a6f8                gc_collect
 .text.mp_builtin_input
                0x0001a720       0x4c build/stmhal/input.o
 .text.pyb_wfi  0x0001a76c        0xc build/stmhal/irq.o
 .text.pyb_disable_irq
                0x0001a778       0x1c build/stmhal/irq.o
 .text.pyb_enable_irq
                0x0001a794       0x1c build/stmhal/irq.o
 .text.pin_mapper
                0x0001a7b0       0x1c build/stmhal/pin.o
 .text.pin_map_dict
                0x0001a7cc       0x1c build/stmhal/pin.o
 .text.pin_low  0x0001a7e8       0x10 build/stmhal/pin.o
 .text.pin_high
                0x0001a7f8       0x10 build/stmhal/pin.o
 .text.pin_name
                0x0001a808        0xa build/stmhal/pin.o
 .text.pin_port
                0x0001a812        0xe build/stmhal/pin.o
 .text.pin_pin  0x0001a820        0xe build/stmhal/pin.o
 .text.pin_gpio
                0x0001a82e        0xa build/stmhal/pin.o
 .text.pin_af_index
                0x0001a838        0xa build/stmhal/pin.o
 .text.pin_af_name
                0x0001a842        0xa build/stmhal/pin.o
 .text.pin_af_reg
                0x0001a84c        0xa build/stmhal/pin.o
 *fill*         0x0001a856        0x2 ff
 .text.pin_obj_init_helper
                0x0001a858       0x8c build/stmhal/pin.o
 .text.pin_obj_init
                0x0001a8e4       0x14 build/stmhal/pin.o
 .text.pin_value
                0x0001a8f8       0x3c build/stmhal/pin.o
 .text.pin_af   0x0001a934        0xe build/stmhal/pin.o
 .text.pin_pull
                0x0001a942        0xe build/stmhal/pin.o
 .text.pin_mode
                0x0001a950        0xe build/stmhal/pin.o
 .text.pin_af_list
                0x0001a95e       0x2c build/stmhal/pin.o
 *fill*         0x0001a98a        0x2 ff
 .text.pin_names
                0x0001a98c       0x58 build/stmhal/pin.o
 .text.pin_af_obj_print
                0x0001a9e4       0x1c build/stmhal/pin.o
 .text.pin_print
                0x0001aa00       0xd0 build/stmhal/pin.o
 .text.pin_debug
                0x0001aad0       0x34 build/stmhal/pin.o
 .text.pin_init0
                0x0001ab04       0x20 build/stmhal/pin.o
                0x0001ab04                pin_init0
 .text.pin_find
                0x0001ab24      0x178 build/stmhal/pin.o
                0x0001ab24                pin_find
 .text.pin_make_new
                0x0001ac9c       0x46 build/stmhal/pin.o
 *fill*         0x0001ace2        0x2 ff
 .text.pin_named_pins_obj_print
                0x0001ace4       0x1c build/stmhal/pin_named_pins.o
 .text.pin_find_named_pin
                0x0001ad00       0x16 build/stmhal/pin_named_pins.o
                0x0001ad00                pin_find_named_pin
 .text.pin_find_af
                0x0001ad16       0x2a build/stmhal/pin_named_pins.o
                0x0001ad16                pin_find_af
 .text.pin_find_af_by_index
                0x0001ad40       0x24 build/stmhal/pin_named_pins.o
                0x0001ad40                pin_find_af_by_index
 .text.stdout_print_strn
                0x0001ad64        0x8 build/stmhal/printf.o
 .text.strn_print_strn
                0x0001ad6c       0x22 build/stmhal/printf.o
 *fill*         0x0001ad8e        0x2 ff
 .text.printf   0x0001ad90       0x20 build/stmhal/printf.o
                0x0001ad90                printf
 .text.vprintf  0x0001adb0       0x10 build/stmhal/printf.o
                0x0001adb0                vprintf
 .text.putchar  0x0001adc0       0x1a build/stmhal/printf.o
                0x0001adc0                putchar
 .text.puts     0x0001adda       0x24 build/stmhal/printf.o
                0x0001adda                puts
 *fill*         0x0001adfe        0x2 ff
 .text.vsnprintf
                0x0001ae00       0x34 build/stmhal/printf.o
                0x0001ae00                vsnprintf
 .text.snprintf
                0x0001ae34       0x1a build/stmhal/printf.o
                0x0001ae34                snprintf
 *fill*         0x0001ae4e        0x2 ff
 .text.parse_compile_execute
                0x0001ae50       0xfc build/stmhal/pyexec.o
 .text.pyb_set_repl_info
                0x0001af4c       0x1c build/stmhal/pyexec.o
                0x0001af4c                pyb_set_repl_info
 .text.pyexec_raw_repl
                0x0001af68       0xb8 build/stmhal/pyexec.o
                0x0001af68                pyexec_raw_repl
 .text.pyexec_friendly_repl
                0x0001b020       0xe8 build/stmhal/pyexec.o
                0x0001b020                pyexec_friendly_repl
 .text.pyexec_file
                0x0001b108       0x28 build/stmhal/pyexec.o
                0x0001b108                pyexec_file
 .text.stdio_obj_print
                0x0001b130       0x14 build/stmhal/pybstdio.o
                0x0001b130                stdio_obj_print
 .text.stdio_obj___exit__
                0x0001b144        0x8 build/stmhal/pybstdio.o
 .text.stdio_write
                0x0001b14c       0x22 build/stmhal/pybstdio.o
 .text.stdio_read
                0x0001b16e       0x2e build/stmhal/pybstdio.o
 .text.memcpy   0x0001b19c       0x54 build/stmhal/string0.o
                0x0001b19c                memcpy
 .text.memmove  0x0001b1f0       0x2e build/stmhal/string0.o
                0x0001b1f0                memmove
 .text.memset   0x0001b21e       0x44 build/stmhal/string0.o
                0x0001b21e                memset
 .text.memcmp   0x0001b262       0x24 build/stmhal/string0.o
                0x0001b262                memcmp
 .text.strlen   0x0001b286        0xe build/stmhal/string0.o
                0x0001b286                strlen
 .text.strcmp   0x0001b294       0x2e build/stmhal/string0.o
                0x0001b294                strcmp
 .text.strncmp  0x0001b2c2       0x3a build/stmhal/string0.o
                0x0001b2c2                strncmp
 .text.strchr   0x0001b2fc       0x1a build/stmhal/string0.o
                0x0001b2fc                strchr
 *fill*         0x0001b316        0x2 ff
 .text          0x0001b318       0x64 build/stmhal/gchelper.o
                0x0001b318                gc_helper_get_regs_and_sp
                0x0001b344                gc_helper_get_regs_and_clean_stack
 .text.systick_default_isr
                0x0001b37c       0x10 build/core/mk20dx128.o
                0x0001b37c                systick_isr
                0x0001b37c                systick_default_isr
 .text.fault_isr
                0x0001b38c       0x34 build/core/mk20dx128.o
                0x0001b38c                fault_isr
 .text.unused_isr
                0x0001b3c0        0x6 build/core/mk20dx128.o
                0x0001b3c0                adc0_isr
                0x0001b3c0                hard_fault_isr
                0x0001b3c0                dma_ch6_isr
                0x0001b3c0                uart0_lon_isr
                0x0001b3c0                dma_ch8_isr
                0x0001b3c0                dma_error_isr
                0x0001b3c0                i2c0_isr
                0x0001b3c0                spi1_isr
                0x0001b3c0                uart3_status_isr
                0x0001b3c0                mcm_isr
                0x0001b3c0                uart1_status_isr
                0x0001b3c0                bus_fault_isr
                0x0001b3c0                watchdog_isr
                0x0001b3c0                i2c1_isr
                0x0001b3c0                dma_ch11_isr
                0x0001b3c0                i2c2_isr
                0x0001b3c0                pit1_isr
                0x0001b3c0                dma_ch4_isr
                0x0001b3c0                software_isr
                0x0001b3c0                dma_ch7_isr
                0x0001b3c0                lptmr_isr
                0x0001b3c0                uart5_status_isr
                0x0001b3c0                dma_ch9_isr
                0x0001b3c0                pit2_isr
                0x0001b3c0                pit0_isr
                0x0001b3c0                can0_wakeup_isr
                0x0001b3c0                flash_cmd_isr
                0x0001b3c0                uart2_status_isr
                0x0001b3c0                svcall_isr
                0x0001b3c0                dma_ch15_isr
                0x0001b3c0                uart1_error_isr
                0x0001b3c0                unused_isr
                0x0001b3c0                spi0_isr
                0x0001b3c0                dma_ch3_isr
                0x0001b3c0                flash_error_isr
                0x0001b3c0                uart5_error_isr
                0x0001b3c0                rtc_seconds_isr
                0x0001b3c0                pdb_isr
                0x0001b3c0                usage_fault_isr
                0x0001b3c0                dac1_isr
                0x0001b3c0                dma_ch14_isr
                0x0001b3c0                rtc_alarm_isr
                0x0001b3c0                dma_ch2_isr
                0x0001b3c0                dma_ch13_isr
                0x0001b3c0                uart2_error_isr
                0x0001b3c0                usb_charge_isr
                0x0001b3c0                cmt_isr
                0x0001b3c0                ftm3_isr
                0x0001b3c0                tsi0_isr
                0x0001b3c0                spi2_isr
                0x0001b3c0                can0_bus_off_isr
                0x0001b3c0                uart3_error_isr
                0x0001b3c0                low_voltage_isr
                0x0001b3c0                can0_error_isr
                0x0001b3c0                dma_ch12_isr
                0x0001b3c0                pit3_isr
                0x0001b3c0                memmanage_fault_isr
                0x0001b3c0                debugmonitor_isr
                0x0001b3c0                cmp1_isr
                0x0001b3c0                i2s0_rx_isr
                0x0001b3c0                uart4_error_isr
                0x0001b3c0                can0_message_isr
                0x0001b3c0                nmi_isr
                0x0001b3c0                sdhc_isr
                0x0001b3c0                dma_ch10_isr
                0x0001b3c0                uart0_error_isr
                0x0001b3c0                i2s0_tx_isr
                0x0001b3c0                adc1_isr
                0x0001b3c0                cmp0_isr
                0x0001b3c0                dac0_isr
                0x0001b3c0                uart0_status_isr
                0x0001b3c0                mcg_isr
                0x0001b3c0                dma_ch1_isr
                0x0001b3c0                dma_ch5_isr
                0x0001b3c0                can0_rx_warn_isr
                0x0001b3c0                can0_tx_warn_isr
                0x0001b3c0                uart4_status_isr
                0x0001b3c0                cmp2_isr
                0x0001b3c0                pendablesrvreq_isr
                0x0001b3c0                wakeup_isr
                0x0001b3c0                dma_ch0_isr
 *fill*         0x0001b3c6        0x2 ff
 .text.startup_default_early_hook
                0x0001b3c8        0xc build/core/mk20dx128.o
                0x0001b3c8                startup_early_hook
 .text.startup_default_late_hook
                0x0001b3d4        0x2 build/core/mk20dx128.o
                0x0001b3d4                startup_late_hook
 *fill*         0x0001b3d6        0x2 ff
 .text.init_pin_interrupts
                0x0001b3d8       0x28 build/core/pins_teensy.o
                0x0001b3d8                init_pin_interrupts
 .text.porta_isr
                0x0001b400       0x50 build/core/pins_teensy.o
                0x0001b400                porta_isr
 .text.portb_isr
                0x0001b450       0x88 build/core/pins_teensy.o
                0x0001b450                portb_isr
 .text.portc_isr
                0x0001b4d8       0xbc build/core/pins_teensy.o
                0x0001b4d8                portc_isr
 .text.portd_isr
                0x0001b594       0x84 build/core/pins_teensy.o
                0x0001b594                portd_isr
 .text.porte_isr
                0x0001b618       0x30 build/core/pins_teensy.o
                0x0001b618                porte_isr
 .text.rtc_set  0x0001b648       0x20 build/core/pins_teensy.o
                0x0001b648                rtc_set
 .text.pinMode  0x0001b668       0x38 build/core/pins_teensy.o
                0x0001b668                pinMode
 .text.micros   0x0001b6a0       0x3c build/core/pins_teensy.o
                0x0001b6a0                micros
 .text.delay    0x0001b6dc       0x2a build/core/pins_teensy.o
                0x0001b6dc                delay
 *fill*         0x0001b706        0x2 ff
 .text._init_Teensyduino_internal_
                0x0001b708       0x80 build/core/pins_teensy.o
                0x0001b708                _init_Teensyduino_internal_
 .text.analog_init
                0x0001b788       0xc0 build/core/analog.o
                0x0001b788                analog_init
 .text.usb_init_serialnumber
                0x0001b848       0x70 build/core/usb_desc.o
                0x0001b848                usb_init_serialnumber
 .text.endpoint0_transmit
                0x0001b8b8       0x40 build/core/usb_dev.o
 .text.usb_rx   0x0001b8f8       0x38 build/core/usb_dev.o
                0x0001b8f8                usb_rx
 .text.usb_tx_packet_count
                0x0001b930       0x28 build/core/usb_dev.o
                0x0001b930                usb_tx_packet_count
 .text.usb_rx_memory
                0x0001b958       0x7c build/core/usb_dev.o
                0x0001b958                usb_rx_memory
 .text.usb_tx   0x0001b9d4       0x80 build/core/usb_dev.o
                0x0001b9d4                usb_tx
 .text.usb_isr  0x0001ba54      0x638 build/core/usb_dev.o
                0x0001ba54                usb_isr
 .text.usb_init
                0x0001c08c       0x9c build/core/usb_dev.o
                0x0001c08c                usb_init
 .text.usb_malloc
                0x0001c128       0x3c build/core/usb_mem.o
                0x0001c128                usb_malloc
 .text.usb_free
                0x0001c164       0x44 build/core/usb_mem.o
                0x0001c164                usb_free
 .text.usb_serial_getchar
                0x0001c1a8       0x50 build/core/usb_serial.o
                0x0001c1a8                usb_serial_getchar
 .text.usb_serial_write
                0x0001c1f8       0xd0 build/core/usb_serial.o
                0x0001c1f8                usb_serial_write
 .text.usb_serial_putchar
                0x0001c2c8       0x12 build/core/usb_serial.o
                0x0001c2c8                usb_serial_putchar
 *fill*         0x0001c2da        0x2 ff
 .text.usb_serial_flush_callback
                0x0001c2dc       0x44 build/core/usb_serial.o
                0x0001c2dc                usb_serial_flush_callback
 .text.yield    0x0001c320        0x2 build/core/yield.o
                0x0001c320                yield
 *fill*         0x0001c322        0x2 ff
 .text.move_cursor_back.part.0
                0x0001c324       0x30 build/lib/mp-readline/readline.o
 .text.readline_init0
                0x0001c354       0x10 build/lib/mp-readline/readline.o
                0x0001c354                readline_init0
 .text.readline_process_char
                0x0001c364      0x298 build/lib/mp-readline/readline.o
                0x0001c364                readline_process_char
 .text.readline_init
                0x0001c5fc       0x1c build/lib/mp-readline/readline.o
                0x0001c5fc                readline_init
 .text.readline
                0x0001c618       0x1e build/lib/mp-readline/readline.o
                0x0001c618                readline
 *fill*         0x0001c636        0x2 ff
 .text.asinhf   0x0001c638       0xe4 /home/dhylands/gcc-arm-none-eabi/bin/../lib/gcc/arm-none-eabi/4.8.3/../../../../arm-none-eabi/lib/armv7e-m//libm.a(lib_a-sf_asinh.o)
                0x0001c638                asinhf
 .text.atanf    0x0001c71c      0x22c /home/dhylands/gcc-arm-none-eabi/bin/../lib/gcc/arm-none-eabi/4.8.3/../../../../arm-none-eabi/lib/armv7e-m//libm.a(lib_a-sf_atan.o)
                0x0001c71c                atanf
 .text.ceilf    0x0001c948       0x88 /home/dhylands/gcc-arm-none-eabi/bin/../lib/gcc/arm-none-eabi/4.8.3/../../../../arm-none-eabi/lib/armv7e-m//libm.a(lib_a-sf_ceil.o)
                0x0001c948                ceilf
 .text.cosf     0x0001c9d0       0x6c /home/dhylands/gcc-arm-none-eabi/bin/../lib/gcc/arm-none-eabi/4.8.3/../../../../arm-none-eabi/lib/armv7e-m//libm.a(lib_a-sf_cos.o)
                0x0001c9d0                cosf
 .text.expm1f   0x0001ca3c      0x30c /home/dhylands/gcc-arm-none-eabi/bin/../lib/gcc/arm-none-eabi/4.8.3/../../../../arm-none-eabi/lib/armv7e-m//libm.a(lib_a-sf_expm1.o)
                0x0001ca3c                expm1f
 .text.fabsf    0x0001cd48        0x8 /home/dhylands/gcc-arm-none-eabi/bin/../lib/gcc/arm-none-eabi/4.8.3/../../../../arm-none-eabi/lib/armv7e-m//libm.a(lib_a-sf_fabs.o)
                0x0001cd48                fabsf
 .text.floorf   0x0001cd50       0x8c /home/dhylands/gcc-arm-none-eabi/bin/../lib/gcc/arm-none-eabi/4.8.3/../../../../arm-none-eabi/lib/armv7e-m//libm.a(lib_a-sf_floor.o)
                0x0001cd50                floorf
 .text.__fpclassifyf
                0x0001cddc       0x34 /home/dhylands/gcc-arm-none-eabi/bin/../lib/gcc/arm-none-eabi/4.8.3/../../../../arm-none-eabi/lib/armv7e-m//libm.a(lib_a-sf_fpclassify.o)
                0x0001cddc                __fpclassifyf
 .text.frexpf   0x0001ce10       0x48 /home/dhylands/gcc-arm-none-eabi/bin/../lib/gcc/arm-none-eabi/4.8.3/../../../../arm-none-eabi/lib/armv7e-m//libm.a(lib_a-sf_frexp.o)
                0x0001ce10                frexpf
 .text.ldexpf   0x0001ce58       0x44 /home/dhylands/gcc-arm-none-eabi/bin/../lib/gcc/arm-none-eabi/4.8.3/../../../../arm-none-eabi/lib/armv7e-m//libm.a(lib_a-sf_ldexp.o)
                0x0001ce58                ldexpf
 .text.log1pf   0x0001ce9c      0x308 /home/dhylands/gcc-arm-none-eabi/bin/../lib/gcc/arm-none-eabi/4.8.3/../../../../arm-none-eabi/lib/armv7e-m//libm.a(lib_a-sf_log1p.o)
                0x0001ce9c                log1pf
 .text.log2f    0x0001d1a4       0x14 /home/dhylands/gcc-arm-none-eabi/bin/../lib/gcc/arm-none-eabi/4.8.3/../../../../arm-none-eabi/lib/armv7e-m//libm.a(lib_a-sf_log2.o)
                0x0001d1a4                log2f
 .text.modff    0x0001d1b8       0x40 /home/dhylands/gcc-arm-none-eabi/bin/../lib/gcc/arm-none-eabi/4.8.3/../../../../arm-none-eabi/lib/armv7e-m//libm.a(lib_a-sf_modf.o)
                0x0001d1b8                modff
 .text.roundf   0x0001d1f8       0x4c /home/dhylands/gcc-arm-none-eabi/bin/../lib/gcc/arm-none-eabi/4.8.3/../../../../arm-none-eabi/lib/armv7e-m//libm.a(lib_a-sf_round.o)
                0x0001d1f8                roundf
 .text.scalbnf  0x0001d244       0xb4 /home/dhylands/gcc-arm-none-eabi/bin/../lib/gcc/arm-none-eabi/4.8.3/../../../../arm-none-eabi/lib/armv7e-m//libm.a(lib_a-sf_scalbn.o)
                0x0001d244                scalbnf
 .text.sinf     0x0001d2f8       0x7c /home/dhylands/gcc-arm-none-eabi/bin/../lib/gcc/arm-none-eabi/4.8.3/../../../../arm-none-eabi/lib/armv7e-m//libm.a(lib_a-sf_sin.o)
                0x0001d2f8                sinf
 .text.tanf     0x0001d374       0x50 /home/dhylands/gcc-arm-none-eabi/bin/../lib/gcc/arm-none-eabi/4.8.3/../../../../arm-none-eabi/lib/armv7e-m//libm.a(lib_a-sf_tan.o)
                0x0001d374                tanf
 .text.tanhf    0x0001d3c4       0xbc /home/dhylands/gcc-arm-none-eabi/bin/../lib/gcc/arm-none-eabi/4.8.3/../../../../arm-none-eabi/lib/armv7e-m//libm.a(lib_a-sf_tanh.o)
                0x0001d3c4                tanhf
 .text.acosf    0x0001d480       0xa0 /home/dhylands/gcc-arm-none-eabi/bin/../lib/gcc/arm-none-eabi/4.8.3/../../../../arm-none-eabi/lib/armv7e-m//libm.a(lib_a-wf_acos.o)
                0x0001d480                acosf
 .text.acoshf   0x0001d520       0x9c /home/dhylands/gcc-arm-none-eabi/bin/../lib/gcc/arm-none-eabi/4.8.3/../../../../arm-none-eabi/lib/armv7e-m//libm.a(lib_a-wf_acosh.o)
                0x0001d520                acoshf
 .text.asinf    0x0001d5bc       0xa0 /home/dhylands/gcc-arm-none-eabi/bin/../lib/gcc/arm-none-eabi/4.8.3/../../../../arm-none-eabi/lib/armv7e-m//libm.a(lib_a-wf_asin.o)
                0x0001d5bc                asinf
 .text.atan2f   0x0001d65c        0x4 /home/dhylands/gcc-arm-none-eabi/bin/../lib/gcc/arm-none-eabi/4.8.3/../../../../arm-none-eabi/lib/armv7e-m//libm.a(lib_a-wf_atan2.o)
                0x0001d65c                atan2f
 .text.atanhf   0x0001d660       0xcc /home/dhylands/gcc-arm-none-eabi/bin/../lib/gcc/arm-none-eabi/4.8.3/../../../../arm-none-eabi/lib/armv7e-m//libm.a(lib_a-wf_atanh.o)
                0x0001d660                atanhf
 .text.coshf    0x0001d72c       0xa8 /home/dhylands/gcc-arm-none-eabi/bin/../lib/gcc/arm-none-eabi/4.8.3/../../../../arm-none-eabi/lib/armv7e-m//libm.a(lib_a-wf_cosh.o)
                0x0001d72c                coshf
 .text.expf     0x0001d7d4       0xe0 /home/dhylands/gcc-arm-none-eabi/bin/../lib/gcc/arm-none-eabi/4.8.3/../../../../arm-none-eabi/lib/armv7e-m//libm.a(lib_a-wf_exp.o)
                0x0001d7d4                expf
 .text.fmodf    0x0001d8b4       0xb0 /home/dhylands/gcc-arm-none-eabi/bin/../lib/gcc/arm-none-eabi/4.8.3/../../../../arm-none-eabi/lib/armv7e-m//libm.a(lib_a-wf_fmod.o)
                0x0001d8b4                fmodf
 .text.logf     0x0001d964       0xd4 /home/dhylands/gcc-arm-none-eabi/bin/../lib/gcc/arm-none-eabi/4.8.3/../../../../arm-none-eabi/lib/armv7e-m//libm.a(lib_a-wf_log.o)
                0x0001d964                logf
 .text.log10f   0x0001da38       0xd4 /home/dhylands/gcc-arm-none-eabi/bin/../lib/gcc/arm-none-eabi/4.8.3/../../../../arm-none-eabi/lib/armv7e-m//libm.a(lib_a-wf_log10.o)
                0x0001da38                log10f
 .text.powf     0x0001db0c      0x310 /home/dhylands/gcc-arm-none-eabi/bin/../lib/gcc/arm-none-eabi/4.8.3/../../../../arm-none-eabi/lib/armv7e-m//libm.a(lib_a-wf_pow.o)
                0x0001db0c                powf
 .text.sinhf    0x0001de1c       0xbc /home/dhylands/gcc-arm-none-eabi/bin/../lib/gcc/arm-none-eabi/4.8.3/../../../../arm-none-eabi/lib/armv7e-m//libm.a(lib_a-wf_sinh.o)
                0x0001de1c                sinhf
 .text.sqrtf    0x0001ded8       0x9c /home/dhylands/gcc-arm-none-eabi/bin/../lib/gcc/arm-none-eabi/4.8.3/../../../../arm-none-eabi/lib/armv7e-m//libm.a(lib_a-wf_sqrt.o)
                0x0001ded8                sqrtf
 .text.__ieee754_acosf
                0x0001df74      0x2d0 /home/dhylands/gcc-arm-none-eabi/bin/../lib/gcc/arm-none-eabi/4.8.3/../../../../arm-none-eabi/lib/armv7e-m//libm.a(lib_a-ef_acos.o)
                0x0001df74                __ieee754_acosf
 .text.__ieee754_acoshf
                0x0001e244       0xc0 /home/dhylands/gcc-arm-none-eabi/bin/../lib/gcc/arm-none-eabi/4.8.3/../../../../arm-none-eabi/lib/armv7e-m//libm.a(lib_a-ef_acosh.o)
                0x0001e244                __ieee754_acoshf
 .text.__ieee754_asinf
                0x0001e304      0x298 /home/dhylands/gcc-arm-none-eabi/bin/../lib/gcc/arm-none-eabi/4.8.3/../../../../arm-none-eabi/lib/armv7e-m//libm.a(lib_a-ef_asin.o)
                0x0001e304                __ieee754_asinf
 .text.__ieee754_atan2f
                0x0001e59c      0x120 /home/dhylands/gcc-arm-none-eabi/bin/../lib/gcc/arm-none-eabi/4.8.3/../../../../arm-none-eabi/lib/armv7e-m//libm.a(lib_a-ef_atan2.o)
                0x0001e59c                __ieee754_atan2f
 .text.__ieee754_atanhf
                0x0001e6bc       0xc0 /home/dhylands/gcc-arm-none-eabi/bin/../lib/gcc/arm-none-eabi/4.8.3/../../../../arm-none-eabi/lib/armv7e-m//libm.a(lib_a-ef_atanh.o)
                0x0001e6bc                __ieee754_atanhf
 .text.__ieee754_coshf
                0x0001e77c       0xe0 /home/dhylands/gcc-arm-none-eabi/bin/../lib/gcc/arm-none-eabi/4.8.3/../../../../arm-none-eabi/lib/armv7e-m//libm.a(lib_a-ef_cosh.o)
                0x0001e77c                __ieee754_coshf
 .text.__ieee754_expf
                0x0001e85c      0x1f8 /home/dhylands/gcc-arm-none-eabi/bin/../lib/gcc/arm-none-eabi/4.8.3/../../../../arm-none-eabi/lib/armv7e-m//libm.a(lib_a-ef_exp.o)
                0x0001e85c                __ieee754_expf
 .text.__ieee754_fmodf
                0x0001ea54      0x104 /home/dhylands/gcc-arm-none-eabi/bin/../lib/gcc/arm-none-eabi/4.8.3/../../../../arm-none-eabi/lib/armv7e-m//libm.a(lib_a-ef_fmod.o)
                0x0001ea54                __ieee754_fmodf
 .text.__ieee754_logf
                0x0001eb58      0x2b8 /home/dhylands/gcc-arm-none-eabi/bin/../lib/gcc/arm-none-eabi/4.8.3/../../../../arm-none-eabi/lib/armv7e-m//libm.a(lib_a-ef_log.o)
                0x0001eb58                __ieee754_logf
 .text.__ieee754_log10f
                0x0001ee10       0xa4 /home/dhylands/gcc-arm-none-eabi/bin/../lib/gcc/arm-none-eabi/4.8.3/../../../../arm-none-eabi/lib/armv7e-m//libm.a(lib_a-ef_log10.o)
                0x0001ee10                __ieee754_log10f
 .text.__ieee754_powf
                0x0001eeb4      0x6f8 /home/dhylands/gcc-arm-none-eabi/bin/../lib/gcc/arm-none-eabi/4.8.3/../../../../arm-none-eabi/lib/armv7e-m//libm.a(lib_a-ef_pow.o)
                0x0001eeb4                __ieee754_powf
 .text.__ieee754_rem_pio2f
                0x0001f5ac      0x2e8 /home/dhylands/gcc-arm-none-eabi/bin/../lib/gcc/arm-none-eabi/4.8.3/../../../../arm-none-eabi/lib/armv7e-m//libm.a(lib_a-ef_rem_pio2.o)
                0x0001f5ac                __ieee754_rem_pio2f
 .text.__ieee754_sinhf
                0x0001f894      0x108 /home/dhylands/gcc-arm-none-eabi/bin/../lib/gcc/arm-none-eabi/4.8.3/../../../../arm-none-eabi/lib/armv7e-m//libm.a(lib_a-ef_sinh.o)
                0x0001f894                __ieee754_sinhf
 .text.__ieee754_sqrtf
                0x0001f99c       0xa8 /home/dhylands/gcc-arm-none-eabi/bin/../lib/gcc/arm-none-eabi/4.8.3/../../../../arm-none-eabi/lib/armv7e-m//libm.a(lib_a-ef_sqrt.o)
                0x0001f99c                __ieee754_sqrtf
 .text.__kernel_cosf
                0x0001fa44      0x188 /home/dhylands/gcc-arm-none-eabi/bin/../lib/gcc/arm-none-eabi/4.8.3/../../../../arm-none-eabi/lib/armv7e-m//libm.a(lib_a-kf_cos.o)
                0x0001fa44                __kernel_cosf
 .text.__kernel_rem_pio2f
                0x0001fbcc      0x660 /home/dhylands/gcc-arm-none-eabi/bin/../lib/gcc/arm-none-eabi/4.8.3/../../../../arm-none-eabi/lib/armv7e-m//libm.a(lib_a-kf_rem_pio2.o)
                0x0001fbcc                __kernel_rem_pio2f
 .text.__kernel_sinf
                0x0002022c       0xec /home/dhylands/gcc-arm-none-eabi/bin/../lib/gcc/arm-none-eabi/4.8.3/../../../../arm-none-eabi/lib/armv7e-m//libm.a(lib_a-kf_sin.o)
                0x0002022c                __kernel_sinf
 .text.__kernel_tanf
                0x00020318      0x274 /home/dhylands/gcc-arm-none-eabi/bin/../lib/gcc/arm-none-eabi/4.8.3/../../../../arm-none-eabi/lib/armv7e-m//libm.a(lib_a-kf_tan.o)
                0x00020318                __kernel_tanf
 .text.matherr  0x0002058c        0x4 /home/dhylands/gcc-arm-none-eabi/bin/../lib/gcc/arm-none-eabi/4.8.3/../../../../arm-none-eabi/lib/armv7e-m//libm.a(lib_a-s_matherr.o)
                0x0002058c                matherr
 .text.nan      0x00020590        0xc /home/dhylands/gcc-arm-none-eabi/bin/../lib/gcc/arm-none-eabi/4.8.3/../../../../arm-none-eabi/lib/armv7e-m//libm.a(lib_a-s_nan.o)
                0x00020590                nan
 .text.rint     0x0002059c      0x118 /home/dhylands/gcc-arm-none-eabi/bin/../lib/gcc/arm-none-eabi/4.8.3/../../../../arm-none-eabi/lib/armv7e-m//libm.a(lib_a-s_rint.o)
                0x0002059c                rint
 .text.copysignf
                0x000206b4        0xc /home/dhylands/gcc-arm-none-eabi/bin/../lib/gcc/arm-none-eabi/4.8.3/../../../../arm-none-eabi/lib/armv7e-m//libm.a(lib_a-sf_copysign.o)
                0x000206b4                copysignf
 .text.finitef  0x000206c0       0x10 /home/dhylands/gcc-arm-none-eabi/bin/../lib/gcc/arm-none-eabi/4.8.3/../../../../arm-none-eabi/lib/armv7e-m//libm.a(lib_a-sf_finite.o)
                0x000206c0                finitef
 .text.nanf     0x000206d0        0x8 /home/dhylands/gcc-arm-none-eabi/bin/../lib/gcc/arm-none-eabi/4.8.3/../../../../arm-none-eabi/lib/armv7e-m//libm.a(lib_a-sf_nan.o)
                0x000206d0                nanf
 .text.__errno  0x000206d8        0xc /home/dhylands/gcc-arm-none-eabi/bin/../lib/gcc/arm-none-eabi/4.8.3/../../../../arm-none-eabi/lib/armv7e-m//libc.a(lib_a-errno.o)
                0x000206d8                __errno
 .text          0x000206e4      0x370 /home/dhylands/gcc-arm-none-eabi/bin/../lib/gcc/arm-none-eabi/4.8.3/armv7e-m//libgcc.a(_arm_addsubdf3.o)
                0x000206e4                __aeabi_drsub
                0x000206ec                __aeabi_dsub
                0x000206ec                __subdf3
                0x000206f0                __adddf3
                0x000206f0                __aeabi_dadd
                0x00020968                __aeabi_ui2d
                0x00020968                __floatunsidf
                0x00020988                __floatsidf
                0x00020988                __aeabi_i2d
                0x000209ac                __extendsfdf2
                0x000209ac                __aeabi_f2d
                0x000209e8                __aeabi_ul2d
                0x000209e8                __floatundidf
                0x000209f8                __floatdidf
                0x000209f8                __aeabi_l2d
 .text          0x00020a54      0x424 /home/dhylands/gcc-arm-none-eabi/bin/../lib/gcc/arm-none-eabi/4.8.3/armv7e-m//libgcc.a(_arm_muldivdf3.o)
                0x00020a54                __aeabi_dmul
                0x00020a54                __muldf3
                0x00020ca8                __aeabi_ddiv
                0x00020ca8                __divdf3
 .text          0x00020e78      0x110 /home/dhylands/gcc-arm-none-eabi/bin/../lib/gcc/arm-none-eabi/4.8.3/armv7e-m//libgcc.a(_arm_cmpdf2.o)
                0x00020e78                __gtdf2
                0x00020e78                __gedf2
                0x00020e80                __ltdf2
                0x00020e80                __ledf2
                0x00020e88                __cmpdf2
                0x00020e88                __eqdf2
                0x00020e88                __nedf2
                0x00020f04                __aeabi_cdrcmple
                0x00020f14                __aeabi_cdcmple
                0x00020f14                __aeabi_cdcmpeq
                0x00020f24                __aeabi_dcmpeq
                0x00020f38                __aeabi_dcmplt
                0x00020f4c                __aeabi_dcmple
                0x00020f60                __aeabi_dcmpge
                0x00020f74                __aeabi_dcmpgt
 .text          0x00020f88       0xa0 /home/dhylands/gcc-arm-none-eabi/bin/../lib/gcc/arm-none-eabi/4.8.3/armv7e-m//libgcc.a(_arm_truncdfsf2.o)
                0x00020f88                __aeabi_d2f
                0x00020f88                __truncdfsf2
 .text          0x00021028      0x21c /home/dhylands/gcc-arm-none-eabi/bin/../lib/gcc/arm-none-eabi/4.8.3/armv7e-m//libgcc.a(_arm_addsubsf3.o)
                0x00021028                __aeabi_frsub
                0x00021030                __subsf3
                0x00021030                __aeabi_fsub
                0x00021034                __aeabi_fadd
                0x00021034                __addsf3
                0x00021194                __aeabi_ui2f
                0x00021194                __floatunsisf
                0x0002119c                __aeabi_i2f
                0x0002119c                __floatsisf
                0x000211b8                __floatundisf
                0x000211b8                __aeabi_ul2f
                0x000211c8                __floatdisf
                0x000211c8                __aeabi_l2f
 .text          0x00021244      0x2a0 /home/dhylands/gcc-arm-none-eabi/bin/../lib/gcc/arm-none-eabi/4.8.3/armv7e-m//libgcc.a(_arm_muldivsf3.o)
                0x00021244                __mulsf3
                0x00021244                __aeabi_fmul
                0x000213ac                __divsf3
                0x000213ac                __aeabi_fdiv
 .text          0x000214e4       0xec /home/dhylands/gcc-arm-none-eabi/bin/../lib/gcc/arm-none-eabi/4.8.3/armv7e-m//libgcc.a(_arm_cmpsf2.o)
                0x000214e4                __gtsf2
                0x000214e4                __gesf2
                0x000214ec                __lesf2
                0x000214ec                __ltsf2
                0x000214f4                __nesf2
                0x000214f4                __eqsf2
                0x000214f4                __cmpsf2
                0x00021554                __aeabi_cfrcmple
                0x0002155c                __aeabi_cfcmple
                0x0002155c                __aeabi_cfcmpeq
                0x0002156c                __aeabi_fcmpeq
                0x00021580                __aeabi_fcmplt
                0x00021594                __aeabi_fcmple
                0x000215a8                __aeabi_fcmpge
                0x000215bc                __aeabi_fcmpgt
 .text          0x000215d0       0x4c /home/dhylands/gcc-arm-none-eabi/bin/../lib/gcc/arm-none-eabi/4.8.3/armv7e-m//libgcc.a(_arm_fixsfsi.o)
                0x000215d0                __fixsfsi
                0x000215d0                __aeabi_f2iz
 .text          0x0002161c       0x40 /home/dhylands/gcc-arm-none-eabi/bin/../lib/gcc/arm-none-eabi/4.8.3/armv7e-m//libgcc.a(_arm_fixunssfsi.o)
                0x0002161c                __aeabi_f2uiz
                0x0002161c                __fixunssfsi
 *(.rodata*)
 .rodata.__func__.7053
                0x0002165c        0xc build/py/gc.o
 .rodata.str1.4
                0x00021668      0x138 build/py/gc.o
 .rodata.__func__.7022
                0x000217a0        0x8 build/py/gc.o
 .rodata.__func__.6912
                0x000217a8        0x8 build/py/gc.o
 .rodata        0x000217b0       0x5b build/py/qstr.o
 .rodata.__func__.6769
                0x0002180b        0xf build/py/qstr.o
 .rodata.__func__.6777
                0x0002181a       0x11 build/py/qstr.o
 *fill*         0x0002182b        0x1 ff
 .rodata.const_pool
                0x0002182c      0x834 build/py/qstr.o
 .rodata.str1.1
                0x00022060     0x14ba build/py/qstr.o
 .rodata.attr   0x0002351a       0x80 build/py/unicode.o
 .rodata.log_base2_floor
                0x0002359a       0x21 build/py/mpz.o
 .rodata.__func__.5213
                0x000235bb        0xd build/py/mpz.o
 .rodata.__func__.5221
                0x000235c8        0xc build/py/mpz.o
 .rodata.__func__.5228
                0x000235d4        0xd build/py/mpz.o
 .rodata.str1.1
                0x000235e1       0x2f build/py/mpz.o
                                 0x31 (size before relaxing)
 .rodata.__func__.5080
                0x00023610        0xd build/py/mpz.o
 .rodata.__func__.5136
                0x0002361d       0x11 build/py/mpz.o
 .rodata.tok_enc_kind
                0x0002362e       0x2b build/py/lexer.o
 .rodata.__func__.6786
                0x00023659       0x19 build/py/lexer.o
 *fill*         0x00023672        0x2 ff
 .rodata.tok_kw
                0x00023674       0x88 build/py/lexer.o
 .rodata.str1.1
                0x000236fc      0x135 build/py/lexer.o
                                0x16a (size before relaxing)
 *fill*         0x00023831        0x1 ff
 .rodata.rule_typedargslist_dbl_star
                0x00023832        0x8 build/py/parse.o
 .rodata.rule_import_stmt
                0x0002383a        0x6 build/py/parse.o
 .rodata.rule_varargslist
                0x00023840        0x6 build/py/parse.o
 .rodata.rule_while_stmt
                0x00023846        0xc build/py/parse.o
 .rodata.rule_subscriptlist
                0x00023852        0x6 build/py/parse.o
 .rodata.rule_term_op
                0x00023858        0xa build/py/parse.o
 .rodata.rule_if_stmt
                0x00023862        0xe build/py/parse.o
 .rodata.rule_power_trailers
                0x00023870        0x4 build/py/parse.o
 .rodata.rule_break_stmt
                0x00023874        0x4 build/py/parse.o
 .rodata.rule_nonlocal_stmt
                0x00023878        0x6 build/py/parse.o
 .rodata.rule_yield_arg
                0x0002387e        0x6 build/py/parse.o
 .rodata.rule_dictorsetmaker_list
                0x00023884        0x6 build/py/parse.o
 .rodata.rule_expr_stmt
                0x0002388a        0x6 build/py/parse.o
 .rodata.rule_decorated
                0x00023890        0x6 build/py/parse.o
 .rodata.rule_stmt
                0x00023896       0x14 build/py/parse.o
 .rodata.__func__.7180
                0x000238aa       0x13 build/py/parse.o
 *fill*         0x000238bd        0x1 ff
 .rodata.rule_with_item_as
                0x000238be        0x6 build/py/parse.o
 .rodata.rule_with_stmt_list
                0x000238c4        0x6 build/py/parse.o
 .rodata.rule_atom_paren
                0x000238ca        0x8 build/py/parse.o
 .rodata.rule_eval_input
                0x000238d2        0x6 build/py/parse.o
 .rodata.__func__.7213
                0x000238d8        0xb build/py/parse.o
 *fill*         0x000238e3        0x1 ff
 .rodata.rule_subscript_3b
                0x000238e4        0x6 build/py/parse.o
 .rodata.rule_subscript_3c
                0x000238ea        0x6 build/py/parse.o
 .rodata.rule_subscript_3d
                0x000238f0        0x6 build/py/parse.o
 .rodata.__func__.7218
                0x000238f6        0xc build/py/parse.o
 .rodata.rule_testlist_comp
                0x00023902        0x6 build/py/parse.o
 .rodata.rule_atom_brace
                0x00023908        0x8 build/py/parse.o
 .rodata.rule_global_stmt
                0x00023910        0x6 build/py/parse.o
 .rodata.rule_dotted_as_names
                0x00023916        0x6 build/py/parse.o
 .rodata.rule_atom_string
                0x0002391c        0x4 build/py/parse.o
 .rodata.rule_comp_op
                0x00023920       0x14 build/py/parse.o
 .rodata.rule_yield_expr
                0x00023934        0x6 build/py/parse.o
 .rodata.rule_varargslist_star
                0x0002393a        0x6 build/py/parse.o
 .rodata.rule_if_stmt_elif
                0x00023940        0xa build/py/parse.o
 .rodata.rule_trailer_period
                0x0002394a        0x6 build/py/parse.o
 .rodata.rule_file_input_2
                0x00023950        0x4 build/py/parse.o
 .rodata.rule_simple_stmt
                0x00023954        0x6 build/py/parse.o
 .rodata.rule_flow_stmt
                0x0002395a        0xc build/py/parse.o
 .rodata.rule_dotted_name
                0x00023966        0x6 build/py/parse.o
 .rodata.rule_arglist_dbl_star
                0x0002396c        0x6 build/py/parse.o
 .rodata.rule_try_stmt
                0x00023972        0xa build/py/parse.o
 .rodata.rule_lambdef_nocond
                0x0002397c        0xa build/py/parse.o
 .rodata.rule_factor_op
                0x00023986        0x8 build/py/parse.o
 .rodata.rule_import_as_names_paren
                0x0002398e        0x8 build/py/parse.o
 .rodata.rule_raise_stmt_from
                0x00023996        0x6 build/py/parse.o
 .rodata.rule_and_test
                0x0002399c        0x6 build/py/parse.o
 .rodata.rule_atom_2b
                0x000239a2        0x6 build/py/parse.o
 .rodata.rule_comp_for
                0x000239a8        0xc build/py/parse.o
 .rodata.rule_del_stmt
                0x000239b4        0x6 build/py/parse.o
 .rodata.rule_tfpdef
                0x000239ba        0x6 build/py/parse.o
 .rodata.rule_try_stmt_as_name
                0x000239c0        0x6 build/py/parse.o
 .rodata.rule_arglist_star
                0x000239c6        0x6 build/py/parse.o
 .rodata.rule_file_input
                0x000239cc        0x4 build/py/parse.o
 .rodata.rule_expr_stmt_assign
                0x000239d0        0x6 build/py/parse.o
 *fill*         0x000239d6        0x2 ff
 .rodata.rules  0x000239d8      0x2a8 build/py/parse.o
 .rodata.rule_import_from
                0x00023c80        0xa build/py/parse.o
 .rodata.rule_try_stmt_2
                0x00023c8a        0x6 build/py/parse.o
 .rodata.rule_typedargslist_name
                0x00023c90        0x8 build/py/parse.o
 .rodata.rule_name_list
                0x00023c98        0x6 build/py/parse.o
 .rodata.rule_trailer
                0x00023c9e        0x8 build/py/parse.o
 .rodata.rule_for_stmt
                0x00023ca6       0x10 build/py/parse.o
 .rodata.rule_arglist_2
                0x00023cb6        0x8 build/py/parse.o
 .rodata.rule_testlist_star_expr
                0x00023cbe        0x6 build/py/parse.o
 .rodata.rule_trailer_paren
                0x00023cc4        0x8 build/py/parse.o
 .rodata.rule_expr_stmt_2
                0x00023ccc        0x6 build/py/parse.o
 .rodata.rule_dictorsetmaker_tail
                0x00023cd2        0x6 build/py/parse.o
 .rodata.rule_and_expr
                0x00023cd8        0x6 build/py/parse.o
 .rodata.rule_atom_bracket
                0x00023cde        0x8 build/py/parse.o
 .rodata.rule_testlist_comp_3
                0x00023ce6        0x6 build/py/parse.o
 .rodata.rule_term
                0x00023cec        0x6 build/py/parse.o
 .rodata.rule_dictorsetmaker_item
                0x00023cf2        0x6 build/py/parse.o
 .rodata.rule_typedargslist_equal
                0x00023cf8        0x6 build/py/parse.o
 .rodata.rule_factor_2
                0x00023cfe        0x6 build/py/parse.o
 .rodata.rule_dictorsetmaker
                0x00023d04        0x6 build/py/parse.o
 .rodata.rule_try_stmt_except_list
                0x00023d0a        0x4 build/py/parse.o
 .rodata.rule_trailer_bracket
                0x00023d0e        0x8 build/py/parse.o
 .rodata.rule_suite_block
                0x00023d16        0xa build/py/parse.o
 .rodata.rule_testlist_comp_2
                0x00023d20        0x6 build/py/parse.o
 .rodata.rule_one_or_more_period_or_ellipsis
                0x00023d26        0x4 build/py/parse.o
 .rodata.rule_decorated_body
                0x00023d2a        0x6 build/py/parse.o
 .rodata.rule_exprlist_2
                0x00023d30        0x6 build/py/parse.o
 .rodata.rule_yield_stmt
                0x00023d36        0x4 build/py/parse.o
 .rodata.rule_subscript
                0x00023d3a        0x6 build/py/parse.o
 .rodata.rule_classdef
                0x00023d40        0xc build/py/parse.o
 .rodata.rule_funcdefrettype
                0x00023d4c        0x6 build/py/parse.o
 .rodata.rule_argument
                0x00023d52        0x6 build/py/parse.o
 .rodata.rule_comp_op_is
                0x00023d58        0x6 build/py/parse.o
 .rodata.rule_if_stmt_elif_list
                0x00023d5e        0x4 build/py/parse.o
 .rodata.rule_eval_input_2
                0x00023d62        0x4 build/py/parse.o
 .rodata.rule_varargslist_dbl_star
                0x00023d66        0x6 build/py/parse.o
 .rodata.rule_decorator
                0x00023d6c        0xa build/py/parse.o
 .rodata.rule_import_from_2
                0x00023d76        0x6 build/py/parse.o
 .rodata.rule_import_from_3
                0x00023d7c        0x8 build/py/parse.o
 .rodata.rule_comp_iter
                0x00023d84        0x6 build/py/parse.o
 .rodata.rule_try_stmt_except
                0x00023d8a        0xa build/py/parse.o
 .rodata.rule_test_if_else
                0x00023d94        0xa build/py/parse.o
 .rodata.rule_arith_expr
                0x00023d9e        0x6 build/py/parse.o
 .rodata.rule_sliceop
                0x00023da4        0x6 build/py/parse.o
 .rodata.rule_comparison
                0x00023daa        0x6 build/py/parse.o
 .rodata.rule_test_nocond
                0x00023db0        0x6 build/py/parse.o
 .rodata.rule_raise_stmt
                0x00023db6        0x6 build/py/parse.o
 .rodata.rule_comp_op_is_not
                0x00023dbc        0x4 build/py/parse.o
 .rodata.rule_star_expr
                0x00023dc0        0x6 build/py/parse.o
 .rodata.str1.1
                0x00023dc6      0x178 build/py/parse.o
                                0x17a (size before relaxing)
 .rodata.rule_decorators
                0x00023f3e        0x4 build/py/parse.o
 .rodata.rule_augassign
                0x00023f42       0x1a build/py/parse.o
 .rodata.rule_with_stmt
                0x00023f5c        0xa build/py/parse.o
 .rodata.rule_exprlist
                0x00023f66        0x6 build/py/parse.o
 .rodata.rule_import_as_name
                0x00023f6c        0x6 build/py/parse.o
 .rodata.rule_factor
                0x00023f72        0x6 build/py/parse.o
 .rodata.rule_funcdef
                0x00023f78       0x12 build/py/parse.o
 .rodata.rule_varargslist_item
                0x00023f8a        0x8 build/py/parse.o
 .rodata.rule_typedargslist
                0x00023f92        0x6 build/py/parse.o
 .rodata.rule_testlist
                0x00023f98        0x6 build/py/parse.o
 .rodata.rule_import_from_2b
                0x00023f9e        0x6 build/py/parse.o
 .rodata.rule_string_or_bytes
                0x00023fa4        0x6 build/py/parse.o
 .rodata.rule_comp_op_not_in
                0x00023faa        0x6 build/py/parse.o
 .rodata.rule_not_test
                0x00023fb0        0x6 build/py/parse.o
 .rodata.rule_power
                0x00023fb6        0x8 build/py/parse.o
 .rodata.rule_test
                0x00023fbe        0x6 build/py/parse.o
 .rodata.rule_comp_if
                0x00023fc4        0x8 build/py/parse.o
 .rodata.rule_shift_expr
                0x00023fcc        0x6 build/py/parse.o
 .rodata.rule_testlist_star_expr_2
                0x00023fd2        0x6 build/py/parse.o
 .rodata.rule_continue_stmt
                0x00023fd8        0x4 build/py/parse.o
 .rodata.rule_subscript_3
                0x00023fdc        0x6 build/py/parse.o
 .rodata.rule_assert_stmt_extra
                0x00023fe2        0x6 build/py/parse.o
 .rodata.rule_typedargslist_item
                0x00023fe8        0x8 build/py/parse.o
 .rodata.rule_shift_op
                0x00023ff0        0x6 build/py/parse.o
 .rodata.rule_xor_expr
                0x00023ff6        0x6 build/py/parse.o
 .rodata.rule_subscript_2
                0x00023ffc        0x6 build/py/parse.o
 .rodata.rule_argument_2
                0x00024002        0x6 build/py/parse.o
 .rodata.rule_import_name
                0x00024008        0x6 build/py/parse.o
 .rodata.rule_arith_op
                0x0002400e        0x6 build/py/parse.o
 .rodata.rule_vfpdef
                0x00024014        0x4 build/py/parse.o
 .rodata.rule_dictorsetmaker_list2
                0x00024018        0x6 build/py/parse.o
 .rodata.rule_yield_arg_from
                0x0002401e        0x6 build/py/parse.o
 .rodata.rule_expr
                0x00024024        0x6 build/py/parse.o
 .rodata.rule_expr_stmt_assign_list
                0x0002402a        0x4 build/py/parse.o
 .rodata.rule_typedargslist_star
                0x0002402e        0x6 build/py/parse.o
 .rodata.rule_or_test
                0x00024034        0x6 build/py/parse.o
 .rodata.rule_period_or_ellipsis
                0x0002403a        0x6 build/py/parse.o
 .rodata.rule_compound_stmt
                0x00024040       0x12 build/py/parse.o
 .rodata.rule_single_input
                0x00024052        0x8 build/py/parse.o
 .rodata.rule_power_dbl_star
                0x0002405a        0x6 build/py/parse.o
 .rodata.rule_file_input_3
                0x00024060        0x6 build/py/parse.o
 .rodata.rule_suite
                0x00024066        0x6 build/py/parse.o
 .rodata.rule_with_item
                0x0002406c        0x6 build/py/parse.o
 .rodata.rule_expr_stmt_6
                0x00024072        0x6 build/py/parse.o
 .rodata.rule_not_test_2
                0x00024078        0x6 build/py/parse.o
 .rodata.rule_assert_stmt
                0x0002407e        0x8 build/py/parse.o
 .rodata.rule_lambdef
                0x00024086        0xa build/py/parse.o
 .rodata.rule_dictorsetmaker_colon
                0x00024090        0x6 build/py/parse.o
 .rodata.rule_return_stmt
                0x00024096        0x6 build/py/parse.o
 .rodata.rule_raise_stmt_arg
                0x0002409c        0x6 build/py/parse.o
 .rodata.rule_varargslist_equal
                0x000240a2        0x6 build/py/parse.o
 .rodata.rule_classdef_2
                0x000240a8        0x8 build/py/parse.o
 .rodata.rule_try_stmt_except_and_more
                0x000240b0        0x8 build/py/parse.o
 .rodata.rule_varargslist_name
                0x000240b8        0x6 build/py/parse.o
 .rodata.rule_small_stmt
                0x000240be       0x12 build/py/parse.o
 .rodata.rule_atom
                0x000240d0       0x18 build/py/parse.o
 .rodata.rule_simple_stmt_2
                0x000240e8        0x6 build/py/parse.o
 .rodata.rule_test_if_expr
                0x000240ee        0x6 build/py/parse.o
 .rodata.rule_testlist_comp_3b
                0x000240f4        0x6 build/py/parse.o
 .rodata.rule_testlist_comp_3c
                0x000240fa        0x6 build/py/parse.o
 .rodata.rule_as_name
                0x00024100        0x6 build/py/parse.o
 .rodata.rule_dotted_as_name
                0x00024106        0x6 build/py/parse.o
 .rodata.rule_import_as_names
                0x0002410c        0x6 build/py/parse.o
 .rodata.rule_suite_block_stmts
                0x00024112        0x4 build/py/parse.o
 .rodata.rule_argument_3
                0x00024116        0x6 build/py/parse.o
 .rodata.rule_else_stmt
                0x0002411c        0x8 build/py/parse.o
 .rodata.rule_arglist
                0x00024124        0x6 build/py/parse.o
 .rodata.__func__.7282
                0x0002412a        0x9 build/py/parse.o
 *fill*         0x00024133        0x1 ff
 .rodata.rule_typedargslist_colon
                0x00024134        0x6 build/py/parse.o
 .rodata.rule_pass_stmt
                0x0002413a        0x4 build/py/parse.o
 .rodata.rule_try_stmt_finally
                0x0002413e        0x8 build/py/parse.o
 .rodata.rule_expr_stmt_augassign
                0x00024146        0x6 build/py/parse.o
 .rodata.__func__.5818
                0x0002414c        0xa build/py/scope.o
 .rodata.str1.1
                0x00024156       0x40 build/py/scope.o
                                 0x42 (size before relaxing)
 .rodata.__func__.5862
                0x00024196       0x1c build/py/scope.o
 .rodata.__func__.8684
                0x000241b2       0x13 build/py/compile.o
 .rodata.__func__.9390
                0x000241c5       0x15 build/py/compile.o
 .rodata.__func__.9088
                0x000241da       0x11 build/py/compile.o
 .rodata.__func__.9211
                0x000241eb       0x1b build/py/compile.o
 .rodata.__func__.9031
                0x00024206       0x13 build/py/compile.o
 .rodata.__func__.8913
                0x00024219       0x11 build/py/compile.o
 .rodata.__func__.8633
                0x0002422a       0x12 build/py/compile.o
 .rodata.__func__.9159
                0x0002423c       0x16 build/py/compile.o
 .rodata.__func__.9176
                0x00024252       0x15 build/py/compile.o
 .rodata.__func__.9217
                0x00024267       0x14 build/py/compile.o
 .rodata.__func__.8597
                0x0002427b       0x16 build/py/compile.o
 .rodata.__func__.9183
                0x00024291       0x13 build/py/compile.o
 .rodata.__func__.9167
                0x000242a4       0x13 build/py/compile.o
 .rodata.__func__.9294
                0x000242b7       0x1f build/py/compile.o
 .rodata.CSWTCH.164
                0x000242d6        0xc build/py/compile.o
 .rodata.__func__.8666
                0x000242e2        0xb build/py/compile.o
 .rodata.__func__.8689
                0x000242ed       0x16 build/py/compile.o
 .rodata.__func__.9060
                0x00024303       0x13 build/py/compile.o
 .rodata.__func__.9318
                0x00024316        0xe build/py/compile.o
 .rodata.CSWTCH.177
                0x00024324        0xb build/py/compile.o
 .rodata.str1.1
                0x0002432f      0xeec build/py/compile.o
                                0xf0a (size before relaxing)
 .rodata.__func__.8527
                0x0002521b        0xf build/py/compile.o
 .rodata.__func__.8713
                0x0002522a        0xf build/py/compile.o
 .rodata.__func__.9080
                0x00025239        0xd build/py/compile.o
 .rodata.__func__.8858
                0x00025246       0x21 build/py/compile.o
 .rodata.__func__.8401
                0x00025267        0xf build/py/compile.o
 .rodata.__func__.9305
                0x00025276       0x18 build/py/compile.o
 .rodata.__func__.8980
                0x0002528e       0x15 build/py/compile.o
 .rodata.__func__.9070
                0x000252a3       0x13 build/py/compile.o
 .rodata.__func__.8908
                0x000252b6       0x14 build/py/compile.o
 .rodata.__func__.8551
                0x000252ca        0x9 build/py/compile.o
 .rodata.__func__.9274
                0x000252d3       0x20 build/py/compile.o
 .rodata.__func__.8825
                0x000252f3       0x10 build/py/compile.o
 .rodata.__func__.9140
                0x00025303       0x14 build/py/compile.o
 *fill*         0x00025317        0x1 ff
 .rodata.compile_function
                0x00025318      0x2b8 build/py/compile.o
 .rodata.__func__.9110
                0x000255d0       0x1d build/py/compile.o
 .rodata.__func__.9340
                0x000255ed       0x19 build/py/compile.o
 .rodata.__func__.8751
                0x00025606       0x14 build/py/compile.o
 .rodata.__func__.8889
                0x0002561a       0x13 build/py/compile.o
 .rodata.__func__.8933
                0x0002562d       0x12 build/py/compile.o
 .rodata.__func__.8432
                0x0002563f       0x1e build/py/compile.o
 .rodata.__func__.8940
                0x0002565d       0x12 build/py/compile.o
 .rodata.__func__.8578
                0x0002566f       0x19 build/py/compile.o
 .rodata.__func__.6557
                0x00025688       0x14 build/py/emitcommon.o
 .rodata.__func__.6565
                0x0002569c       0x15 build/py/emitcommon.o
 .rodata.str1.1
                0x000256b1       0x13 build/py/emitcommon.o
                                 0x20 (size before relaxing)
 .rodata.__func__.6573
                0x000256c4       0x16 build/py/emitcommon.o
 .rodata.__func__.6388
                0x000256da       0x16 build/py/emitpass1.o
 .rodata.str1.1
                0x000256f0       0x28 build/py/emitpass1.o
                                 0x33 (size before relaxing)
 .rodata.emit_pass1_method_table
                0x00025718      0x144 build/py/emitpass1.o
                0x00025718                emit_pass1_method_table
 .rodata.__func__.6408
                0x0002585c       0x18 build/py/emitpass1.o
 .rodata.__func__.7875
                0x00025874       0x16 build/py/emitbc.o
 .rodata.__func__.7545
                0x0002588a       0x13 build/py/emitbc.o
 .rodata.__func__.7496
                0x0002589d       0x23 build/py/emitbc.o
 .rodata.__func__.7441
                0x000258c0       0x21 build/py/emitbc.o
 .rodata.__func__.7612
                0x000258e1       0x17 build/py/emitbc.o
 .rodata.__func__.7452
                0x000258f8       0x1f build/py/emitbc.o
 .rodata.__func__.7503
                0x00025917       0x1d build/py/emitbc.o
 .rodata.str1.1
                0x00025934      0x1f0 build/py/emitbc.o
                                0x1f2 (size before relaxing)
 .rodata.__func__.7847
                0x00025b24       0x15 build/py/emitbc.o
 *fill*         0x00025b39        0x3 ff
 .rodata.emit_bc_method_table
                0x00025b3c      0x144 build/py/emitbc.o
                0x00025b3c                emit_bc_method_table
 .rodata.__func__.7584
                0x00025c80        0xc build/py/emitbc.o
 .rodata.__func__.7589
                0x00025c8c       0x15 build/py/emitbc.o
 .rodata.__func__.7423
                0x00025ca1       0x20 build/py/emitbc.o
 .rodata.__func__.5654
                0x00025cc1       0x16 build/py/asmthumb.o
 .rodata.__func__.5708
                0x00025cd7       0x1d build/py/asmthumb.o
 .rodata.__func__.5604
                0x00025cf4       0x17 build/py/asmthumb.o
 .rodata.str1.1
                0x00025d0b      0x134 build/py/asmthumb.o
                                0x136 (size before relaxing)
 .rodata.__func__.5623
                0x00025e3f        0xf build/py/asmthumb.o
 .rodata.__func__.5569
                0x00025e4e       0x15 build/py/asmthumb.o
 .rodata.__func__.5577
                0x00025e63       0x21 build/py/asmthumb.o
 .rodata.__func__.5694
                0x00025e84       0x18 build/py/asmthumb.o
 .rodata.__func__.5641
                0x00025e9c       0x13 build/py/asmthumb.o
 .rodata.__func__.5701
                0x00025eaf       0x18 build/py/asmthumb.o
 .rodata.__func__.7977
                0x00025ec7       0x17 build/py/emitnthumb.o
 .rodata.__func__.7862
                0x00025ede       0x18 build/py/emitnthumb.o
 .rodata.__func__.8130
                0x00025ef6       0x15 build/py/emitnthumb.o
 .rodata.__func__.8084
                0x00025f0b       0x18 build/py/emitnthumb.o
 .rodata.__func__.7867
                0x00025f23       0x18 build/py/emitnthumb.o
 .rodata.__func__.7596
                0x00025f3b       0x17 build/py/emitnthumb.o
 .rodata.__func__.8274
                0x00025f52       0x18 build/py/emitnthumb.o
 .rodata.__func__.8161
                0x00025f6a       0x16 build/py/emitnthumb.o
 .rodata.__func__.7916
                0x00025f80       0x17 build/py/emitnthumb.o
 .rodata.__func__.7881
                0x00025f97       0x1b build/py/emitnthumb.o
 .rodata.__func__.7930
                0x00025fb2       0x16 build/py/emitnthumb.o
 .rodata.__func__.7996
                0x00025fc8       0x19 build/py/emitnthumb.o
 .rodata.__func__.8285
                0x00025fe1       0x1a build/py/emitnthumb.o
 .rodata.__func__.8290
                0x00025ffb       0x18 build/py/emitnthumb.o
 .rodata.__func__.8151
                0x00026013       0x15 build/py/emitnthumb.o
 .rodata.__func__.8254
                0x00026028       0x1a build/py/emitnthumb.o
 .rodata.__func__.8294
                0x00026042       0x17 build/py/emitnthumb.o
 .rodata.__func__.7945
                0x00026059       0x18 build/py/emitnthumb.o
 .rodata.__func__.7936
                0x00026071       0x18 build/py/emitnthumb.o
 .rodata.__func__.8113
                0x00026089       0x19 build/py/emitnthumb.o
 .rodata.__func__.7576
                0x000260a2       0x1c build/py/emitnthumb.o
 .rodata.__func__.7617
                0x000260be        0xd build/py/emitnthumb.o
 *fill*         0x000260cb        0x1 ff
 .rodata.ops.8159
                0x000260cc        0xc build/py/emitnthumb.o
 .rodata.str1.1
                0x000260d8      0x499 build/py/emitnthumb.o
                                0x531 (size before relaxing)
 .rodata.__func__.8207
                0x00026571       0x14 build/py/emitnthumb.o
 .rodata.__func__.8136
                0x00026585       0x15 build/py/emitnthumb.o
 .rodata.__func__.8214
                0x0002659a       0x18 build/py/emitnthumb.o
 .rodata.__func__.7815
                0x000265b2       0x26 build/py/emitnthumb.o
 .rodata.__func__.8177
                0x000265d8       0x18 build/py/emitnthumb.o
 .rodata.__func__.8223
                0x000265f0       0x1c build/py/emitnthumb.o
 .rodata.__func__.8038
                0x0002660c       0x18 build/py/emitnthumb.o
 .rodata.__func__.8044
                0x00026624       0x1a build/py/emitnthumb.o
 .rodata.__func__.7971
                0x0002663e       0x18 build/py/emitnthumb.o
 .rodata.__func__.8188
                0x00026656       0x16 build/py/emitnthumb.o
 .rodata.__func__.8230
                0x0002666c       0x16 build/py/emitnthumb.o
 .rodata.ret.8160
                0x00026682        0x6 build/py/emitnthumb.o
 .rodata.__func__.8196
                0x00026688       0x14 build/py/emitnthumb.o
 .rodata.__func__.8239
                0x0002669c       0x1a build/py/emitnthumb.o
 *fill*         0x000266b6        0x2 ff
 .rodata.emit_native_thumb_method_table
                0x000266b8      0x144 build/py/emitnthumb.o
                0x000266b8                emit_native_thumb_method_table
 .rodata.__func__.8280
                0x000267fc       0x19 build/py/emitnthumb.o
 .rodata.__func__.8247
                0x00026815       0x19 build/py/emitnthumb.o
 .rodata.__func__.7989
                0x0002682e       0x17 build/py/emitnthumb.o
 .rodata.__func__.8109
                0x00026845       0x17 build/py/emitnthumb.o
 .rodata.__func__.7352
                0x0002685c       0x13 build/py/emitnthumb.o
 .rodata.__func__.7856
                0x0002686f       0x18 build/py/emitnthumb.o
 .rodata.format_4_op_table
                0x00026887       0x3c build/py/emitinlinethumb.o
 .rodata.__func__.7708
                0x000268c3       0x18 build/py/emitinlinethumb.o
 .rodata.cc_name_table
                0x000268db       0x2a build/py/emitinlinethumb.o
 .rodata.__func__.7329
                0x00026905       0x13 build/py/emitinlinethumb.o
 .rodata.str1.1
                0x00026918      0x252 build/py/emitinlinethumb.o
                                0x2e7 (size before relaxing)
 *fill*         0x00026b6a        0x2 ff
 .rodata.emit_inline_thumb_method_table
                0x00026b6c       0x1c build/py/emitinlinethumb.o
                0x00026b6c                emit_inline_thumb_method_table
 .rodata.reg_name_table
                0x00026b88       0x54 build/py/emitinlinethumb.o
 .rodata.__func__.7360
                0x00026bdc       0x13 build/py/emitinlinethumb.o
 *fill*         0x00026bef        0x1 ff
 .rodata.format_9_10_op_table
                0x00026bf0       0x30 build/py/emitinlinethumb.o
 .rodata.__func__.7746
                0x00026c20       0x10 build/py/emitinlinethumb.o
 .rodata.g_pos_pow
                0x00026c30       0x18 build/py/formatfloat.o
 .rodata.g_neg_pow
                0x00026c48       0x18 build/py/formatfloat.o
 .rodata.str1.1
                0x00026c60       0x6b build/py/parsenum.o
 .rodata.__func__.7055
                0x00026ccb       0x1b build/py/emitglue.o
 .rodata.__func__.7061
                0x00026ce6       0x1f build/py/emitglue.o
 .rodata.str1.1
                0x00026d05      0x101 build/py/emitglue.o
                                0x103 (size before relaxing)
 .rodata.__func__.7380
                0x00026e06        0xc build/py/runtime.o
 .rodata.__func__.7494
                0x00026e12       0x18 build/py/runtime.o
 .rodata.__func__.7607
                0x00026e2a        0xa build/py/runtime.o
 .rodata.str1.1
                0x00026e34      0x29d build/py/runtime.o
                                0x2b0 (size before relaxing)
 .rodata.__func__.7568
                0x000270d1       0x15 build/py/runtime.o
 .rodata.__func__.7585
                0x000270e6        0xb build/py/runtime.o
 *fill*         0x000270f1        0x3 ff
 .rodata.mp_module___main__
                0x000270f4        0xc build/py/runtime.o
                0x000270f4                mp_module___main__
 .rodata.mp_fun_table
                0x00027100       0x9c build/py/nativeglue.o
                0x00027100                mp_fun_table
 .rodata.__func__.6387
                0x0002719c       0x11 build/py/argcheck.o
 .rodata.str1.1
                0x000271ad      0x16c build/py/argcheck.o
                                0x16e (size before relaxing)
 *fill*         0x00027319        0x3 ff
 .rodata.doubling_primes
                0x0002731c       0x5c build/py/map.o
 .rodata.str1.1
                0x00027378      0x211 build/py/obj.o
                                0x213 (size before relaxing)
 .rodata.__func__.7133
                0x00027589       0x17 build/py/obj.o
 .rodata.mp_identity_obj
                0x000275a0        0xc build/py/obj.o
                0x000275a0                mp_identity_obj
 .rodata.array_locals_dict
                0x000275ac       0x10 build/py/objarray.o
 .rodata.array_locals_dict_table
                0x000275bc       0x10 build/py/objarray.o
 .rodata.array_append_obj
                0x000275cc        0xc build/py/objarray.o
 .rodata.array_extend_obj
                0x000275d8        0xc build/py/objarray.o
 .rodata.__func__.6388
                0x000275e4        0xd build/py/objarray.o
 .rodata.str1.1
                0x000275f1       0xcb build/py/objarray.o
                                 0xcf (size before relaxing)
 .rodata.array_it_type
                0x000276bc       0x40 build/py/objarray.o
 .rodata.mp_type_array
                0x000276fc       0x40 build/py/objarray.o
                0x000276fc                mp_type_array
 .rodata.mp_type_bytearray
                0x0002773c       0x40 build/py/objarray.o
                0x0002773c                mp_type_bytearray
 .rodata.__func__.6365
                0x0002777c        0xd build/py/objarray.o
 .rodata.__func__.6373
                0x00027789        0xd build/py/objarray.o
 .rodata.str1.1
                0x00000000        0xb build/py/objbool.o
 *fill*         0x00027796        0x2 ff
 .rodata.mp_const_true_obj
                0x00027798        0x8 build/py/objbool.o
                0x00027798                mp_const_true_obj
 .rodata.mp_type_bool
                0x000277a0       0x40 build/py/objbool.o
                0x000277a0                mp_type_bool
 .rodata.mp_const_false_obj
                0x000277e0        0x8 build/py/objbool.o
                0x000277e0                mp_const_false_obj
 .rodata.bound_meth_type
                0x000277e8       0x40 build/py/objboundmeth.o
                0x000277e8                bound_meth_type
 .rodata.cell_type
                0x00027828       0x40 build/py/objcell.o
                0x00027828                cell_type
 .rodata.closure_type
                0x00027868       0x40 build/py/objclosure.o
                0x00027868                closure_type
 .rodata.str1.1
                0x000278a8       0xac build/py/objcomplex.o
 .rodata.__func__.7911
                0x00027954       0x13 build/py/objcomplex.o
 *fill*         0x00027967        0x1 ff
 .rodata.mp_type_complex
                0x00027968       0x40 build/py/objcomplex.o
                0x00027968                mp_type_complex
 .rodata.dict_pop_obj
                0x000279a8        0xc build/py/objdict.o
 .rodata.__func__.6589
                0x000279b4       0x13 build/py/objdict.o
 .rodata.__func__.6594
                0x000279c7       0x14 build/py/objdict.o
 *fill*         0x000279db        0x1 ff
 .rodata.dict_update_obj
                0x000279dc        0xc build/py/objdict.o
 .rodata.__func__.6460
                0x000279e8        0xc build/py/objdict.o
 .rodata.__func__.6503
                0x000279f4       0x16 build/py/objdict.o
 .rodata.__func__.6448
                0x00027a0a        0xd build/py/objdict.o
 *fill*         0x00027a17        0x1 ff
 .rodata.dict_items_obj
                0x00027a18        0xc build/py/objdict.o
 .rodata.mp_dict_view_names
                0x00027a24        0xc build/py/objdict.o
 .rodata.dict_locals_dict
                0x00027a30       0x10 build/py/objdict.o
 .rodata.__func__.6515
                0x00027a40       0x12 build/py/objdict.o
 *fill*         0x00027a52        0x2 ff
 .rodata.dict_view_type
                0x00027a54       0x40 build/py/objdict.o
 .rodata.__func__.6526
                0x00027a94       0x10 build/py/objdict.o
 .rodata.dict_fromkeys_fun_obj
                0x00027aa4        0xc build/py/objdict.o
 .rodata.str1.1
                0x00027ab0      0x174 build/py/objdict.o
                                0x17f (size before relaxing)
 .rodata.__func__.6400
                0x00027c24        0xa build/py/objdict.o
 *fill*         0x00027c2e        0x2 ff
 .rodata.dict_popitem_obj
                0x00027c30        0xc build/py/objdict.o
 .rodata.mp_type_dict_it
                0x00027c3c       0x40 build/py/objdict.o
 .rodata.dict_locals_dict_table
                0x00027c7c       0x70 build/py/objdict.o
 .rodata.__func__.6550
                0x00027cec        0xa build/py/objdict.o
 *fill*         0x00027cf6        0x2 ff
 .rodata.dict_clear_obj
                0x00027cf8        0xc build/py/objdict.o
 .rodata.__func__.6408
                0x00027d04        0xe build/py/objdict.o
 *fill*         0x00027d12        0x2 ff
 .rodata.dict_fromkeys_obj
                0x00027d14        0x8 build/py/objdict.o
 .rodata.dict_values_obj
                0x00027d1c        0xc build/py/objdict.o
 .rodata.dict_view_it_type
                0x00027d28       0x40 build/py/objdict.o
 .rodata.dict_copy_obj
                0x00027d68        0xc build/py/objdict.o
 .rodata.dict_setdefault_obj
                0x00027d74        0xc build/py/objdict.o
 .rodata.__func__.6431
                0x00027d80        0x9 build/py/objdict.o
 *fill*         0x00027d89        0x3 ff
 .rodata.dict_keys_obj
                0x00027d8c        0xc build/py/objdict.o
 .rodata.__func__.6394
                0x00027d98        0xb build/py/objdict.o
 .rodata.__func__.6583
                0x00027da3       0x12 build/py/objdict.o
 .rodata.__func__.6437
                0x00027db5        0x9 build/py/objdict.o
 *fill*         0x00027dbe        0x2 ff
 .rodata.mp_type_dict
                0x00027dc0       0x40 build/py/objdict.o
                0x00027dc0                mp_type_dict
 .rodata.__func__.6443
                0x00027e00       0x10 build/py/objdict.o
 .rodata.dict_get_obj
                0x00027e10        0xc build/py/objdict.o
 .rodata.mp_type_enumerate
                0x00027e1c       0x40 build/py/objenumerate.o
                0x00027e1c                mp_type_enumerate
 .rodata.__func__.6385
                0x00027e5c       0x13 build/py/objenumerate.o
 .rodata.str1.1
                0x00027e6f       0x41 build/py/objenumerate.o
 .rodata.enumerate_make_new_args
                0x00027eb0       0x18 build/py/objenumerate.o
 .rodata.mp_type_RuntimeError_base_tuple
                0x00027ec8        0xc build/py/objexcept.o
 .rodata.mp_type_ValueError
                0x00027ed4       0x40 build/py/objexcept.o
                0x00027ed4                mp_type_ValueError
 .rodata.mp_type_RuntimeError
                0x00027f14       0x40 build/py/objexcept.o
                0x00027f14                mp_type_RuntimeError
 .rodata.exc_locals_dict_table
                0x00027f54        0x8 build/py/objexcept.o
 .rodata.mp_type_MemoryError
                0x00027f5c       0x40 build/py/objexcept.o
                0x00027f5c                mp_type_MemoryError
 .rodata.mp_const_GeneratorExit_obj
                0x00027f9c       0x10 build/py/objexcept.o
                0x00027f9c                mp_const_GeneratorExit_obj
 .rodata.mp_type_EOFError
                0x00027fac       0x40 build/py/objexcept.o
                0x00027fac                mp_type_EOFError
 .rodata.mp_type_LookupError_base_tuple
                0x00027fec        0xc build/py/objexcept.o
 .rodata.mp_type_Exception_base_tuple
                0x00027ff8        0xc build/py/objexcept.o
 .rodata.mp_type_SystemExit
                0x00028004       0x40 build/py/objexcept.o
                0x00028004                mp_type_SystemExit
 .rodata.mp_type_IndexError
                0x00028044       0x40 build/py/objexcept.o
                0x00028044                mp_type_IndexError
 .rodata.exc___init___obj
                0x00028084        0xc build/py/objexcept.o
 .rodata.mp_type_ArithmeticError_base_tuple
                0x00028090        0xc build/py/objexcept.o
 .rodata.mp_type_BaseException_base_tuple
                0x0002809c        0xc build/py/objexcept.o
 .rodata.mp_type_OSError
                0x000280a8       0x40 build/py/objexcept.o
                0x000280a8                mp_type_OSError
 .rodata.mp_type_NameError
                0x000280e8       0x40 build/py/objexcept.o
                0x000280e8                mp_type_NameError
 .rodata.mp_type_ImportError
                0x00028128       0x40 build/py/objexcept.o
                0x00028128                mp_type_ImportError
 .rodata.mp_type_ArithmeticError
                0x00028168       0x40 build/py/objexcept.o
                0x00028168                mp_type_ArithmeticError
 .rodata.__func__.7087
                0x000281a8       0x1a build/py/objexcept.o
 *fill*         0x000281c2        0x2 ff
 .rodata.mp_type_SyntaxError
                0x000281c4       0x40 build/py/objexcept.o
                0x000281c4                mp_type_SyntaxError
 .rodata.mp_type_IndentationError
                0x00028204       0x40 build/py/objexcept.o
                0x00028204                mp_type_IndentationError
 .rodata.mp_type_AttributeError
                0x00028244       0x40 build/py/objexcept.o
                0x00028244                mp_type_AttributeError
 .rodata.mp_type_SyntaxError_base_tuple
                0x00028284        0xc build/py/objexcept.o
 .rodata.mp_type_BaseException
                0x00028290       0x40 build/py/objexcept.o
                0x00028290                mp_type_BaseException
 .rodata.mp_type_StopIteration
                0x000282d0       0x40 build/py/objexcept.o
                0x000282d0                mp_type_StopIteration
 .rodata.__func__.7128
                0x00028310       0x1f build/py/objexcept.o
 *fill*         0x0002832f        0x1 ff
 .rodata.mp_type_AssertionError
                0x00028330       0x40 build/py/objexcept.o
                0x00028330                mp_type_AssertionError
 .rodata.mp_type_NotImplementedError
                0x00028370       0x40 build/py/objexcept.o
                0x00028370                mp_type_NotImplementedError
 .rodata.mp_type_ZeroDivisionError
                0x000283b0       0x40 build/py/objexcept.o
                0x000283b0                mp_type_ZeroDivisionError
 .rodata.__func__.7096
                0x000283f0       0x1e build/py/objexcept.o
 .rodata.__func__.7137
                0x0002840e       0x1f build/py/objexcept.o
 *fill*         0x0002842d        0x3 ff
 .rodata.exc_locals_dict
                0x00028430       0x10 build/py/objexcept.o
 .rodata.mp_type_LookupError
                0x00028440       0x40 build/py/objexcept.o
                0x00028440                mp_type_LookupError
 .rodata.mp_type_TypeError
                0x00028480       0x40 build/py/objexcept.o
                0x00028480                mp_type_TypeError
 .rodata.mp_type_OverflowError
                0x000284c0       0x40 build/py/objexcept.o
                0x000284c0                mp_type_OverflowError
 .rodata.str1.1
                0x00028500       0x68 build/py/objexcept.o
                                 0x71 (size before relaxing)
 .rodata.mp_type_GeneratorExit
                0x00028568       0x40 build/py/objexcept.o
                0x00028568                mp_type_GeneratorExit
 .rodata.mp_type_KeyError
                0x000285a8       0x40 build/py/objexcept.o
                0x000285a8                mp_type_KeyError
 .rodata.mp_const_MemoryError_obj
                0x000285e8       0x10 build/py/objexcept.o
                0x000285e8                mp_const_MemoryError_obj
 .rodata.mp_type_Exception
                0x000285f8       0x40 build/py/objexcept.o
                0x000285f8                mp_type_Exception
 .rodata.str1.1
                0x00028638       0x3b build/py/objfilter.o
 *fill*         0x00028673        0x1 ff
 .rodata.mp_type_filter
                0x00028674       0x40 build/py/objfilter.o
                0x00028674                mp_type_filter
 .rodata.__func__.5967
                0x000286b4       0x10 build/py/objfilter.o
 .rodata.str1.1
                0x000286c4       0x39 build/py/objfloat.o
                                 0x50 (size before relaxing)
 *fill*         0x000286fd        0x3 ff
 .rodata.mp_type_float
                0x00028700       0x40 build/py/objfloat.o
                0x00028700                mp_type_float
 .rodata.__func__.8070
                0x00028740       0x11 build/py/objfloat.o
 .rodata.__func__.6386
                0x00028751       0x16 build/py/objfun.o
 .rodata.__func__.6336
                0x00028767        0xc build/py/objfun.o
 *fill*         0x00028773        0x1 ff
 .rodata.mp_type_fun_asm
                0x00028774       0x40 build/py/objfun.o
 .rodata.str1.1
                0x000287b4       0x6e build/py/objfun.o
                                 0x99 (size before relaxing)
 *fill*         0x00028822        0x2 ff
 .rodata.mp_type_fun_builtin
                0x00028824       0x40 build/py/objfun.o
                0x00028824                mp_type_fun_builtin
 .rodata.__func__.6460
                0x00028864        0xd build/py/objfun.o
 .rodata.__func__.6349
                0x00028871       0x12 build/py/objfun.o
 *fill*         0x00028883        0x1 ff
 .rodata.mp_type_fun_bc
                0x00028884       0x40 build/py/objfun.o
                0x00028884                mp_type_fun_bc
 .rodata.mp_type_fun_viper
                0x000288c4       0x40 build/py/objfun.o
 .rodata.mp_type_fun_native
                0x00028904       0x40 build/py/objfun.o
 .rodata.__func__.6414
                0x00028944        0xf build/py/objfun.o
 .rodata.__func__.6289
                0x00028953       0x11 build/py/objfun.o
 .rodata.__func__.6380
                0x00028964       0x10 build/py/objfun.o
 .rodata.mp_type_gen_wrap
                0x00028974       0x40 build/py/objgenerator.o
                0x00028974                mp_type_gen_wrap
 .rodata.gen_instance_send_obj
                0x000289b4        0xc build/py/objgenerator.o
 .rodata.mp_type_gen_instance
                0x000289c0       0x40 build/py/objgenerator.o
                0x000289c0                mp_type_gen_instance
 .rodata.str1.1
                0x00028a00       0xe2 build/py/objgenerator.o
 .rodata.__func__.6435
                0x00028ae2        0xe build/py/objgenerator.o
 .rodata.__func__.6462
                0x00028af0       0x12 build/py/objgenerator.o
 *fill*         0x00028b02        0x2 ff
 .rodata.gen_instance_close_obj
                0x00028b04        0xc build/py/objgenerator.o
 .rodata.gen_instance_locals_dict
                0x00028b10       0x10 build/py/objgenerator.o
 .rodata.gen_instance_throw_obj
                0x00028b20        0xc build/py/objgenerator.o
 .rodata.gen_instance_locals_dict_table
                0x00028b2c       0x18 build/py/objgenerator.o
 .rodata.it_type
                0x00028b44       0x40 build/py/objgetitemiter.o
 .rodata.log_base2_floor
                0x00028b84       0x21 build/py/objint.o
 *fill*         0x00028ba5        0x3 ff
 .rodata.int_to_bytes_obj
                0x00028ba8        0xc build/py/objint.o
 .rodata.int_locals_dict
                0x00028bb4       0x10 build/py/objint.o
 .rodata.mp_type_int
                0x00028bc4       0x40 build/py/objint.o
                0x00028bc4                mp_type_int
 .rodata.int_from_bytes_obj
                0x00028c04        0x8 build/py/objint.o
 .rodata.int_from_bytes_fun_obj
                0x00028c0c        0xc build/py/objint.o
 .rodata.str1.1
                0x00000000        0x3 build/py/objint.o
 .rodata.int_locals_dict_table
                0x00028c18       0x10 build/py/objint.o
 .rodata.__func__.7715
                0x00028c28       0x1a build/py/objint_mpz.o
 .rodata.str1.1
                0x00028c42       0x98 build/py/objint_mpz.o
                                 0xad (size before relaxing)
 *fill*         0x00028cda        0x2 ff
 .rodata.allowed_args.6380
                0x00028cdc       0x18 build/py/objlist.o
 .rodata.__func__.6320
                0x00028cf4        0xc build/py/objlist.o
 .rodata.list_append_obj
                0x00028d00        0xc build/py/objlist.o
 .rodata.__func__.6283
                0x00028d0c       0x10 build/py/objlist.o
 .rodata.list_reverse_obj
                0x00028d1c        0xc build/py/objlist.o
 .rodata.list_locals_dict_table
                0x00028d28       0x58 build/py/objlist.o
 .rodata.list_locals_dict
                0x00028d80       0x10 build/py/objlist.o
 .rodata.__func__.6344
                0x00028d90        0xc build/py/objlist.o
 .rodata.__func__.6338
                0x00028d9c       0x13 build/py/objlist.o
 .rodata.__func__.6387
                0x00028daf        0xb build/py/objlist.o
 .rodata.__func__.6351
                0x00028dba        0x9 build/py/objlist.o
 .rodata.__func__.6392
                0x00028dc3        0xa build/py/objlist.o
 .rodata.str1.1
                0x00028dcd       0xfe build/py/objlist.o
                                0x107 (size before relaxing)
 *fill*         0x00028ecb        0x1 ff
 .rodata.list_count_obj
                0x00028ecc        0xc build/py/objlist.o
 .rodata.list_sort_obj
                0x00028ed8        0xc build/py/objlist.o
 .rodata.list_index_obj
                0x00028ee4        0xc build/py/objlist.o
 .rodata.__func__.6404
                0x00028ef0        0xb build/py/objlist.o
 *fill*         0x00028efb        0x1 ff
 .rodata.list_copy_obj
                0x00028efc        0xc build/py/objlist.o
 .rodata.__func__.6411
                0x00028f08        0xc build/py/objlist.o
 .rodata.list_insert_obj
                0x00028f14        0xc build/py/objlist.o
 .rodata.mp_type_list_it
                0x00028f20       0x40 build/py/objlist.o
 .rodata.__func__.6422
                0x00028f60       0x13 build/py/objlist.o
 .rodata.__func__.6383
                0x00028f73       0x11 build/py/objlist.o
 .rodata.list_pop_obj
                0x00028f84        0xc build/py/objlist.o
 .rodata.list_extend_obj
                0x00028f90        0xc build/py/objlist.o
 .rodata.__func__.6427
                0x00028f9c        0xd build/py/objlist.o
 *fill*         0x00028fa9        0x3 ff
 .rodata.mp_type_list
                0x00028fac       0x40 build/py/objlist.o
                0x00028fac                mp_type_list
 .rodata.list_clear_obj
                0x00028fec        0xc build/py/objlist.o
 .rodata.list_remove_obj
                0x00028ff8        0xc build/py/objlist.o
 .rodata.__func__.6398
                0x00029004        0xb build/py/objlist.o
 .rodata.__func__.6385
                0x0002900f        0xd build/py/objmap.o
 .rodata.mp_type_map
                0x0002901c       0x40 build/py/objmap.o
                0x0002901c                mp_type_map
 .rodata.str1.1
                0x0002905c       0x35 build/py/objmap.o
 *fill*         0x00029091        0x3 ff
 .rodata.mp_type_module
                0x00029094       0x40 build/py/objmodule.o
                0x00029094                mp_type_module
 .rodata.mp_builtin_module_map
                0x000290d4        0xc build/py/objmodule.o
 .rodata.str1.1
                0x000290e0       0x61 build/py/objmodule.o
 *fill*         0x00029141        0x3 ff
 .rodata.mp_builtin_module_table
                0x00029144       0x58 build/py/objmodule.o
 .rodata.__func__.6481
                0x0002919c       0x1a build/py/objmodule.o
 *fill*         0x000291b6        0x2 ff
 .rodata.object_locals_dict_table
                0x000291b8       0x10 build/py/objobject.o
 .rodata.object___init___obj
                0x000291c8        0xc build/py/objobject.o
 .rodata.object_locals_dict
                0x000291d4       0x10 build/py/objobject.o
 .rodata.object___new___obj
                0x000291e4        0x8 build/py/objobject.o
 .rodata.mp_type_object
                0x000291ec       0x40 build/py/objobject.o
                0x000291ec                mp_type_object
 .rodata.object___new___fun_obj
                0x0002922c        0xc build/py/objobject.o
 .rodata.property_locals_dict
                0x00029238       0x10 build/py/objproperty.o
 .rodata.mp_type_property
                0x00029248       0x40 build/py/objproperty.o
                0x00029248                mp_type_property
 .rodata.property_getter_obj
                0x00029288        0xc build/py/objproperty.o
 .rodata.str1.1
                0x00029294       0x3f build/py/objproperty.o
 .rodata.__func__.6400
                0x000292d3       0x14 build/py/objproperty.o
 *fill*         0x000292e7        0x1 ff
 .rodata.property_locals_dict_table
                0x000292e8       0x18 build/py/objproperty.o
 .rodata.property_deleter_obj
                0x00029300        0xc build/py/objproperty.o
 .rodata.property_setter_obj
                0x0002930c        0xc build/py/objproperty.o
 .rodata.str1.1
                0x00000000        0x5 build/py/objnone.o
 .rodata.mp_const_none_obj
                0x00029318        0x4 build/py/objnone.o
                0x00029318                mp_const_none_obj
 .rodata.mp_type_NoneType
                0x0002931c       0x40 build/py/objnone.o
                0x0002931c                mp_type_NoneType
 .rodata.str1.1
                0x0002935c       0x6c build/py/objnamedtuple.o
                                 0xaa (size before relaxing)
 .rodata.namedtuple_base_tuple
                0x000293c8        0xc build/py/objnamedtuple.o
 .rodata.mp_namedtuple_obj
                0x000293d4        0xc build/py/objnamedtuple.o
                0x000293d4                mp_namedtuple_obj
 .rodata.mp_type_range
                0x000293e0       0x40 build/py/objrange.o
                0x000293e0                mp_type_range
 .rodata.range_it_type
                0x00029420       0x40 build/py/objrange.o
 .rodata.str1.1
                0x00029460       0x13 build/py/objrange.o
                                 0x15 (size before relaxing)
 *fill*         0x00029473        0x1 ff
 .rodata.mp_type_reversed
                0x00029474       0x40 build/py/objreversed.o
                0x00029474                mp_type_reversed
 .rodata.str1.1
                0x000294b4       0x3f build/py/objreversed.o
 .rodata.__func__.6381
                0x000294f3       0x12 build/py/objreversed.o
 *fill*         0x00029505        0x3 ff
 .rodata.set_intersect_obj
                0x00029508        0xc build/py/objset.o
 .rodata.mp_type_set
                0x00029514       0x40 build/py/objset.o
                0x00029514                mp_type_set
 .rodata.set_remove_obj
                0x00029554        0xc build/py/objset.o
 .rodata.set_symmetric_difference_update_obj
                0x00029560        0xc build/py/objset.o
 .rodata.set_pop_obj
                0x0002956c        0xc build/py/objset.o
 .rodata.set_intersect_update_obj
                0x00029578        0xc build/py/objset.o
 .rodata.set_copy_obj
                0x00029584        0xc build/py/objset.o
 .rodata.set_isdisjoint_obj
                0x00029590        0xc build/py/objset.o
 .rodata.set_add_obj
                0x0002959c        0xc build/py/objset.o
 .rodata.__func__.6532
                0x000295a8        0xb build/py/objset.o
 *fill*         0x000295b3        0x1 ff
 .rodata.set_discard_obj
                0x000295b4        0xc build/py/objset.o
 .rodata.__func__.6351
                0x000295c0       0x10 build/py/objset.o
 .rodata.set_locals_dict
                0x000295d0       0x10 build/py/objset.o
 .rodata.str1.1
                0x000295e0       0x9b build/py/objset.o
                                 0xa2 (size before relaxing)
 *fill*         0x0002967b        0x1 ff
 .rodata.set_update_obj
                0x0002967c        0xc build/py/objset.o
 .rodata.set_clear_obj
                0x00029688        0xc build/py/objset.o
 .rodata.mp_type_set_it
                0x00029694       0x40 build/py/objset.o
                0x00029694                mp_type_set_it
 .rodata.set_symmetric_difference_obj
                0x000296d4        0xc build/py/objset.o
 .rodata.set_locals_dict_table
                0x000296e0       0x90 build/py/objset.o
 .rodata.set_diff_update_obj
                0x00029770        0xc build/py/objset.o
 .rodata.set_issuperset_obj
                0x0002977c        0xc build/py/objset.o
 .rodata.set_issubset_obj
                0x00029788        0xc build/py/objset.o
 .rodata.set_union_obj
                0x00029794        0xc build/py/objset.o
 .rodata.__func__.6396
                0x000297a0        0xd build/py/objset.o
 *fill*         0x000297ad        0x3 ff
 .rodata.set_diff_obj
                0x000297b0        0xc build/py/objset.o
 .rodata.__func__.6591
                0x000297bc       0x11 build/py/objset.o
 *fill*         0x000297cd        0x3 ff
 .rodata.mp_type_ellipsis
                0x000297d0       0x40 build/py/objslice.o
                0x000297d0                mp_type_ellipsis
 .rodata.str1.1
                0x00029810       0x40 build/py/objslice.o
                                 0x4e (size before relaxing)
 .rodata.__func__.6236
                0x00029850       0x11 build/py/objslice.o
 *fill*         0x00029861        0x3 ff
 .rodata.mp_const_ellipsis_obj
                0x00029864        0x4 build/py/objslice.o
                0x00029864                mp_const_ellipsis_obj
 .rodata.mp_type_slice
                0x00029868       0x40 build/py/objslice.o
                0x00029868                mp_type_slice
 .rodata.__func__.6773
                0x000298a8       0x12 build/py/objstr.o
 *fill*         0x000298ba        0x2 ff
 .rodata.str_rfind_obj
                0x000298bc        0xc build/py/objstr.o
                0x000298bc                str_rfind_obj
 .rodata.str8_locals_dict
                0x000298c8       0x10 build/py/objstr.o
 .rodata.str_partition_obj
                0x000298d8        0xc build/py/objstr.o
                0x000298d8                str_partition_obj
 .rodata.str_rstrip_obj
                0x000298e4        0xc build/py/objstr.o
                0x000298e4                str_rstrip_obj
 .rodata.str_lstrip_obj
                0x000298f0        0xc build/py/objstr.o
                0x000298f0                str_lstrip_obj
 .rodata.mp_type_str_it
                0x000298fc       0x40 build/py/objstr.o
 .rodata.str_upper_obj
                0x0002993c        0xc build/py/objstr.o
                0x0002993c                str_upper_obj
 .rodata.__func__.6828
                0x00029948        0xc build/py/objstr.o
 .rodata.str_index_obj
                0x00029954        0xc build/py/objstr.o
                0x00029954                str_index_obj
 .rodata.bytes_decode_obj
                0x00029960        0xc build/py/objstr.o
                0x00029960                bytes_decode_obj
 .rodata.str_rindex_obj
                0x0002996c        0xc build/py/objstr.o
                0x0002996c                str_rindex_obj
 .rodata.whitespace.6630
                0x00029978        0x7 build/py/objstr.o
 *fill*         0x0002997f        0x1 ff
 .rodata.str_rsplit_obj
                0x00029980        0xc build/py/objstr.o
                0x00029980                str_rsplit_obj
 .rodata.str_format_obj
                0x0002998c        0xc build/py/objstr.o
                0x0002998c                str_format_obj
 .rodata.str_encode_obj
                0x00029998        0xc build/py/objstr.o
                0x00029998                str_encode_obj
 .rodata.str_rpartition_obj
                0x000299a4        0xc build/py/objstr.o
                0x000299a4                str_rpartition_obj
 .rodata.str_join_obj
                0x000299b0        0xc build/py/objstr.o
                0x000299b0                str_join_obj
 .rodata.__func__.6854
                0x000299bc        0xa build/py/objstr.o
 .rodata.__func__.6494
                0x000299c6        0x9 build/py/objstr.o
 *fill*         0x000299cf        0x1 ff
 .rodata.str_isalpha_obj
                0x000299d0        0xc build/py/objstr.o
                0x000299d0                str_isalpha_obj
 .rodata.str8_locals_dict_table
                0x000299dc       0xd0 build/py/objstr.o
 .rodata.str_endswith_obj
                0x00029aac        0xc build/py/objstr.o
                0x00029aac                str_endswith_obj
 .rodata.mp_type_str
                0x00029ab8       0x40 build/py/objstr.o
                0x00029ab8                mp_type_str
 .rodata.str_find_obj
                0x00029af8        0xc build/py/objstr.o
                0x00029af8                str_find_obj
 .rodata.str_isspace_obj
                0x00029b04        0xc build/py/objstr.o
                0x00029b04                str_isspace_obj
 .rodata.__func__.6871
                0x00029b10       0x10 build/py/objstr.o
 .rodata.__func__.6687
                0x00029b20       0x12 build/py/objstr.o
 *fill*         0x00029b32        0x2 ff
 .rodata.str_startswith_obj
                0x00029b34        0xc build/py/objstr.o
                0x00029b34                str_startswith_obj
 .rodata.mp_type_bytes_it
                0x00029b40       0x40 build/py/objstr.o
 .rodata.str_lower_obj
                0x00029b80        0xc build/py/objstr.o
                0x00029b80                str_lower_obj
 .rodata.__func__.6557
                0x00029b8c        0xb build/py/objstr.o
 *fill*         0x00029b97        0x1 ff
 .rodata.str_islower_obj
                0x00029b98        0xc build/py/objstr.o
                0x00029b98                str_islower_obj
 .rodata.str_split_obj
                0x00029ba4        0xc build/py/objstr.o
                0x00029ba4                str_split_obj
 .rodata.mp_const_empty_bytes_obj
                0x00029bb0       0x10 build/py/objstr.o
                0x00029bb0                mp_const_empty_bytes_obj
 .rodata.str_isdigit_obj
                0x00029bc0        0xc build/py/objstr.o
                0x00029bc0                str_isdigit_obj
 .rodata.str_count_obj
                0x00029bcc        0xc build/py/objstr.o
                0x00029bcc                str_count_obj
 .rodata.__func__.6574
                0x00029bd8        0xb build/py/objstr.o
 .rodata.__func__.6616
                0x00029be3        0xd build/py/objstr.o
 .rodata.str1.1
                0x00029bf0      0x585 build/py/objstr.o
                                0x5f1 (size before relaxing)
 *fill*         0x0002a175        0x3 ff
 .rodata.str_replace_obj
                0x0002a178        0xc build/py/objstr.o
                0x0002a178                str_replace_obj
 .rodata.str_strip_obj
                0x0002a184        0xc build/py/objstr.o
                0x0002a184                str_strip_obj
 .rodata.__func__.6626
                0x0002a190        0xe build/py/objstr.o
 *fill*         0x0002a19e        0x2 ff
 .rodata.mp_type_bytes
                0x0002a1a0       0x40 build/py/objstr.o
                0x0002a1a0                mp_type_bytes
 .rodata.str_isupper_obj
                0x0002a1e0        0xc build/py/objstr.o
                0x0002a1e0                str_isupper_obj
 .rodata.__func__.6320
                0x0002a1ec        0xc build/py/objtuple.o
 .rodata.__func__.6267
                0x0002a1f8       0x11 build/py/objtuple.o
 *fill*         0x0002a209        0x3 ff
 .rodata.tuple_locals_dict
                0x0002a20c       0x10 build/py/objtuple.o
 .rodata.__func__.6341
                0x0002a21c       0x11 build/py/objtuple.o
 *fill*         0x0002a22d        0x3 ff
 .rodata.mp_type_tuple
                0x0002a230       0x40 build/py/objtuple.o
                0x0002a230                mp_type_tuple
 .rodata.tuple_index_obj
                0x0002a270        0xc build/py/objtuple.o
 .rodata.str1.1
                0x0002a27c       0x63 build/py/objtuple.o
                                 0x9d (size before relaxing)
 .rodata.__func__.6346
                0x0002a2df       0x11 build/py/objtuple.o
 .rodata.mp_const_empty_tuple_obj
                0x0002a2f0        0x8 build/py/objtuple.o
                0x0002a2f0                mp_const_empty_tuple_obj
 .rodata.__func__.6351
                0x0002a2f8       0x12 build/py/objtuple.o
 *fill*         0x0002a30a        0x2 ff
 .rodata.mp_type_tuple_it
                0x0002a30c       0x40 build/py/objtuple.o
 .rodata.tuple_locals_dict_table
                0x0002a34c       0x10 build/py/objtuple.o
 .rodata.__func__.6313
                0x0002a35c        0xc build/py/objtuple.o
 .rodata.tuple_count_obj
                0x0002a368        0xc build/py/objtuple.o
 .rodata.__func__.7047
                0x0002a374       0x12 build/py/objtype.o
 *fill*         0x0002a386        0x2 ff
 .rodata.mp_type_type
                0x0002a388       0x40 build/py/objtype.o
                0x0002a388                mp_type_type
 .rodata.__func__.6999
                0x0002a3c8       0x1c build/py/objtype.o
 .rodata.mp_binary_op_method_name
                0x0002a3e4       0x84 build/py/objtype.o
                0x0002a3e4                mp_binary_op_method_name
 .rodata.__func__.7301
                0x0002a468       0x1d build/py/objtype.o
 .rodata.str1.1
                0x0002a485      0x357 build/py/objtype.o
                                0x3bc (size before relaxing)
 .rodata.__func__.7183
                0x0002a7dc        0xf build/py/objtype.o
 *fill*         0x0002a7eb        0x1 ff
 .rodata.mp_type_super
                0x0002a7ec       0x40 build/py/objtype.o
                0x0002a7ec                mp_type_super
 .rodata.__func__.7074
                0x0002a82c       0x1d build/py/objtype.o
 .rodata.__func__.7191
                0x0002a849       0x10 build/py/objtype.o
 .rodata.__func__.7015
                0x0002a859       0x14 build/py/objtype.o
 *fill*         0x0002a86d        0x3 ff
 .rodata.mp_type_classmethod
                0x0002a870       0x40 build/py/objtype.o
                0x0002a870                mp_type_classmethod
 .rodata.mp_type_staticmethod
                0x0002a8b0       0x40 build/py/objtype.o
                0x0002a8b0                mp_type_staticmethod
 .rodata.__func__.7240
                0x0002a8f0       0x10 build/py/objtype.o
 .rodata.mp_builtin_issubclass_obj
                0x0002a900        0xc build/py/objtype.o
                0x0002a900                mp_builtin_issubclass_obj
 .rodata.mp_unary_op_method_name
                0x0002a90c       0x18 build/py/objtype.o
                0x0002a90c                mp_unary_op_method_name
 .rodata.__func__.7089
                0x0002a924       0x1a build/py/objtype.o
 *fill*         0x0002a93e        0x2 ff
 .rodata.mp_builtin_isinstance_obj
                0x0002a940        0xc build/py/objtype.o
                0x0002a940                mp_builtin_isinstance_obj
 .rodata.__func__.7202
                0x0002a94c       0x10 build/py/objtype.o
 .rodata.__func__.6384
                0x0002a95c        0xd build/py/objzip.o
 *fill*         0x0002a969        0x3 ff
 .rodata.mp_type_zip
                0x0002a96c       0x40 build/py/objzip.o
                0x0002a96c                mp_type_zip
 .rodata.str1.1
                0x0002a9ac       0x35 build/py/objzip.o
 *fill*         0x0002a9e1        0x3 ff
 .rodata.mp_op_getitem_obj
                0x0002a9e4        0xc build/py/opmethods.o
                0x0002a9e4                mp_op_getitem_obj
 .rodata.mp_op_setitem_obj
                0x0002a9f0        0xc build/py/opmethods.o
                0x0002a9f0                mp_op_setitem_obj
 .rodata.mp_op_delitem_obj
                0x0002a9fc        0xc build/py/opmethods.o
                0x0002a9fc                mp_op_delitem_obj
 .rodata.mp_op_contains_obj
                0x0002aa08        0xc build/py/opmethods.o
                0x0002aa08                mp_op_contains_obj
 .rodata.str1.1
                0x0002aa14       0x17 build/py/sequence.o
 *fill*         0x0002aa2b        0x1 ff
 .rodata.mp_stream_write_obj
                0x0002aa2c        0xc build/py/stream.o
                0x0002aa2c                mp_stream_write_obj
 .rodata.mp_stream_readall_obj
                0x0002aa38        0xc build/py/stream.o
                0x0002aa38                mp_stream_readall_obj
 .rodata.str1.1
                0x0002aa44       0x34 build/py/stream.o
 .rodata.mp_stream_unbuffered_readline_obj
                0x0002aa78        0xc build/py/stream.o
                0x0002aa78                mp_stream_unbuffered_readline_obj
 .rodata.mp_stream_read_obj
                0x0002aa84        0xc build/py/stream.o
                0x0002aa84                mp_stream_read_obj
 .rodata.str1.1
                0x0002aa90        0xf build/py/binary.o
                                 0x11 (size before relaxing)
 .rodata.CSWTCH.20
                0x0002aa9f       0x72 build/py/binary.o
 .rodata.CSWTCH.21
                0x0002ab11       0x72 build/py/binary.o
 .rodata.CSWTCH.19
                0x0002ab83       0x30 build/py/binary.o
 .rodata.__func__.6482
                0x0002abb3       0x21 build/py/binary.o
 .rodata.mp_builtin___import___obj
                0x0002abd4        0xc build/py/builtinimport.o
                0x0002abd4                mp_builtin___import___obj
 .rodata.__func__.7219
                0x0002abe0       0x16 build/py/builtinimport.o
 .rodata.str1.1
                0x0002abf6       0x52 build/py/builtinimport.o
                                 0x58 (size before relaxing)
 .rodata.mp_builtin_eval_obj
                0x0002ac48        0xc build/py/builtinevex.o
                0x0002ac48                mp_builtin_eval_obj
 .rodata.mp_builtin_exec_obj
                0x0002ac54        0xc build/py/builtinevex.o
                0x0002ac54                mp_builtin_exec_obj
 .rodata.mp_module_array
                0x0002ac60        0xc build/py/modarray.o
                0x0002ac60                mp_module_array
 .rodata.mp_module_array_globals
                0x0002ac6c       0x10 build/py/modarray.o
 .rodata.mp_module_array_globals_table
                0x0002ac7c       0x10 build/py/modarray.o
 .rodata.mp_module_builtins
                0x0002ac8c        0xc build/py/modbuiltins.o
                0x0002ac8c                mp_module_builtins
 .rodata.mp_builtin_len_obj
                0x0002ac98        0xc build/py/modbuiltins.o
                0x0002ac98                mp_builtin_len_obj
 .rodata.__func__.7722
                0x0002aca4       0x13 build/py/modbuiltins.o
 *fill*         0x0002acb7        0x1 ff
 .rodata.mp_builtin_getattr_obj
                0x0002acb8        0xc build/py/modbuiltins.o
                0x0002acb8                mp_builtin_getattr_obj
 .rodata.__func__.7499
                0x0002acc4       0x1b build/py/modbuiltins.o
 *fill*         0x0002acdf        0x1 ff
 .rodata.mp_builtin_pow_obj
                0x0002ace0        0xc build/py/modbuiltins.o
                0x0002ace0                mp_builtin_pow_obj
 .rodata.mp_builtin_hasattr_obj
                0x0002acec        0xc build/py/modbuiltins.o
                0x0002acec                mp_builtin_hasattr_obj
 .rodata.mp_builtin_divmod_obj
                0x0002acf8        0xc build/py/modbuiltins.o
                0x0002acf8                mp_builtin_divmod_obj
 .rodata.mp_builtin_any_obj
                0x0002ad04        0xc build/py/modbuiltins.o
                0x0002ad04                mp_builtin_any_obj
 .rodata.mp_builtin_locals_obj
                0x0002ad10        0xc build/py/modbuiltins.o
                0x0002ad10                mp_builtin_locals_obj
 .rodata.mp_builtin_min_obj
                0x0002ad1c        0xc build/py/modbuiltins.o
                0x0002ad1c                mp_builtin_min_obj
 .rodata.mp_builtin_bin_obj
                0x0002ad28        0xc build/py/modbuiltins.o
                0x0002ad28                mp_builtin_bin_obj
 .rodata.__func__.7697
                0x0002ad34       0x12 build/py/modbuiltins.o
 *fill*         0x0002ad46        0x2 ff
 .rodata.mp_builtin_sorted_obj
                0x0002ad48        0xc build/py/modbuiltins.o
                0x0002ad48                mp_builtin_sorted_obj
 .rodata.mp_builtin_hash_obj
                0x0002ad54        0xc build/py/modbuiltins.o
                0x0002ad54                mp_builtin_hash_obj
 .rodata.mp_builtin_globals_obj
                0x0002ad60        0xc build/py/modbuiltins.o
                0x0002ad60                mp_builtin_globals_obj
 .rodata.mp_builtin_sum_obj
                0x0002ad6c        0xc build/py/modbuiltins.o
                0x0002ad6c                mp_builtin_sum_obj
 .rodata.mp_builtin_chr_obj
                0x0002ad78        0xc build/py/modbuiltins.o
                0x0002ad78                mp_builtin_chr_obj
 .rodata.mp_module_builtins_globals_table
                0x0002ad84      0x2b0 build/py/modbuiltins.o
 .rodata.mp_builtin___repl_print___obj
                0x0002b034        0xc build/py/modbuiltins.o
                0x0002b034                mp_builtin___repl_print___obj
 .rodata.mp_builtin_oct_obj
                0x0002b040        0xc build/py/modbuiltins.o
                0x0002b040                mp_builtin_oct_obj
 .rodata.mp_builtin_repr_obj
                0x0002b04c        0xc build/py/modbuiltins.o
                0x0002b04c                mp_builtin_repr_obj
 .rodata.str1.1
                0x0002b058      0x116 build/py/modbuiltins.o
                                0x168 (size before relaxing)
 *fill*         0x0002b16e        0x2 ff
 .rodata.mp_builtin_id_obj
                0x0002b170        0xc build/py/modbuiltins.o
                0x0002b170                mp_builtin_id_obj
 .rodata.__func__.7639
                0x0002b17c        0xf build/py/modbuiltins.o
 *fill*         0x0002b18b        0x1 ff
 .rodata.mp_builtin_dir_obj
                0x0002b18c        0xc build/py/modbuiltins.o
                0x0002b18c                mp_builtin_dir_obj
 .rodata.mp_builtin_hex_obj
                0x0002b198        0xc build/py/modbuiltins.o
                0x0002b198                mp_builtin_hex_obj
 .rodata.mp_builtin___build_class___obj
                0x0002b1a4        0xc build/py/modbuiltins.o
                0x0002b1a4                mp_builtin___build_class___obj
 .rodata.mp_builtin_round_obj
                0x0002b1b0        0xc build/py/modbuiltins.o
                0x0002b1b0                mp_builtin_round_obj
 .rodata.mp_builtin_next_obj
                0x0002b1bc        0xc build/py/modbuiltins.o
                0x0002b1bc                mp_builtin_next_obj
 .rodata.mp_module_builtins_globals
                0x0002b1c8       0x10 build/py/modbuiltins.o
                0x0002b1c8                mp_module_builtins_globals
 .rodata.mp_builtin_ord_obj
                0x0002b1d8        0xc build/py/modbuiltins.o
                0x0002b1d8                mp_builtin_ord_obj
 .rodata.mp_builtin_max_obj
                0x0002b1e4        0xc build/py/modbuiltins.o
                0x0002b1e4                mp_builtin_max_obj
 .rodata.mp_builtin_callable_obj
                0x0002b1f0        0xc build/py/modbuiltins.o
                0x0002b1f0                mp_builtin_callable_obj
 .rodata.__func__.7514
                0x0002b1fc        0xf build/py/modbuiltins.o
 .rodata.__func__.7681
                0x0002b20b        0xf build/py/modbuiltins.o
 *fill*         0x0002b21a        0x2 ff
 .rodata.mp_builtin_setattr_obj
                0x0002b21c        0xc build/py/modbuiltins.o
                0x0002b21c                mp_builtin_setattr_obj
 .rodata.mp_builtin_iter_obj
                0x0002b228        0xc build/py/modbuiltins.o
                0x0002b228                mp_builtin_iter_obj
 .rodata.mp_builtin_all_obj
                0x0002b234        0xc build/py/modbuiltins.o
                0x0002b234                mp_builtin_all_obj
 .rodata.mp_builtin_abs_obj
                0x0002b240        0xc build/py/modbuiltins.o
                0x0002b240                mp_builtin_abs_obj
 .rodata.mp_builtin_print_obj
                0x0002b24c        0xc build/py/modbuiltins.o
                0x0002b24c                mp_builtin_print_obj
 .rodata.mp_module_collections
                0x0002b258        0xc build/py/modcollections.o
                0x0002b258                mp_module_collections
 .rodata.mp_module_collections_globals
                0x0002b264       0x10 build/py/modcollections.o
 .rodata.mp_module_collections_globals_table
                0x0002b274       0x10 build/py/modcollections.o
 .rodata.mp_module_gc_globals
                0x0002b284       0x10 build/py/modgc.o
 .rodata.gc_disable_obj
                0x0002b294        0xc build/py/modgc.o
                0x0002b294                gc_disable_obj
 .rodata.gc_mem_alloc_obj
                0x0002b2a0        0xc build/py/modgc.o
                0x0002b2a0                gc_mem_alloc_obj
 .rodata.gc_enable_obj
                0x0002b2ac        0xc build/py/modgc.o
                0x0002b2ac                gc_enable_obj
 .rodata.gc_isenabled_obj
                0x0002b2b8        0xc build/py/modgc.o
                0x0002b2b8                gc_isenabled_obj
 .rodata.mp_module_gc_globals_table
                0x0002b2c4       0x38 build/py/modgc.o
 .rodata.gc_mem_free_obj
                0x0002b2fc        0xc build/py/modgc.o
                0x0002b2fc                gc_mem_free_obj
 .rodata.mp_module_gc
                0x0002b308        0xc build/py/modgc.o
                0x0002b308                mp_module_gc
 .rodata.gc_collect_obj
                0x0002b314        0xc build/py/modgc.o
                0x0002b314                gc_collect_obj
 .rodata.mp_math_isinf_obj
                0x0002b320        0xc build/py/modmath.o
 .rodata.mp_math_log10_obj
                0x0002b32c        0xc build/py/modmath.o
 .rodata.mp_math_expm1_obj
                0x0002b338        0xc build/py/modmath.o
 .rodata.mp_math_asin_obj
                0x0002b344        0xc build/py/modmath.o
 .rodata.mp_math_tanh_obj
                0x0002b350        0xc build/py/modmath.o
 .rodata.mp_math_degrees_obj
                0x0002b35c        0xc build/py/modmath.o
 .rodata.mp_math_atan2_obj
                0x0002b368        0xc build/py/modmath.o
 .rodata.mp_math_radians_obj
                0x0002b374        0xc build/py/modmath.o
 .rodata.mp_math_sqrt_obj
                0x0002b380        0xc build/py/modmath.o
 .rodata.mp_math_pow_obj
                0x0002b38c        0xc build/py/modmath.o
 .rodata.mp_math_floor_obj
                0x0002b398        0xc build/py/modmath.o
 .rodata.mp_math_atan_obj
                0x0002b3a4        0xc build/py/modmath.o
 .rodata.mp_module_math_globals
                0x0002b3b0       0x10 build/py/modmath.o
 .rodata.mp_math_tan_obj
                0x0002b3c0        0xc build/py/modmath.o
 .rodata.mp_math_sinh_obj
                0x0002b3cc        0xc build/py/modmath.o
 .rodata.mp_math_sin_obj
                0x0002b3d8        0xc build/py/modmath.o
 .rodata.mp_math_isfinite_obj
                0x0002b3e4        0xc build/py/modmath.o
 .rodata.mp_math_trunc_obj
                0x0002b3f0        0xc build/py/modmath.o
 .rodata.mp_math_modf_obj
                0x0002b3fc        0xc build/py/modmath.o
 .rodata.mp_math_fmod_obj
                0x0002b408        0xc build/py/modmath.o
 .rodata.mp_math_acos_obj
                0x0002b414        0xc build/py/modmath.o
 .rodata.mp_math_ceil_obj
                0x0002b420        0xc build/py/modmath.o
 .rodata.mp_module_math
                0x0002b42c        0xc build/py/modmath.o
                0x0002b42c                mp_module_math
 .rodata.mp_math_asinh_obj
                0x0002b438        0xc build/py/modmath.o
 .rodata.mp_math_log2_obj
                0x0002b444        0xc build/py/modmath.o
 .rodata.mp_math_log_obj
                0x0002b450        0xc build/py/modmath.o
 .rodata.mp_math_exp_obj
                0x0002b45c        0xc build/py/modmath.o
 .rodata.mp_math_isnan_obj
                0x0002b468        0xc build/py/modmath.o
 .rodata.mp_math_e_obj
                0x0002b474        0x8 build/py/modmath.o
                0x0002b474                mp_math_e_obj
 .rodata.mp_math_frexp_obj
                0x0002b47c        0xc build/py/modmath.o
 .rodata.mp_math_pi_obj
                0x0002b488        0x8 build/py/modmath.o
                0x0002b488                mp_math_pi_obj
 .rodata.mp_math_fabs_obj
                0x0002b490        0xc build/py/modmath.o
 .rodata.mp_math_copysign_obj
                0x0002b49c        0xc build/py/modmath.o
 .rodata.mp_math_ldexp_obj
                0x0002b4a8        0xc build/py/modmath.o
 .rodata.mp_math_cosh_obj
                0x0002b4b4        0xc build/py/modmath.o
 .rodata.mp_module_math_globals_table
                0x0002b4c0      0x128 build/py/modmath.o
 .rodata.mp_math_acosh_obj
                0x0002b5e8        0xc build/py/modmath.o
 .rodata.mp_math_atanh_obj
                0x0002b5f4        0xc build/py/modmath.o
 .rodata.mp_math_cos_obj
                0x0002b600        0xc build/py/modmath.o
 .rodata.mp_module_cmath
                0x0002b60c        0xc build/py/modcmath.o
                0x0002b60c                mp_module_cmath
 .rodata.mp_module_cmath_globals_table
                0x0002b618       0x60 build/py/modcmath.o
 .rodata.mp_module_cmath_globals
                0x0002b678       0x10 build/py/modcmath.o
 .rodata.mp_cmath_log10_obj
                0x0002b688        0xc build/py/modcmath.o
 .rodata.mp_cmath_sqrt_obj
                0x0002b694        0xc build/py/modcmath.o
 .rodata.mp_cmath_sin_obj
                0x0002b6a0        0xc build/py/modcmath.o
 .rodata.mp_cmath_log_obj
                0x0002b6ac        0xc build/py/modcmath.o
 .rodata.mp_cmath_phase_obj
                0x0002b6b8        0xc build/py/modcmath.o
 .rodata.mp_cmath_cos_obj
                0x0002b6c4        0xc build/py/modcmath.o
 .rodata.mp_cmath_exp_obj
                0x0002b6d0        0xc build/py/modcmath.o
 .rodata.mp_cmath_rect_obj
                0x0002b6dc        0xc build/py/modcmath.o
 .rodata.mp_cmath_polar_obj
                0x0002b6e8        0xc build/py/modcmath.o
 .rodata.mp_module_micropython
                0x0002b6f4        0xc build/py/modmicropython.o
                0x0002b6f4                mp_module_micropython
 .rodata.mp_module_micropython_globals
                0x0002b700       0x10 build/py/modmicropython.o
 .rodata.mp_alloc_emergency_exception_buf_obj
                0x0002b710        0xc build/py/modmicropython.o
 .rodata.mp_module_micropython_globals_table
                0x0002b71c       0x10 build/py/modmicropython.o
 .rodata.mp_module_struct_globals_table
                0x0002b72c       0x20 build/py/modstruct.o
 .rodata.__func__.6215
                0x0002b74c        0xc build/py/modstruct.o
 .rodata.__func__.6180
                0x0002b758       0x10 build/py/modstruct.o
 .rodata.str1.1
                0x0002b768       0x32 build/py/modstruct.o
 *fill*         0x0002b79a        0x2 ff
 .rodata.struct_unpack_obj
                0x0002b79c        0xc build/py/modstruct.o
                0x0002b79c                struct_unpack_obj
 .rodata.__func__.6198
                0x0002b7a8        0xe build/py/modstruct.o
 *fill*         0x0002b7b6        0x2 ff
 .rodata.struct_pack_obj
                0x0002b7b8        0xc build/py/modstruct.o
                0x0002b7b8                struct_pack_obj
 .rodata.struct_calcsize_obj
                0x0002b7c4        0xc build/py/modstruct.o
                0x0002b7c4                struct_calcsize_obj
 .rodata.mp_module_struct_globals
                0x0002b7d0       0x10 build/py/modstruct.o
 .rodata.mp_module_struct
                0x0002b7e0        0xc build/py/modstruct.o
                0x0002b7e0                mp_module_struct
 .rodata.mp_sys_exit_obj
                0x0002b7ec        0xc build/py/modsys.o
                0x0002b7ec                mp_sys_exit_obj
 .rodata.mp_sys_print_exception_obj
                0x0002b7f8        0xc build/py/modsys.o
                0x0002b7f8                mp_sys_print_exception_obj
 .rodata.mp_module_sys_globals_table
                0x0002b804       0x58 build/py/modsys.o
 .rodata.mp_sys_version_info_obj
                0x0002b85c       0x14 build/py/modsys.o
 .rodata.version_obj
                0x0002b870       0x10 build/py/modsys.o
 .rodata.str1.1
                0x0002b880        0x6 build/py/modsys.o
 *fill*         0x0002b886        0x2 ff
 .rodata.mp_module_sys_globals
                0x0002b888       0x10 build/py/modsys.o
 .rodata.mp_module_sys
                0x0002b898        0xc build/py/modsys.o
                0x0002b898                mp_module_sys
 .rodata.entry_table.6960
                0x0002b8a4      0x400 build/py/vm.o
 .rodata.str1.4
                0x0002bca4       0xd3 build/py/vm.o
                                 0xd4 (size before relaxing)
 *fill*         0x0002bd77        0x1 ff
 .rodata.no_exc.7124
                0x0002bd78        0xc build/py/vm.o
 .rodata.__func__.7132
                0x0002bd84       0x14 build/py/vm.o
 .rodata.str1.1
                0x0002bd98       0x89 build/py/bc.o
                                0x11a (size before relaxing)
 .rodata.str1.1
                0x00000000       0x20 build/py/repl.o
 .rodata.str1.1
                0x00000000        0x3 build/py/pfenv.o
 .rodata.pad_zeroes
                0x0002be21       0x11 build/py/pfenv.o
 .rodata.pad_spaces
                0x0002be32       0x11 build/py/pfenv.o
 .rodata.str1.1
                0x0002be43       0x12 build/py/pfenv_printf.o
 *fill*         0x0002be55        0x3 ff
 .rodata.mp_builtin_help_obj
                0x0002be58        0xc build/help.o
                0x0002be58                mp_builtin_help_obj
 .rodata.str1.1
                0x0002be64      0x7c3 build/help.o
 *fill*         0x0002c627        0x1 ff
 .rodata.pyb_usb_mode_obj
                0x0002c628        0xc build/main.o
                0x0002c628                pyb_usb_mode_obj
 .rodata.pyb_source_dir_obj
                0x0002c634        0xc build/main.o
                0x0002c634                pyb_source_dir_obj
 .rodata.str1.1
                0x0002c640       0x79 build/main.o
                                 0x7a (size before relaxing)
 *fill*         0x0002c6b9        0x3 ff
 .rodata.pyb_main_obj
                0x0002c6bc        0xc build/main.o
                0x0002c6bc                pyb_main_obj
 .rodata.pyb_led_type
                0x0002c6c8       0x40 build/led.o
                0x0002c6c8                pyb_led_type
 .rodata.str1.1
                0x0002c708       0x20 build/led.o
 .rodata.led_locals_dict
                0x0002c728       0x10 build/led.o
 .rodata.led_obj_off_obj
                0x0002c738        0xc build/led.o
 .rodata.led_obj_toggle_obj
                0x0002c744        0xc build/led.o
 .rodata.pyb_led_obj
                0x0002c750        0xc build/led.o
 .rodata.led_obj_on_obj
                0x0002c75c        0xc build/led.o
 .rodata.led_locals_dict_table
                0x0002c768       0x18 build/led.o
 .rodata.str1.1
                0x00000000        0x2 build/memzip.o
 .rodata.pyb_module_globals_table
                0x0002c780       0xd8 build/modpyb.o
 .rodata.pyb_unique_id_obj
                0x0002c858        0xc build/modpyb.o
 .rodata.pyb_module
                0x0002c864        0xc build/modpyb.o
                0x0002c864                pyb_module
 .rodata.pyb_delay_obj
                0x0002c870        0xc build/modpyb.o
 .rodata.pyb_udelay_obj
                0x0002c87c        0xc build/modpyb.o
 .rodata.pyb_millis_obj
                0x0002c888        0xc build/modpyb.o
 .rodata.pyb_info_obj
                0x0002c894        0xc build/modpyb.o
 .rodata.pyb_standby_obj
                0x0002c8a0        0xc build/modpyb.o
 .rodata.pyb_have_cdc_obj
                0x0002c8ac        0xc build/modpyb.o
 .rodata.str1.1
                0x0002c8b8      0x1fc build/modpyb.o
 .rodata.pyb_hid_send_report_obj
                0x0002cab4        0xc build/modpyb.o
 .rodata.pyb_elapsed_micros_obj
                0x0002cac0        0xc build/modpyb.o
 .rodata.pyb_sync_obj
                0x0002cacc        0xc build/modpyb.o
 .rodata.pyb_freq_obj
                0x0002cad8        0xc build/modpyb.o
 .rodata.pyb_module_globals
                0x0002cae4       0x10 build/modpyb.o
 .rodata.pyb_elapsed_millis_obj
                0x0002caf4        0xc build/modpyb.o
 .rodata.pyb_bootloader_obj
                0x0002cb00        0xc build/modpyb.o
 .rodata.pyb_micros_obj
                0x0002cb0c        0xc build/modpyb.o
 .rodata.pyb_stop_obj
                0x0002cb18        0xc build/modpyb.o
 .rodata.pyb_timer_channel_locals_dict
                0x0002cb24       0x10 build/timer.o
 .rodata.channel_mode_info
                0x0002cb34       0x38 build/timer.o
 .rodata.pyb_timer_channel_pulse_width_percent_obj
                0x0002cb6c        0xc build/timer.o
 .rodata.pyb_timer_channel_locals_dict_table
                0x0002cb78       0x28 build/timer.o
 .rodata.pyb_timer_locals_dict_table
                0x0002cba0       0xa8 build/timer.o
 .rodata.pyb_timer_channel_capture_compare_obj
                0x0002cc48        0xc build/timer.o
 .rodata.pyb_timer_prescaler_obj
                0x0002cc54        0xc build/timer.o
 .rodata.pyb_timer_channel_args
                0x0002cc60       0x48 build/timer.o
 .rodata.pyb_timer_callback_obj
                0x0002cca8        0xc build/timer.o
 .rodata.pyb_timer_locals_dict
                0x0002ccb4       0x10 build/timer.o
 .rodata.str1.1
                0x0002ccc4      0x318 build/timer.o
                                0x322 (size before relaxing)
 .rodata.pyb_timer_init_obj
                0x0002cfdc        0xc build/timer.o
 .rodata.pyb_timer_type
                0x0002cfe8       0x40 build/timer.o
                0x0002cfe8                pyb_timer_type
 .rodata.pyb_timer_channel_type
                0x0002d028       0x40 build/timer.o
 .rodata.pyb_timer_deinit_obj
                0x0002d068        0xc build/timer.o
 .rodata.pyb_timer_channel_callback_obj
                0x0002d074        0xc build/timer.o
 .rodata.pyb_timer_channel_obj
                0x0002d080        0xc build/timer.o
 .rodata.pyb_timer_period_obj
                0x0002d08c        0xc build/timer.o
 .rodata.pyb_timer_init_args
                0x0002d098       0x3c build/timer.o
 .rodata.pyb_timer_counter_obj
                0x0002d0d4        0xc build/timer.o
 .rodata.pyb_uart_locals_dict_table
                0x0002d0e0       0x28 build/uart.o
 .rodata.pyb_uart_locals_dict
                0x0002d108       0x10 build/uart.o
 .rodata.pyb_uart_init_args
                0x0002d118       0x30 build/uart.o
 .rodata.pyb_uart_send_obj
                0x0002d148        0xc build/uart.o
 .rodata.pyb_uart_send_args
                0x0002d154       0x18 build/uart.o
 .rodata.str1.1
                0x0002d16c        0xa build/uart.o
 *fill*         0x0002d176        0x2 ff
 .rodata.pyb_uart_recv_obj
                0x0002d178        0xc build/uart.o
 .rodata.pyb_uart_deinit_obj
                0x0002d184        0xc build/uart.o
 .rodata.pyb_uart_type
                0x0002d190       0x40 build/uart.o
                0x0002d190                pyb_uart_type
 .rodata.pyb_uart_init_obj
                0x0002d1d0        0xc build/uart.o
 .rodata.pyb_uart_any_obj
                0x0002d1dc        0xc build/uart.o
 .rodata.mp_builtin_input_obj
                0x0002d1e8        0xc build/stmhal/input.o
                0x0002d1e8                mp_builtin_input_obj
 .rodata.str1.1
                0x00000000        0x1 build/stmhal/input.o
 .rodata.pyb_disable_irq_obj
                0x0002d1f4        0xc build/stmhal/irq.o
                0x0002d1f4                pyb_disable_irq_obj
 .rodata.pyb_enable_irq_obj
                0x0002d200        0xc build/stmhal/irq.o
                0x0002d200                pyb_enable_irq_obj
 .rodata.pyb_wfi_obj
                0x0002d20c        0xc build/stmhal/irq.o
                0x0002d20c                pyb_wfi_obj
 .rodata.pin_gpio_obj
                0x0002d218        0xc build/stmhal/pin.o
 .rodata.pin_init_obj
                0x0002d224        0xc build/stmhal/pin.o
                0x0002d224                pin_init_obj
 .rodata.pin_map_dict_obj
                0x0002d230        0x8 build/stmhal/pin.o
 .rodata.pin_af_name_obj
                0x0002d238        0xc build/stmhal/pin.o
 .rodata.pin_locals_dict_table
                0x0002d244      0x148 build/stmhal/pin.o
 .rodata.pin_names_obj
                0x0002d38c        0xc build/stmhal/pin.o
 .rodata.pin_af_reg_obj
                0x0002d398        0xc build/stmhal/pin.o
 .rodata.pin_af_type
                0x0002d3a4       0x40 build/stmhal/pin.o
                0x0002d3a4                pin_af_type
 .rodata.pin_high_obj
                0x0002d3e4        0xc build/stmhal/pin.o
 .rodata.pin_value_obj
                0x0002d3f0        0xc build/stmhal/pin.o
 .rodata.pin_af_obj
                0x0002d3fc        0xc build/stmhal/pin.o
 .rodata.pin_port_obj
                0x0002d408        0xc build/stmhal/pin.o
 .rodata.pin_pin_obj
                0x0002d414        0xc build/stmhal/pin.o
 .rodata.str1.1
                0x0002d420      0x128 build/stmhal/pin.o
                                0x131 (size before relaxing)
 .rodata.pin_type
                0x0002d548       0x40 build/stmhal/pin.o
                0x0002d548                pin_type
 .rodata.pin_name_obj
                0x0002d588        0xc build/stmhal/pin.o
 .rodata.pin_map_dict_fun_obj
                0x0002d594        0xc build/stmhal/pin.o
 .rodata.pin_debug_obj
                0x0002d5a0        0x8 build/stmhal/pin.o
 .rodata.pin_mapper_obj
                0x0002d5a8        0x8 build/stmhal/pin.o
 .rodata.pin_af_list_obj
                0x0002d5b0        0xc build/stmhal/pin.o
 .rodata.pin_mapper_fun_obj
                0x0002d5bc        0xc build/stmhal/pin.o
 .rodata.pin_af_index_obj
                0x0002d5c8        0xc build/stmhal/pin.o
 .rodata.pin_low_obj
                0x0002d5d4        0xc build/stmhal/pin.o
 .rodata.pin_mode_obj
                0x0002d5e0        0xc build/stmhal/pin.o
 .rodata.pin_pull_obj
                0x0002d5ec        0xc build/stmhal/pin.o
 .rodata.pin_locals_dict
                0x0002d5f8       0x10 build/stmhal/pin.o
 .rodata.pin_af_locals_dict_table
                0x0002d608       0x18 build/stmhal/pin.o
 .rodata.pin_init_args
                0x0002d620       0x24 build/stmhal/pin.o
 .rodata.pin_debug_fun_obj
                0x0002d644        0xc build/stmhal/pin.o
 .rodata.pin_af_locals_dict
                0x0002d650       0x10 build/stmhal/pin.o
 .rodata.pin_cpu_pins_obj_type
                0x0002d660       0x40 build/stmhal/pin_named_pins.o
                0x0002d660                pin_cpu_pins_obj_type
 .rodata.str1.1
                0x0002d6a0        0x9 build/stmhal/pin_named_pins.o
 *fill*         0x0002d6a9        0x3 ff
 .rodata.pin_board_pins_obj_type
                0x0002d6ac       0x40 build/stmhal/pin_named_pins.o
                0x0002d6ac                pin_board_pins_obj_type
 .rodata.pfenv_stdout
                0x0002d6ec        0x8 build/stmhal/printf.o
 .rodata.str1.1
                0x0002d6f4       0xdc build/stmhal/pyexec.o
                                0x137 (size before relaxing)
 .rodata.pyb_set_repl_info_obj
                0x0002d7d0        0xc build/stmhal/pyexec.o
                0x0002d7d0                pyb_set_repl_info_obj
 .rodata.stdio_locals_dict_table
                0x0002d7dc       0x40 build/stmhal/pybstdio.o
 .rodata.stdio_locals_dict
                0x0002d81c       0x10 build/stmhal/pybstdio.o
 .rodata.stdio_obj_type
                0x0002d82c       0x40 build/stmhal/pybstdio.o
 .rodata.stdio_obj___exit___obj
                0x0002d86c        0xc build/stmhal/pybstdio.o
 .rodata.str1.1
                0x0002d878        0xf build/stmhal/pybstdio.o
 *fill*         0x0002d887        0x1 ff
 .rodata.mp_sys_stdout_obj
                0x0002d888        0x8 build/stmhal/pybstdio.o
                0x0002d888                mp_sys_stdout_obj
 .rodata.stdio_obj_stream_p
                0x0002d890       0x10 build/stmhal/pybstdio.o
 .rodata.mp_sys_stderr_obj
                0x0002d8a0        0x8 build/stmhal/pybstdio.o
                0x0002d8a0                mp_sys_stderr_obj
 .rodata.mp_sys_stdin_obj
                0x0002d8a8        0x8 build/stmhal/pybstdio.o
                0x0002d8a8                mp_sys_stdin_obj
 .rodata.digital_pin_to_info_PGM
                0x0002d8b0      0x110 build/core/pins_teensy.o
                0x0002d8b0                digital_pin_to_info_PGM
 .rodata.usb_endpoint_config_table
                0x0002d9c0        0x4 build/core/usb_desc.o
                0x0002d9c0                usb_endpoint_config_table
 .rodata.usb_descriptor_list
                0x0002d9c4       0x54 build/core/usb_desc.o
                0x0002d9c4                usb_descriptor_list
 .rodata.str1.1
                0x0002da18        0xe build/lib/mp-readline/readline.o
                                 0x11 (size before relaxing)
 *fill*         0x0002da26        0x2 ff
 .rodata.pin_D0
                0x0002da28       0x18 build/pins_gen.o
                0x0002da28                pin_D0
 .rodata.pin_D1
                0x0002da40       0x18 build/pins_gen.o
                0x0002da40                pin_D1
 .rodata.pin_D2
                0x0002da58       0x18 build/pins_gen.o
                0x0002da58                pin_D2
 .rodata.pin_D3
                0x0002da70       0x18 build/pins_gen.o
                0x0002da70                pin_D3
 .rodata.pin_D4
                0x0002da88       0x18 build/pins_gen.o
                0x0002da88                pin_D4
 .rodata.pin_D5
                0x0002daa0       0x18 build/pins_gen.o
                0x0002daa0                pin_D5
 .rodata.pin_D6
                0x0002dab8       0x18 build/pins_gen.o
                0x0002dab8                pin_D6
 .rodata.pin_D7
                0x0002dad0       0x18 build/pins_gen.o
                0x0002dad0                pin_D7
 .rodata.pin_B19_af
                0x0002dae8       0x20 build/pins_gen.o
                0x0002dae8                pin_B19_af
 .rodata.pin_B16_af
                0x0002db08       0x10 build/pins_gen.o
                0x0002db08                pin_B16_af
 .rodata.pin_Z0
                0x0002db18       0x18 build/pins_gen.o
                0x0002db18                pin_Z0
 .rodata.pin_Z1
                0x0002db30       0x18 build/pins_gen.o
                0x0002db30                pin_Z1
 .rodata.pin_A12
                0x0002db48       0x18 build/pins_gen.o
                0x0002db48                pin_A12
 .rodata.pin_A13
                0x0002db60       0x18 build/pins_gen.o
                0x0002db60                pin_A13
 .rodata.pin_B2_af
                0x0002db78       0x10 build/pins_gen.o
                0x0002db78                pin_B2_af
 .rodata.pin_Z5
                0x0002db88       0x18 build/pins_gen.o
                0x0002db88                pin_Z5
 .rodata.pin_C1_af
                0x0002dba0       0x10 build/pins_gen.o
                0x0002dba0                pin_C1_af
 .rodata.pin_B17
                0x0002dbb0       0x18 build/pins_gen.o
                0x0002dbb0                pin_B17
 .rodata.pin_board_pins_locals_dict_table
                0x0002dbc8      0x1c0 build/pins_gen.o
 .rodata.pin_cpu_pins_locals_dict
                0x0002dd88       0x10 build/pins_gen.o
                0x0002dd88                pin_cpu_pins_locals_dict
 .rodata.pin_D4_af
                0x0002dd98       0x10 build/pins_gen.o
                0x0002dd98                pin_D4_af
 .rodata.pin_A12_af
                0x0002dda8       0x20 build/pins_gen.o
                0x0002dda8                pin_A12_af
 .rodata.pin_B3_af
                0x0002ddc8       0x10 build/pins_gen.o
                0x0002ddc8                pin_B3_af
 .rodata.pin_C10_af
                0x0002ddd8       0x10 build/pins_gen.o
                0x0002ddd8                pin_C10_af
 .rodata.pin_C5_af
                0x0002dde8       0x10 build/pins_gen.o
                0x0002dde8                pin_C5_af
 .rodata.pin_C2_af
                0x0002ddf8       0x10 build/pins_gen.o
                0x0002ddf8                pin_C2_af
 .rodata.pin_E1_af
                0x0002de08       0x20 build/pins_gen.o
                0x0002de08                pin_E1_af
 .rodata.pin_D1_af
                0x0002de28       0x10 build/pins_gen.o
                0x0002de28                pin_D1_af
 .rodata.pin_A13_af
                0x0002de38       0x20 build/pins_gen.o
                0x0002de38                pin_A13_af
 .rodata.pin_A4
                0x0002de58       0x18 build/pins_gen.o
                0x0002de58                pin_A4
 .rodata.pin_A5
                0x0002de70       0x18 build/pins_gen.o
                0x0002de70                pin_A5
 .rodata.pin_E0_af
                0x0002de88       0x20 build/pins_gen.o
                0x0002de88                pin_E0_af
 .rodata.pin_C0
                0x0002dea8       0x18 build/pins_gen.o
                0x0002dea8                pin_C0
 .rodata.pin_C1
                0x0002dec0       0x18 build/pins_gen.o
                0x0002dec0                pin_C1
 .rodata.pin_C2
                0x0002ded8       0x18 build/pins_gen.o
                0x0002ded8                pin_C2
 .rodata.pin_D6_af
                0x0002def0       0x20 build/pins_gen.o
                0x0002def0                pin_D6_af
 .rodata.pin_C4
                0x0002df10       0x18 build/pins_gen.o
                0x0002df10                pin_C4
 .rodata.pin_B18
                0x0002df28       0x18 build/pins_gen.o
                0x0002df28                pin_B18
 .rodata.pin_B19
                0x0002df40       0x18 build/pins_gen.o
                0x0002df40                pin_B19
 .rodata.pin_C7
                0x0002df58       0x18 build/pins_gen.o
                0x0002df58                pin_C7
 .rodata.pin_C8
                0x0002df70       0x18 build/pins_gen.o
                0x0002df70                pin_C8
 .rodata.pin_C9
                0x0002df88       0x18 build/pins_gen.o
                0x0002df88                pin_C9
 .rodata.pin_A5_af
                0x0002dfa0       0x10 build/pins_gen.o
                0x0002dfa0                pin_A5_af
 .rodata.pin_B0
                0x0002dfb0       0x18 build/pins_gen.o
                0x0002dfb0                pin_B0
 .rodata.pin_C11_af
                0x0002dfc8       0x10 build/pins_gen.o
                0x0002dfc8                pin_C11_af
 .rodata.pin_D5_af
                0x0002dfd8       0x10 build/pins_gen.o
                0x0002dfd8                pin_D5_af
 .rodata.pin_C3_af
                0x0002dfe8       0x20 build/pins_gen.o
                0x0002dfe8                pin_C3_af
 .rodata.pin_Z2
                0x0002e008       0x18 build/pins_gen.o
                0x0002e008                pin_Z2
 .rodata.pin_Z3
                0x0002e020       0x18 build/pins_gen.o
                0x0002e020                pin_Z3
 .rodata.pin_D2_af
                0x0002e038       0x10 build/pins_gen.o
                0x0002e038                pin_D2_af
 .rodata.pin_A4_af
                0x0002e048       0x10 build/pins_gen.o
                0x0002e048                pin_A4_af
 .rodata.pin_C3
                0x0002e058       0x18 build/pins_gen.o
                0x0002e058                pin_C3
 .rodata.pin_D7_af
                0x0002e070       0x20 build/pins_gen.o
                0x0002e070                pin_D7_af
 .rodata.pin_C6
                0x0002e090       0x18 build/pins_gen.o
                0x0002e090                pin_C6
 .rodata.pin_B0_af
                0x0002e0a8       0x30 build/pins_gen.o
                0x0002e0a8                pin_B0_af
 .rodata.pin_cpu_pins_locals_dict_table
                0x0002e0d8      0x138 build/pins_gen.o
 .rodata.pin_E1
                0x0002e210       0x18 build/pins_gen.o
                0x0002e210                pin_E1
 .rodata.pin_C10
                0x0002e228       0x18 build/pins_gen.o
                0x0002e228                pin_C10
 .rodata.pin_C11
                0x0002e240       0x18 build/pins_gen.o
                0x0002e240                pin_C11
 .rodata.pin_C4_af
                0x0002e258       0x20 build/pins_gen.o
                0x0002e258                pin_C4_af
 .rodata.pin_B16
                0x0002e278       0x18 build/pins_gen.o
                0x0002e278                pin_B16
 .rodata.pin_D3_af
                0x0002e290       0x10 build/pins_gen.o
                0x0002e290                pin_D3_af
 .rodata.pin_board_pins_locals_dict
                0x0002e2a0       0x10 build/pins_gen.o
                0x0002e2a0                pin_board_pins_locals_dict
 .rodata.pin_C5
                0x0002e2b0       0x18 build/pins_gen.o
                0x0002e2b0                pin_C5
 .rodata.pin_B18_af
                0x0002e2c8       0x20 build/pins_gen.o
                0x0002e2c8                pin_B18_af
 .rodata.pin_B17_af
                0x0002e2e8       0x10 build/pins_gen.o
                0x0002e2e8                pin_B17_af
 .rodata.pin_B1_af
                0x0002e2f8       0x30 build/pins_gen.o
                0x0002e2f8                pin_B1_af
 .rodata.pin_B1
                0x0002e328       0x18 build/pins_gen.o
                0x0002e328                pin_B1
 .rodata.pin_B2
                0x0002e340       0x18 build/pins_gen.o
                0x0002e340                pin_B2
 .rodata.pin_B3
                0x0002e358       0x18 build/pins_gen.o
                0x0002e358                pin_B3
 .rodata.pin_E0
                0x0002e370       0x18 build/pins_gen.o
                0x0002e370                pin_E0
 .rodata.atanlo
                0x0002e388       0x10 /home/dhylands/gcc-arm-none-eabi/bin/../lib/gcc/arm-none-eabi/4.8.3/../../../../arm-none-eabi/lib/armv7e-m//libm.a(lib_a-sf_atan.o)
 .rodata.atanhi
                0x0002e398       0x10 /home/dhylands/gcc-arm-none-eabi/bin/../lib/gcc/arm-none-eabi/4.8.3/../../../../arm-none-eabi/lib/armv7e-m//libm.a(lib_a-sf_atan.o)
 .rodata.str1.4
                0x0002e3a8        0x6 /home/dhylands/gcc-arm-none-eabi/bin/../lib/gcc/arm-none-eabi/4.8.3/../../../../arm-none-eabi/lib/armv7e-m//libm.a(lib_a-wf_acos.o)
                                  0xc (size before relaxing)
 *fill*         0x0002e3ae        0x2 ff
 .rodata.str1.4
                0x0002e3b0        0x7 /home/dhylands/gcc-arm-none-eabi/bin/../lib/gcc/arm-none-eabi/4.8.3/../../../../arm-none-eabi/lib/armv7e-m//libm.a(lib_a-wf_acosh.o)
                                  0x8 (size before relaxing)
 *fill*         0x0002e3b7        0x1 ff
 .rodata.str1.4
                0x0002e3b8        0x6 /home/dhylands/gcc-arm-none-eabi/bin/../lib/gcc/arm-none-eabi/4.8.3/../../../../arm-none-eabi/lib/armv7e-m//libm.a(lib_a-wf_asin.o)
                                  0xc (size before relaxing)
 *fill*         0x0002e3be        0x2 ff
 .rodata.str1.4
                0x0002e3c0        0x7 /home/dhylands/gcc-arm-none-eabi/bin/../lib/gcc/arm-none-eabi/4.8.3/../../../../arm-none-eabi/lib/armv7e-m//libm.a(lib_a-wf_atanh.o)
                                  0x8 (size before relaxing)
 *fill*         0x0002e3c7        0x1 ff
 .rodata.str1.4
                0x0002e3c8        0x6 /home/dhylands/gcc-arm-none-eabi/bin/../lib/gcc/arm-none-eabi/4.8.3/../../../../arm-none-eabi/lib/armv7e-m//libm.a(lib_a-wf_cosh.o)
                                  0x8 (size before relaxing)
 *fill*         0x0002e3ce        0x2 ff
 .rodata.str1.4
                0x0002e3d0        0x5 /home/dhylands/gcc-arm-none-eabi/bin/../lib/gcc/arm-none-eabi/4.8.3/../../../../arm-none-eabi/lib/armv7e-m//libm.a(lib_a-wf_exp.o)
                                  0x8 (size before relaxing)
 *fill*         0x0002e3d5        0x3 ff
 .rodata.str1.4
                0x0002e3d8        0x6 /home/dhylands/gcc-arm-none-eabi/bin/../lib/gcc/arm-none-eabi/4.8.3/../../../../arm-none-eabi/lib/armv7e-m//libm.a(lib_a-wf_fmod.o)
                                  0x8 (size before relaxing)
 *fill*         0x0002e3de        0x2 ff
 .rodata.str1.4
                0x0002e3e0        0x5 /home/dhylands/gcc-arm-none-eabi/bin/../lib/gcc/arm-none-eabi/4.8.3/../../../../arm-none-eabi/lib/armv7e-m//libm.a(lib_a-wf_log.o)
                                  0xc (size before relaxing)
 *fill*         0x0002e3e5        0x3 ff
 .rodata.str1.4
                0x0002e3e8        0x7 /home/dhylands/gcc-arm-none-eabi/bin/../lib/gcc/arm-none-eabi/4.8.3/../../../../arm-none-eabi/lib/armv7e-m//libm.a(lib_a-wf_log10.o)
                                  0xc (size before relaxing)
 *fill*         0x0002e3ef        0x1 ff
 .rodata.str1.4
                0x0002e3f0        0x5 /home/dhylands/gcc-arm-none-eabi/bin/../lib/gcc/arm-none-eabi/4.8.3/../../../../arm-none-eabi/lib/armv7e-m//libm.a(lib_a-wf_pow.o)
                                  0x8 (size before relaxing)
 *fill*         0x0002e3f5        0x3 ff
 .rodata.str1.4
                0x0002e3f8        0x6 /home/dhylands/gcc-arm-none-eabi/bin/../lib/gcc/arm-none-eabi/4.8.3/../../../../arm-none-eabi/lib/armv7e-m//libm.a(lib_a-wf_sinh.o)
                                  0x8 (size before relaxing)
 *fill*         0x0002e3fe        0x2 ff
 .rodata.str1.4
                0x0002e400        0x6 /home/dhylands/gcc-arm-none-eabi/bin/../lib/gcc/arm-none-eabi/4.8.3/../../../../arm-none-eabi/lib/armv7e-m//libm.a(lib_a-wf_sqrt.o)
                                  0x8 (size before relaxing)
 *fill*         0x0002e406        0x2 ff
 .rodata.halF   0x0002e408        0x8 /home/dhylands/gcc-arm-none-eabi/bin/../lib/gcc/arm-none-eabi/4.8.3/../../../../arm-none-eabi/lib/armv7e-m//libm.a(lib_a-ef_exp.o)
 .rodata.ln2LO  0x0002e410        0x8 /home/dhylands/gcc-arm-none-eabi/bin/../lib/gcc/arm-none-eabi/4.8.3/../../../../arm-none-eabi/lib/armv7e-m//libm.a(lib_a-ef_exp.o)
 .rodata.ln2HI  0x0002e418        0x8 /home/dhylands/gcc-arm-none-eabi/bin/../lib/gcc/arm-none-eabi/4.8.3/../../../../arm-none-eabi/lib/armv7e-m//libm.a(lib_a-ef_exp.o)
 .rodata.Zero   0x0002e420        0x8 /home/dhylands/gcc-arm-none-eabi/bin/../lib/gcc/arm-none-eabi/4.8.3/../../../../arm-none-eabi/lib/armv7e-m//libm.a(lib_a-ef_fmod.o)
 .rodata.dp_h   0x0002e428        0x8 /home/dhylands/gcc-arm-none-eabi/bin/../lib/gcc/arm-none-eabi/4.8.3/../../../../arm-none-eabi/lib/armv7e-m//libm.a(lib_a-ef_pow.o)
 .rodata.dp_l   0x0002e430        0x8 /home/dhylands/gcc-arm-none-eabi/bin/../lib/gcc/arm-none-eabi/4.8.3/../../../../arm-none-eabi/lib/armv7e-m//libm.a(lib_a-ef_pow.o)
 .rodata.bp     0x0002e438        0x8 /home/dhylands/gcc-arm-none-eabi/bin/../lib/gcc/arm-none-eabi/4.8.3/../../../../arm-none-eabi/lib/armv7e-m//libm.a(lib_a-ef_pow.o)
 .rodata.str1.4
                0x00000000        0x4 /home/dhylands/gcc-arm-none-eabi/bin/../lib/gcc/arm-none-eabi/4.8.3/../../../../arm-none-eabi/lib/armv7e-m//libm.a(lib_a-ef_pow.o)
 .rodata.npio2_hw
                0x0002e440       0x80 /home/dhylands/gcc-arm-none-eabi/bin/../lib/gcc/arm-none-eabi/4.8.3/../../../../arm-none-eabi/lib/armv7e-m//libm.a(lib_a-ef_rem_pio2.o)
 .rodata.two_over_pi
                0x0002e4c0      0x318 /home/dhylands/gcc-arm-none-eabi/bin/../lib/gcc/arm-none-eabi/4.8.3/../../../../arm-none-eabi/lib/armv7e-m//libm.a(lib_a-ef_rem_pio2.o)
 .rodata.init_jk
                0x0002e7d8        0xc /home/dhylands/gcc-arm-none-eabi/bin/../lib/gcc/arm-none-eabi/4.8.3/../../../../arm-none-eabi/lib/armv7e-m//libm.a(lib_a-kf_rem_pio2.o)
 .rodata.PIo2   0x0002e7e4       0x2c /home/dhylands/gcc-arm-none-eabi/bin/../lib/gcc/arm-none-eabi/4.8.3/../../../../arm-none-eabi/lib/armv7e-m//libm.a(lib_a-kf_rem_pio2.o)
 .rodata.TWO52  0x0002e810       0x10 /home/dhylands/gcc-arm-none-eabi/bin/../lib/gcc/arm-none-eabi/4.8.3/../../../../arm-none-eabi/lib/armv7e-m//libm.a(lib_a-s_rint.o)
 .rodata.str1.4
                0x0002e820        0x4 /home/dhylands/gcc-arm-none-eabi/bin/../lib/gcc/arm-none-eabi/4.8.3/../../../../arm-none-eabi/lib/armv7e-m//libc.a(lib_a-impure.o)
                0x0002e824                . = ALIGN (0x4)
 *(.init)
                0x0002e824                . = ALIGN (0x4)
                0x0002e824                __preinit_array_start = .
 *(.preinit_array)
                0x0002e824                __preinit_array_end = .
                0x0002e824                __init_array_start = .
 *(SORT(.init_array.*))
 *(.init_array)
                0x0002e824                __init_array_end = .

.glue_7         0x0002e824        0x0
 .glue_7        0x00000000        0x0 linker stubs

.glue_7t        0x0002e824        0x0
 .glue_7t       0x00000000        0x0 linker stubs

.vfp11_veneer   0x0002e824        0x0
 .vfp11_veneer  0x00000000        0x0 linker stubs

.v4_bx          0x0002e824        0x0
 .v4_bx         0x00000000        0x0 linker stubs

.iplt           0x0002e824        0x0
 .iplt          0x00000000        0x0 build/py/nlrthumb.o

.rel.dyn        0x0002e824        0x0
 .rel.iplt      0x00000000        0x0 build/py/nlrthumb.o

.ARM.exidx      0x0002e824        0x0
                0x0002e824                __exidx_start = .
 *(.ARM.exidx* .gnu.linkonce.armexidx.*)
                0x0002e824                __exidx_end = .
                0x0002e824                _etext = .

.usbdescriptortable
                0x1fff8000       0xa0
                0x1fff8000                . = ALIGN (0x200)
 *(.usbdescriptortable*)
 .usbdescriptortable
                0x1fff8000       0xa0 build/core/usb_dev.o

.dmabuffers     0x1fff80a0        0x0
                0x1fff80a0                . = ALIGN (0x4)
 *(.dmabuffers*)

.usbbuffers     0x1fff80a0      0x360
                0x1fff80a0                . = ALIGN (0x4)
 *(.usbbuffers*)
 .usbbuffers    0x1fff80a0      0x360 build/core/usb_mem.o
                0x1fff80a0                usb_buffer_memory
                0x0002e824                _sidata = LOADADDR (.data)

.data           0x1fff8400      0x4dc load address 0x0002e824
                0x1fff8400                . = ALIGN (0x4)
                0x1fff8400                _sdata = .
                0x1fff8400                _ram_start = .
 *(.data*)
 .data.pyexec_mode_kind
                0x1fff8400        0x1 build/stmhal/pyexec.o
                0x1fff8400                pyexec_mode_kind
 .data.analog_config_bits
                0x1fff8401        0x1 build/core/analog.o
 .data.analog_num_average
                0x1fff8402        0x1 build/core/analog.o
 .data.device_descriptor
                0x1fff8403       0x12 build/core/usb_desc.o
 *fill*         0x1fff8415        0x1 
 .data.usb_string_manufacturer_name_default
                0x1fff8416       0x18 build/core/usb_desc.o
                0x1fff8416                usb_string_manufacturer_name_default
                0x1fff8416                usb_string_manufacturer_name
 .data.config_descriptor
                0x1fff842e       0x43 build/core/usb_desc.o
 *fill*         0x1fff8471        0x1 
 .data.usb_string_product_name_default
                0x1fff8472       0x16 build/core/usb_desc.o
                0x1fff8472                usb_string_product_name
                0x1fff8472                usb_string_product_name_default
 .data.string0  0x1fff8488        0x4 build/core/usb_desc.o
                0x1fff8488                string0
 .data.usb_string_serial_number_default
                0x1fff848c       0x16 build/core/usb_desc.o
                0x1fff848c                usb_string_serial_number_default
                0x1fff848c                usb_string_serial_number
 *fill*         0x1fff84a2        0x2 
 .data.usb_buffer_available
                0x1fff84a4        0x4 build/core/usb_mem.o
 .data.__fdlib_version
                0x1fff84a8        0x1 /home/dhylands/gcc-arm-none-eabi/bin/../lib/gcc/arm-none-eabi/4.8.3/../../../../arm-none-eabi/lib/armv7e-m//libm.a(lib_a-s_lib_ver.o)
                0x1fff84a8                __fdlib_version
 *fill*         0x1fff84a9        0x7 
 .data.impure_data
                0x1fff84b0      0x428 /home/dhylands/gcc-arm-none-eabi/bin/../lib/gcc/arm-none-eabi/4.8.3/../../../../arm-none-eabi/lib/armv7e-m//libc.a(lib_a-impure.o)
 .data._impure_ptr
                0x1fff88d8        0x4 /home/dhylands/gcc-arm-none-eabi/bin/../lib/gcc/arm-none-eabi/4.8.3/../../../../arm-none-eabi/lib/armv7e-m//libc.a(lib_a-impure.o)
                0x1fff88d8                _impure_ptr
                0x1fff88dc                . = ALIGN (0x4)
                0x1fff88dc                _edata = .
                0x0002ed00                _staticfs = (LOADADDR (.data) + SIZEOF (.data))

.igot.plt       0x1fff88dc        0x0 load address 0x0002ed00
 .igot.plt      0x00000000        0x0 build/py/nlrthumb.o

.noinit
 *(.noinit*)

.bss            0x1fff88dc      0x38c load address 0x0002ed00
                0x1fff88dc                . = ALIGN (0x4)
                0x1fff88dc                _sbss = .
 *(.bss*)
 .bss.pyb_config_main
                0x1fff88dc        0x4 build/main.o
 .bss.pyb_config_usb_mode
                0x1fff88e0        0x4 build/main.o
 .bss.pyb_config_source_dir
                0x1fff88e4        0x4 build/main.o
 .bss.pyb_timer_obj_all
                0x1fff88e8        0xc build/timer.o
 .bss.pin_class_debug
                0x1fff88f4        0x1 build/stmhal/pin.o
 .bss.repl_display_debugging_info
                0x1fff88f5        0x1 build/stmhal/pyexec.o
 *fill*         0x1fff88f6        0x2 
 .bss.intFunc   0x1fff88f8       0x88 build/core/pins_teensy.o
 .bss.systick_millis_count
                0x1fff8980        0x4 build/core/pins_teensy.o
                0x1fff8980                systick_millis_count
 .bss.calibrating
                0x1fff8984        0x1 build/core/analog.o
 .bss.analog_reference_internal
                0x1fff8985        0x1 build/core/analog.o
 *fill*         0x1fff8986        0x2 
 .bss.ep0_tx_ptr
                0x1fff8988        0x4 build/core/usb_dev.o
 .bss.rx_last   0x1fff898c       0x10 build/core/usb_dev.o
 .bss.tx_state  0x1fff899c        0x4 build/core/usb_dev.o
 .bss.ep0_rx0_buf
                0x1fff89a0       0x40 build/core/usb_dev.o
 .bss.rx_first  0x1fff89e0       0x10 build/core/usb_dev.o
 .bss.ep0_tx_bdt_bank
                0x1fff89f0        0x1 build/core/usb_dev.o
 .bss.usb_reboot_timer
                0x1fff89f1        0x1 build/core/usb_dev.o
                0x1fff89f1                usb_reboot_timer
 *fill*         0x1fff89f2        0x2 
 .bss.ep0_rx1_buf
                0x1fff89f4       0x40 build/core/usb_dev.o
 .bss.tx_first  0x1fff8a34       0x10 build/core/usb_dev.o
 .bss.tx_last   0x1fff8a44       0x10 build/core/usb_dev.o
 .bss.setup     0x1fff8a54        0x8 build/core/usb_dev.o
 .bss.ep0_tx_len
                0x1fff8a5c        0x2 build/core/usb_dev.o
 .bss.usb_rx_memory_needed
                0x1fff8a5e        0x1 build/core/usb_dev.o
                0x1fff8a5e                usb_rx_memory_needed
 .bss.reply_buffer
                0x1fff8a5f        0x8 build/core/usb_dev.o
 .bss.usb_configuration
                0x1fff8a67        0x1 build/core/usb_dev.o
                0x1fff8a67                usb_configuration
 .bss.ep0_tx_data_toggle
                0x1fff8a68        0x1 build/core/usb_dev.o
 .bss.usb_cdc_transmit_flush_timer
                0x1fff8a69        0x1 build/core/usb_serial.o
                0x1fff8a69                usb_cdc_transmit_flush_timer
 .bss.tx_noautoflush
                0x1fff8a6a        0x1 build/core/usb_serial.o
 *fill*         0x1fff8a6b        0x1 
 .bss.tx_packet
                0x1fff8a6c        0x4 build/core/usb_serial.o
 .bss.transmit_previous_timeout
                0x1fff8a70        0x1 build/core/usb_serial.o
 *fill*         0x1fff8a71        0x3 
 .bss.rx_packet
                0x1fff8a74        0x4 build/core/usb_serial.o
 .bss.usb_cdc_line_rtsdtr
                0x1fff8a78        0x1 build/core/usb_serial.o
                0x1fff8a78                usb_cdc_line_rtsdtr
 *fill*         0x1fff8a79        0x3 
 .bss.rl        0x1fff8a7c       0x18 build/lib/mp-readline/readline.o
 *(COMMON)
 COMMON         0x1fff8a94      0x1c4 build/py/mpstate.o
                0x1fff8a94                mp_state_ctx
 COMMON         0x1fff8c58        0x8 build/core/usb_dev.o
                0x1fff8c58                usb_rx_byte_count_data
 COMMON         0x1fff8c60        0x8 build/core/usb_serial.o
                0x1fff8c60                usb_cdc_line_coding
                0x1fff8c68                . = ALIGN (0x4)
                0x1fff8c68                _ebss = .
                0x1fff8c68                __bss_end = .

.heap           0x1fff8c68     0x4000 load address 0x0002f08c
                0x1fff8c68                . = ALIGN (0x4)
                0x1fff8c68                _heap_start = .
                0x1fffcc68                . = (. + _minimum_heap_size)
 *fill*         0x1fff8c68     0x4000 

.stack          0x1fffcc68      0x800 load address 0x0003308c
                0x1fffcc68                . = ALIGN (0x4)
                0x1fffd468                . = (. + _minimum_stack_size)
 *fill*         0x1fffcc68      0x800 
                0x1fffd468                . = ALIGN (0x4)
                0x20008000                _estack = (ORIGIN (RAM) + 0x10000)
                0x20008000                _ram_end = (ORIGIN (RAM) + 0x10000)
                0x20006000                _heap_end = (ORIGIN (RAM) + 0xe000)
OUTPUT(build/micropython.elf elf32-littlearm)

.comment        0x00000000       0xab
 .comment       0x00000000       0x70 build/py/mpstate.o
                                 0x71 (size before relaxing)
 .comment       0x00000000       0x71 build/py/malloc.o
 .comment       0x00000000       0x71 build/py/gc.o
 .comment       0x00000000       0x71 build/py/qstr.o
 .comment       0x00000000       0x71 build/py/vstr.o
 .comment       0x00000000       0x71 build/py/unicode.o
 .comment       0x00000000       0x71 build/py/mpz.o
 .comment       0x00000000       0x71 build/py/lexer.o
 .comment       0x00000000       0x71 build/py/lexerstr.o
 .comment       0x00000000       0x71 build/py/parse.o
 .comment       0x00000000       0x71 build/py/scope.o
 .comment       0x00000000       0x71 build/py/compile.o
 .comment       0x00000000       0x71 build/py/emitcommon.o
 .comment       0x00000000       0x71 build/py/emitpass1.o
 .comment       0x00000000       0x71 build/py/emitbc.o
 .comment       0x00000000       0x71 build/py/asmthumb.o
 .comment       0x00000000       0x71 build/py/emitnthumb.o
 .comment       0x00000000       0x71 build/py/emitinlinethumb.o
 .comment       0x00000000       0x71 build/py/formatfloat.o
 .comment       0x00000000       0x71 build/py/parsenumbase.o
 .comment       0x00000000       0x71 build/py/parsenum.o
 .comment       0x00000000       0x71 build/py/emitglue.o
 .comment       0x00000000       0x71 build/py/runtime.o
 .comment       0x00000000       0x71 build/py/nativeglue.o
 .comment       0x00000000       0x71 build/py/stackctrl.o
 .comment       0x00000000       0x71 build/py/argcheck.o
 .comment       0x00000000       0x71 build/py/map.o
 .comment       0x00000000       0x71 build/py/obj.o
 .comment       0x00000000       0x71 build/py/objarray.o
 .comment       0x00000000       0x71 build/py/objbool.o
 .comment       0x00000000       0x71 build/py/objboundmeth.o
 .comment       0x00000000       0x71 build/py/objcell.o
 .comment       0x00000000       0x71 build/py/objclosure.o
 .comment       0x00000000       0x71 build/py/objcomplex.o
 .comment       0x00000000       0x71 build/py/objdict.o
 .comment       0x00000000       0x71 build/py/objenumerate.o
 .comment       0x00000000       0x71 build/py/objexcept.o
 .comment       0x00000000       0x71 build/py/objfilter.o
 .comment       0x00000000       0x71 build/py/objfloat.o
 .comment       0x00000000       0x71 build/py/objfun.o
 .comment       0x00000000       0x71 build/py/objgenerator.o
 .comment       0x00000000       0x71 build/py/objgetitemiter.o
 .comment       0x00000000       0x71 build/py/objint.o
 .comment       0x00000000       0x71 build/py/objint_mpz.o
 .comment       0x00000000       0x71 build/py/objlist.o
 .comment       0x00000000       0x71 build/py/objmap.o
 .comment       0x00000000       0x71 build/py/objmodule.o
 .comment       0x00000000       0x71 build/py/objobject.o
 .comment       0x00000000       0x71 build/py/objproperty.o
 .comment       0x00000000       0x71 build/py/objnone.o
 .comment       0x00000000       0x71 build/py/objnamedtuple.o
 .comment       0x00000000       0x71 build/py/objrange.o
 .comment       0x00000000       0x71 build/py/objreversed.o
 .comment       0x00000000       0x71 build/py/objset.o
 .comment       0x00000000       0x71 build/py/objslice.o
 .comment       0x00000000       0x71 build/py/objstr.o
 .comment       0x00000000       0x71 build/py/objtuple.o
 .comment       0x00000000       0x71 build/py/objtype.o
 .comment       0x00000000       0x71 build/py/objzip.o
 .comment       0x00000000       0x71 build/py/opmethods.o
 .comment       0x00000000       0x71 build/py/sequence.o
 .comment       0x00000000       0x71 build/py/stream.o
 .comment       0x00000000       0x71 build/py/binary.o
 .comment       0x00000000       0x71 build/py/builtinimport.o
 .comment       0x00000000       0x71 build/py/builtinevex.o
 .comment       0x00000000       0x71 build/py/modarray.o
 .comment       0x00000000       0x71 build/py/modbuiltins.o
 .comment       0x00000000       0x71 build/py/modcollections.o
 .comment       0x00000000       0x71 build/py/modgc.o
 .comment       0x00000000       0x71 build/py/modmath.o
 .comment       0x00000000       0x71 build/py/modcmath.o
 .comment       0x00000000       0x71 build/py/modmicropython.o
 .comment       0x00000000       0x71 build/py/modstruct.o
 .comment       0x00000000       0x71 build/py/modsys.o
 .comment       0x00000000       0x71 build/py/vm.o
 .comment       0x00000000       0x71 build/py/bc.o
 .comment       0x00000000       0x71 build/py/repl.o
 .comment       0x00000000       0x71 build/py/smallint.o
 .comment       0x00000000       0x71 build/py/pfenv.o
 .comment       0x00000000       0x71 build/py/pfenv_printf.o
 .comment       0x00000000       0x71 build/hal_ftm.o
 .comment       0x00000000       0x71 build/hal_gpio.o
 .comment       0x00000000       0x71 build/help.o
 .comment       0x00000000       0x71 build/import.o
 .comment       0x00000000       0x71 build/main.o
 .comment       0x00000000       0x71 build/led.o
 .comment       0x00000000       0x71 build/lexermemzip.o
 .comment       0x00000000       0x71 build/memzip.o
 .comment       0x00000000       0x71 build/modpyb.o
 .comment       0x00000000       0x71 build/pin_defs_teensy.o
 .comment       0x00000000       0x71 build/teensy_hal.o
 .comment       0x00000000       0x71 build/timer.o
 .comment       0x00000000       0x71 build/uart.o
 .comment       0x00000000       0x71 build/usb.o
 .comment       0x00000000       0x71 build/stmhal/gccollect.o
 .comment       0x00000000       0x71 build/stmhal/input.o
 .comment       0x00000000       0x71 build/stmhal/irq.o
 .comment       0x00000000       0x71 build/stmhal/pin.o
 .comment       0x00000000       0x71 build/stmhal/pin_named_pins.o
 .comment       0x00000000       0x71 build/stmhal/printf.o
 .comment       0x00000000       0x71 build/stmhal/pyexec.o
 .comment       0x00000000       0x71 build/stmhal/pybstdio.o
 .comment       0x00000000       0x71 build/stmhal/string0.o
 .comment       0x00000070       0x3b build/core/mk20dx128.o
                                 0x3c (size before relaxing)
 .comment       0x00000000       0x3c build/core/pins_teensy.o
 .comment       0x00000000       0x3c build/core/analog.o
 .comment       0x00000000       0x3c build/core/usb_desc.o
 .comment       0x00000000       0x3c build/core/usb_dev.o
 .comment       0x00000000       0x3c build/core/usb_mem.o
 .comment       0x00000000       0x3c build/core/usb_serial.o
 .comment       0x00000000       0x3c build/core/yield.o
 .comment       0x00000000       0x71 build/lib/mp-readline/readline.o
 .comment       0x00000000       0x71 build/pins_gen.o

.ARM.attributes
                0x00000000       0x31
 .ARM.attributes
                0x00000000       0x33 build/py/mpstate.o
 .ARM.attributes
                0x00000033       0x21 build/py/nlrthumb.o
 .ARM.attributes
                0x00000054       0x33 build/py/malloc.o
 .ARM.attributes
                0x00000087       0x33 build/py/gc.o
 .ARM.attributes
                0x000000ba       0x33 build/py/qstr.o
 .ARM.attributes
                0x000000ed       0x33 build/py/vstr.o
 .ARM.attributes
                0x00000120       0x33 build/py/unicode.o
 .ARM.attributes
                0x00000153       0x33 build/py/mpz.o
 .ARM.attributes
                0x00000186       0x33 build/py/lexer.o
 .ARM.attributes
                0x000001b9       0x33 build/py/lexerstr.o
 .ARM.attributes
                0x000001ec       0x33 build/py/parse.o
 .ARM.attributes
                0x0000021f       0x33 build/py/scope.o
 .ARM.attributes
                0x00000252       0x33 build/py/compile.o
 .ARM.attributes
                0x00000285       0x33 build/py/emitcommon.o
 .ARM.attributes
                0x000002b8       0x33 build/py/emitpass1.o
 .ARM.attributes
                0x000002eb       0x33 build/py/emitbc.o
 .ARM.attributes
                0x0000031e       0x33 build/py/asmthumb.o
 .ARM.attributes
                0x00000351       0x33 build/py/emitnthumb.o
 .ARM.attributes
                0x00000384       0x33 build/py/emitinlinethumb.o
 .ARM.attributes
                0x000003b7       0x33 build/py/formatfloat.o
 .ARM.attributes
                0x000003ea       0x33 build/py/parsenumbase.o
 .ARM.attributes
                0x0000041d       0x33 build/py/parsenum.o
 .ARM.attributes
                0x00000450       0x33 build/py/emitglue.o
 .ARM.attributes
                0x00000483       0x33 build/py/runtime.o
 .ARM.attributes
                0x000004b6       0x33 build/py/nativeglue.o
 .ARM.attributes
                0x000004e9       0x33 build/py/stackctrl.o
 .ARM.attributes
                0x0000051c       0x33 build/py/argcheck.o
 .ARM.attributes
                0x0000054f       0x33 build/py/map.o
 .ARM.attributes
                0x00000582       0x33 build/py/obj.o
 .ARM.attributes
                0x000005b5       0x33 build/py/objarray.o
 .ARM.attributes
                0x000005e8       0x33 build/py/objbool.o
 .ARM.attributes
                0x0000061b       0x33 build/py/objboundmeth.o
 .ARM.attributes
                0x0000064e       0x33 build/py/objcell.o
 .ARM.attributes
                0x00000681       0x33 build/py/objclosure.o
 .ARM.attributes
                0x000006b4       0x33 build/py/objcomplex.o
 .ARM.attributes
                0x000006e7       0x33 build/py/objdict.o
 .ARM.attributes
                0x0000071a       0x33 build/py/objenumerate.o
 .ARM.attributes
                0x0000074d       0x33 build/py/objexcept.o
 .ARM.attributes
                0x00000780       0x33 build/py/objfilter.o
 .ARM.attributes
                0x000007b3       0x33 build/py/objfloat.o
 .ARM.attributes
                0x000007e6       0x33 build/py/objfun.o
 .ARM.attributes
                0x00000819       0x33 build/py/objgenerator.o
 .ARM.attributes
                0x0000084c       0x33 build/py/objgetitemiter.o
 .ARM.attributes
                0x0000087f       0x33 build/py/objint.o
 .ARM.attributes
                0x000008b2       0x33 build/py/objint_mpz.o
 .ARM.attributes
                0x000008e5       0x33 build/py/objlist.o
 .ARM.attributes
                0x00000918       0x33 build/py/objmap.o
 .ARM.attributes
                0x0000094b       0x33 build/py/objmodule.o
 .ARM.attributes
                0x0000097e       0x33 build/py/objobject.o
 .ARM.attributes
                0x000009b1       0x33 build/py/objproperty.o
 .ARM.attributes
                0x000009e4       0x33 build/py/objnone.o
 .ARM.attributes
                0x00000a17       0x33 build/py/objnamedtuple.o
 .ARM.attributes
                0x00000a4a       0x33 build/py/objrange.o
 .ARM.attributes
                0x00000a7d       0x33 build/py/objreversed.o
 .ARM.attributes
                0x00000ab0       0x33 build/py/objset.o
 .ARM.attributes
                0x00000ae3       0x33 build/py/objslice.o
 .ARM.attributes
                0x00000b16       0x33 build/py/objstr.o
 .ARM.attributes
                0x00000b49       0x33 build/py/objtuple.o
 .ARM.attributes
                0x00000b7c       0x33 build/py/objtype.o
 .ARM.attributes
                0x00000baf       0x33 build/py/objzip.o
 .ARM.attributes
                0x00000be2       0x33 build/py/opmethods.o
 .ARM.attributes
                0x00000c15       0x33 build/py/sequence.o
 .ARM.attributes
                0x00000c48       0x33 build/py/stream.o
 .ARM.attributes
                0x00000c7b       0x33 build/py/binary.o
 .ARM.attributes
                0x00000cae       0x33 build/py/builtinimport.o
 .ARM.attributes
                0x00000ce1       0x33 build/py/builtinevex.o
 .ARM.attributes
                0x00000d14       0x33 build/py/modarray.o
 .ARM.attributes
                0x00000d47       0x33 build/py/modbuiltins.o
 .ARM.attributes
                0x00000d7a       0x33 build/py/modcollections.o
 .ARM.attributes
                0x00000dad       0x33 build/py/modgc.o
 .ARM.attributes
                0x00000de0       0x33 build/py/modmath.o
 .ARM.attributes
                0x00000e13       0x33 build/py/modcmath.o
 .ARM.attributes
                0x00000e46       0x33 build/py/modmicropython.o
 .ARM.attributes
                0x00000e79       0x33 build/py/modstruct.o
 .ARM.attributes
                0x00000eac       0x33 build/py/modsys.o
 .ARM.attributes
                0x00000edf       0x33 build/py/vm.o
 .ARM.attributes
                0x00000f12       0x33 build/py/bc.o
 .ARM.attributes
                0x00000f45       0x33 build/py/repl.o
 .ARM.attributes
                0x00000f78       0x33 build/py/smallint.o
 .ARM.attributes
                0x00000fab       0x33 build/py/pfenv.o
 .ARM.attributes
                0x00000fde       0x33 build/py/pfenv_printf.o
 .ARM.attributes
                0x00001011       0x33 build/hal_ftm.o
 .ARM.attributes
                0x00001044       0x33 build/hal_gpio.o
 .ARM.attributes
                0x00001077       0x33 build/help.o
 .ARM.attributes
                0x000010aa       0x33 build/import.o
 .ARM.attributes
                0x000010dd       0x33 build/main.o
 .ARM.attributes
                0x00001110       0x33 build/led.o
 .ARM.attributes
                0x00001143       0x33 build/lexermemzip.o
 .ARM.attributes
                0x00001176       0x33 build/memzip.o
 .ARM.attributes
                0x000011a9       0x33 build/modpyb.o
 .ARM.attributes
                0x000011dc       0x33 build/pin_defs_teensy.o
 .ARM.attributes
                0x0000120f       0x33 build/teensy_hal.o
 .ARM.attributes
                0x00001242       0x33 build/timer.o
 .ARM.attributes
                0x00001275       0x33 build/uart.o
 .ARM.attributes
                0x000012a8       0x33 build/usb.o
 .ARM.attributes
                0x000012db       0x33 build/stmhal/gccollect.o
 .ARM.attributes
                0x0000130e       0x33 build/stmhal/input.o
 .ARM.attributes
                0x00001341       0x33 build/stmhal/irq.o
 .ARM.attributes
                0x00001374       0x33 build/stmhal/pin.o
 .ARM.attributes
                0x000013a7       0x33 build/stmhal/pin_named_pins.o
 .ARM.attributes
                0x000013da       0x33 build/stmhal/printf.o
 .ARM.attributes
                0x0000140d       0x33 build/stmhal/pyexec.o
 .ARM.attributes
                0x00001440       0x33 build/stmhal/pybstdio.o
 .ARM.attributes
                0x00001473       0x33 build/stmhal/string0.o
 .ARM.attributes
                0x000014a6       0x21 build/stmhal/gchelper.o
 .ARM.attributes
                0x000014c7       0x33 build/core/mk20dx128.o
 .ARM.attributes
                0x000014fa       0x33 build/core/pins_teensy.o
 .ARM.attributes
                0x0000152d       0x33 build/core/analog.o
 .ARM.attributes
                0x00001560       0x33 build/core/usb_desc.o
 .ARM.attributes
                0x00001593       0x33 build/core/usb_dev.o
 .ARM.attributes
                0x000015c6       0x33 build/core/usb_mem.o
 .ARM.attributes
                0x000015f9       0x33 build/core/usb_serial.o
 .ARM.attributes
                0x0000162c       0x33 build/core/yield.o
 .ARM.attributes
                0x0000165f       0x33 build/lib/mp-readline/readline.o
 .ARM.attributes
                0x00001692       0x33 build/pins_gen.o
 .ARM.attributes
                0x000016c5       0x2e /home/dhylands/gcc-arm-none-eabi/bin/../lib/gcc/arm-none-eabi/4.8.3/../../../../arm-none-eabi/lib/armv7e-m//libm.a(lib_a-sf_asinh.o)
 .ARM.attributes
                0x000016f3       0x2e /home/dhylands/gcc-arm-none-eabi/bin/../lib/gcc/arm-none-eabi/4.8.3/../../../../arm-none-eabi/lib/armv7e-m//libm.a(lib_a-sf_atan.o)
 .ARM.attributes
                0x00001721       0x2e /home/dhylands/gcc-arm-none-eabi/bin/../lib/gcc/arm-none-eabi/4.8.3/../../../../arm-none-eabi/lib/armv7e-m//libm.a(lib_a-sf_ceil.o)
 .ARM.attributes
                0x0000174f       0x2e /home/dhylands/gcc-arm-none-eabi/bin/../lib/gcc/arm-none-eabi/4.8.3/../../../../arm-none-eabi/lib/armv7e-m//libm.a(lib_a-sf_cos.o)
 .ARM.attributes
                0x0000177d       0x2e /home/dhylands/gcc-arm-none-eabi/bin/../lib/gcc/arm-none-eabi/4.8.3/../../../../arm-none-eabi/lib/armv7e-m//libm.a(lib_a-sf_expm1.o)
 .ARM.attributes
                0x000017ab       0x2e /home/dhylands/gcc-arm-none-eabi/bin/../lib/gcc/arm-none-eabi/4.8.3/../../../../arm-none-eabi/lib/armv7e-m//libm.a(lib_a-sf_fabs.o)
 .ARM.attributes
                0x000017d9       0x2e /home/dhylands/gcc-arm-none-eabi/bin/../lib/gcc/arm-none-eabi/4.8.3/../../../../arm-none-eabi/lib/armv7e-m//libm.a(lib_a-sf_floor.o)
 .ARM.attributes
                0x00001807       0x2e /home/dhylands/gcc-arm-none-eabi/bin/../lib/gcc/arm-none-eabi/4.8.3/../../../../arm-none-eabi/lib/armv7e-m//libm.a(lib_a-sf_fpclassify.o)
 .ARM.attributes
                0x00001835       0x2e /home/dhylands/gcc-arm-none-eabi/bin/../lib/gcc/arm-none-eabi/4.8.3/../../../../arm-none-eabi/lib/armv7e-m//libm.a(lib_a-sf_frexp.o)
 .ARM.attributes
                0x00001863       0x2e /home/dhylands/gcc-arm-none-eabi/bin/../lib/gcc/arm-none-eabi/4.8.3/../../../../arm-none-eabi/lib/armv7e-m//libm.a(lib_a-sf_ldexp.o)
 .ARM.attributes
                0x00001891       0x2e /home/dhylands/gcc-arm-none-eabi/bin/../lib/gcc/arm-none-eabi/4.8.3/../../../../arm-none-eabi/lib/armv7e-m//libm.a(lib_a-sf_log1p.o)
 .ARM.attributes
                0x000018bf       0x2e /home/dhylands/gcc-arm-none-eabi/bin/../lib/gcc/arm-none-eabi/4.8.3/../../../../arm-none-eabi/lib/armv7e-m//libm.a(lib_a-sf_log2.o)
 .ARM.attributes
                0x000018ed       0x2e /home/dhylands/gcc-arm-none-eabi/bin/../lib/gcc/arm-none-eabi/4.8.3/../../../../arm-none-eabi/lib/armv7e-m//libm.a(lib_a-sf_modf.o)
 .ARM.attributes
                0x0000191b       0x2e /home/dhylands/gcc-arm-none-eabi/bin/../lib/gcc/arm-none-eabi/4.8.3/../../../../arm-none-eabi/lib/armv7e-m//libm.a(lib_a-sf_round.o)
 .ARM.attributes
                0x00001949       0x2e /home/dhylands/gcc-arm-none-eabi/bin/../lib/gcc/arm-none-eabi/4.8.3/../../../../arm-none-eabi/lib/armv7e-m//libm.a(lib_a-sf_scalbn.o)
 .ARM.attributes
                0x00001977       0x2e /home/dhylands/gcc-arm-none-eabi/bin/../lib/gcc/arm-none-eabi/4.8.3/../../../../arm-none-eabi/lib/armv7e-m//libm.a(lib_a-sf_sin.o)
 .ARM.attributes
                0x000019a5       0x2e /home/dhylands/gcc-arm-none-eabi/bin/../lib/gcc/arm-none-eabi/4.8.3/../../../../arm-none-eabi/lib/armv7e-m//libm.a(lib_a-sf_tan.o)
 .ARM.attributes
                0x000019d3       0x2e /home/dhylands/gcc-arm-none-eabi/bin/../lib/gcc/arm-none-eabi/4.8.3/../../../../arm-none-eabi/lib/armv7e-m//libm.a(lib_a-sf_tanh.o)
 .ARM.attributes
                0x00001a01       0x2e /home/dhylands/gcc-arm-none-eabi/bin/../lib/gcc/arm-none-eabi/4.8.3/../../../../arm-none-eabi/lib/armv7e-m//libm.a(lib_a-wf_acos.o)
 .ARM.attributes
                0x00001a2f       0x2e /home/dhylands/gcc-arm-none-eabi/bin/../lib/gcc/arm-none-eabi/4.8.3/../../../../arm-none-eabi/lib/armv7e-m//libm.a(lib_a-wf_acosh.o)
 .ARM.attributes
                0x00001a5d       0x2e /home/dhylands/gcc-arm-none-eabi/bin/../lib/gcc/arm-none-eabi/4.8.3/../../../../arm-none-eabi/lib/armv7e-m//libm.a(lib_a-wf_asin.o)
 .ARM.attributes
                0x00001a8b       0x2e /home/dhylands/gcc-arm-none-eabi/bin/../lib/gcc/arm-none-eabi/4.8.3/../../../../arm-none-eabi/lib/armv7e-m//libm.a(lib_a-wf_atan2.o)
 .ARM.attributes
                0x00001ab9       0x2e /home/dhylands/gcc-arm-none-eabi/bin/../lib/gcc/arm-none-eabi/4.8.3/../../../../arm-none-eabi/lib/armv7e-m//libm.a(lib_a-wf_atanh.o)
 .ARM.attributes
                0x00001ae7       0x2e /home/dhylands/gcc-arm-none-eabi/bin/../lib/gcc/arm-none-eabi/4.8.3/../../../../arm-none-eabi/lib/armv7e-m//libm.a(lib_a-wf_cosh.o)
 .ARM.attributes
                0x00001b15       0x2e /home/dhylands/gcc-arm-none-eabi/bin/../lib/gcc/arm-none-eabi/4.8.3/../../../../arm-none-eabi/lib/armv7e-m//libm.a(lib_a-wf_exp.o)
 .ARM.attributes
                0x00001b43       0x2e /home/dhylands/gcc-arm-none-eabi/bin/../lib/gcc/arm-none-eabi/4.8.3/../../../../arm-none-eabi/lib/armv7e-m//libm.a(lib_a-wf_fmod.o)
 .ARM.attributes
                0x00001b71       0x2e /home/dhylands/gcc-arm-none-eabi/bin/../lib/gcc/arm-none-eabi/4.8.3/../../../../arm-none-eabi/lib/armv7e-m//libm.a(lib_a-wf_log.o)
 .ARM.attributes
                0x00001b9f       0x2e /home/dhylands/gcc-arm-none-eabi/bin/../lib/gcc/arm-none-eabi/4.8.3/../../../../arm-none-eabi/lib/armv7e-m//libm.a(lib_a-wf_log10.o)
 .ARM.attributes
                0x00001bcd       0x2e /home/dhylands/gcc-arm-none-eabi/bin/../lib/gcc/arm-none-eabi/4.8.3/../../../../arm-none-eabi/lib/armv7e-m//libm.a(lib_a-wf_pow.o)
 .ARM.attributes
                0x00001bfb       0x2e /home/dhylands/gcc-arm-none-eabi/bin/../lib/gcc/arm-none-eabi/4.8.3/../../../../arm-none-eabi/lib/armv7e-m//libm.a(lib_a-wf_sinh.o)
 .ARM.attributes
                0x00001c29       0x2e /home/dhylands/gcc-arm-none-eabi/bin/../lib/gcc/arm-none-eabi/4.8.3/../../../../arm-none-eabi/lib/armv7e-m//libm.a(lib_a-wf_sqrt.o)
 .ARM.attributes
                0x00001c57       0x2e /home/dhylands/gcc-arm-none-eabi/bin/../lib/gcc/arm-none-eabi/4.8.3/../../../../arm-none-eabi/lib/armv7e-m//libm.a(lib_a-ef_acos.o)
 .ARM.attributes
                0x00001c85       0x2e /home/dhylands/gcc-arm-none-eabi/bin/../lib/gcc/arm-none-eabi/4.8.3/../../../../arm-none-eabi/lib/armv7e-m//libm.a(lib_a-ef_acosh.o)
 .ARM.attributes
                0x00001cb3       0x2e /home/dhylands/gcc-arm-none-eabi/bin/../lib/gcc/arm-none-eabi/4.8.3/../../../../arm-none-eabi/lib/armv7e-m//libm.a(lib_a-ef_asin.o)
 .ARM.attributes
                0x00001ce1       0x2e /home/dhylands/gcc-arm-none-eabi/bin/../lib/gcc/arm-none-eabi/4.8.3/../../../../arm-none-eabi/lib/armv7e-m//libm.a(lib_a-ef_atan2.o)
 .ARM.attributes
                0x00001d0f       0x2e /home/dhylands/gcc-arm-none-eabi/bin/../lib/gcc/arm-none-eabi/4.8.3/../../../../arm-none-eabi/lib/armv7e-m//libm.a(lib_a-ef_atanh.o)
 .ARM.attributes
                0x00001d3d       0x2e /home/dhylands/gcc-arm-none-eabi/bin/../lib/gcc/arm-none-eabi/4.8.3/../../../../arm-none-eabi/lib/armv7e-m//libm.a(lib_a-ef_cosh.o)
 .ARM.attributes
                0x00001d6b       0x2e /home/dhylands/gcc-arm-none-eabi/bin/../lib/gcc/arm-none-eabi/4.8.3/../../../../arm-none-eabi/lib/armv7e-m//libm.a(lib_a-ef_exp.o)
 .ARM.attributes
                0x00001d99       0x2e /home/dhylands/gcc-arm-none-eabi/bin/../lib/gcc/arm-none-eabi/4.8.3/../../../../arm-none-eabi/lib/armv7e-m//libm.a(lib_a-ef_fmod.o)
 .ARM.attributes
                0x00001dc7       0x2e /home/dhylands/gcc-arm-none-eabi/bin/../lib/gcc/arm-none-eabi/4.8.3/../../../../arm-none-eabi/lib/armv7e-m//libm.a(lib_a-ef_log.o)
 .ARM.attributes
                0x00001df5       0x2e /home/dhylands/gcc-arm-none-eabi/bin/../lib/gcc/arm-none-eabi/4.8.3/../../../../arm-none-eabi/lib/armv7e-m//libm.a(lib_a-ef_log10.o)
 .ARM.attributes
                0x00001e23       0x2e /home/dhylands/gcc-arm-none-eabi/bin/../lib/gcc/arm-none-eabi/4.8.3/../../../../arm-none-eabi/lib/armv7e-m//libm.a(lib_a-ef_pow.o)
 .ARM.attributes
                0x00001e51       0x2e /home/dhylands/gcc-arm-none-eabi/bin/../lib/gcc/arm-none-eabi/4.8.3/../../../../arm-none-eabi/lib/armv7e-m//libm.a(lib_a-ef_rem_pio2.o)
 .ARM.attributes
                0x00001e7f       0x2e /home/dhylands/gcc-arm-none-eabi/bin/../lib/gcc/arm-none-eabi/4.8.3/../../../../arm-none-eabi/lib/armv7e-m//libm.a(lib_a-ef_sinh.o)
 .ARM.attributes
                0x00001ead       0x2e /home/dhylands/gcc-arm-none-eabi/bin/../lib/gcc/arm-none-eabi/4.8.3/../../../../arm-none-eabi/lib/armv7e-m//libm.a(lib_a-ef_sqrt.o)
 .ARM.attributes
                0x00001edb       0x2e /home/dhylands/gcc-arm-none-eabi/bin/../lib/gcc/arm-none-eabi/4.8.3/../../../../arm-none-eabi/lib/armv7e-m//libm.a(lib_a-kf_cos.o)
 .ARM.attributes
                0x00001f09       0x2e /home/dhylands/gcc-arm-none-eabi/bin/../lib/gcc/arm-none-eabi/4.8.3/../../../../arm-none-eabi/lib/armv7e-m//libm.a(lib_a-kf_rem_pio2.o)
 .ARM.attributes
                0x00001f37       0x2e /home/dhylands/gcc-arm-none-eabi/bin/../lib/gcc/arm-none-eabi/4.8.3/../../../../arm-none-eabi/lib/armv7e-m//libm.a(lib_a-kf_sin.o)
 .ARM.attributes
                0x00001f65       0x2e /home/dhylands/gcc-arm-none-eabi/bin/../lib/gcc/arm-none-eabi/4.8.3/../../../../arm-none-eabi/lib/armv7e-m//libm.a(lib_a-kf_tan.o)
 .ARM.attributes
                0x00001f93       0x2e /home/dhylands/gcc-arm-none-eabi/bin/../lib/gcc/arm-none-eabi/4.8.3/../../../../arm-none-eabi/lib/armv7e-m//libm.a(lib_a-s_lib_ver.o)
 .ARM.attributes
                0x00001fc1       0x2e /home/dhylands/gcc-arm-none-eabi/bin/../lib/gcc/arm-none-eabi/4.8.3/../../../../arm-none-eabi/lib/armv7e-m//libm.a(lib_a-s_matherr.o)
 .ARM.attributes
                0x00001fef       0x2e /home/dhylands/gcc-arm-none-eabi/bin/../lib/gcc/arm-none-eabi/4.8.3/../../../../arm-none-eabi/lib/armv7e-m//libm.a(lib_a-s_nan.o)
 .ARM.attributes
                0x0000201d       0x2e /home/dhylands/gcc-arm-none-eabi/bin/../lib/gcc/arm-none-eabi/4.8.3/../../../../arm-none-eabi/lib/armv7e-m//libm.a(lib_a-s_rint.o)
 .ARM.attributes
                0x0000204b       0x2e /home/dhylands/gcc-arm-none-eabi/bin/../lib/gcc/arm-none-eabi/4.8.3/../../../../arm-none-eabi/lib/armv7e-m//libm.a(lib_a-sf_copysign.o)
 .ARM.attributes
                0x00002079       0x2e /home/dhylands/gcc-arm-none-eabi/bin/../lib/gcc/arm-none-eabi/4.8.3/../../../../arm-none-eabi/lib/armv7e-m//libm.a(lib_a-sf_finite.o)
 .ARM.attributes
                0x000020a7       0x2e /home/dhylands/gcc-arm-none-eabi/bin/../lib/gcc/arm-none-eabi/4.8.3/../../../../arm-none-eabi/lib/armv7e-m//libm.a(lib_a-sf_nan.o)
 .ARM.attributes
                0x000020d5       0x2e /home/dhylands/gcc-arm-none-eabi/bin/../lib/gcc/arm-none-eabi/4.8.3/../../../../arm-none-eabi/lib/armv7e-m//libc.a(lib_a-errno.o)
 .ARM.attributes
                0x00002103       0x2e /home/dhylands/gcc-arm-none-eabi/bin/../lib/gcc/arm-none-eabi/4.8.3/../../../../arm-none-eabi/lib/armv7e-m//libc.a(lib_a-impure.o)
 .ARM.attributes
                0x00002131       0x1e /home/dhylands/gcc-arm-none-eabi/bin/../lib/gcc/arm-none-eabi/4.8.3/armv7e-m//libgcc.a(_arm_addsubdf3.o)
 .ARM.attributes
                0x0000214f       0x1e /home/dhylands/gcc-arm-none-eabi/bin/../lib/gcc/arm-none-eabi/4.8.3/armv7e-m//libgcc.a(_arm_muldivdf3.o)
 .ARM.attributes
                0x0000216d       0x1e /home/dhylands/gcc-arm-none-eabi/bin/../lib/gcc/arm-none-eabi/4.8.3/armv7e-m//libgcc.a(_arm_cmpdf2.o)
 .ARM.attributes
                0x0000218b       0x1e /home/dhylands/gcc-arm-none-eabi/bin/../lib/gcc/arm-none-eabi/4.8.3/armv7e-m//libgcc.a(_arm_truncdfsf2.o)
 .ARM.attributes
                0x000021a9       0x1e /home/dhylands/gcc-arm-none-eabi/bin/../lib/gcc/arm-none-eabi/4.8.3/armv7e-m//libgcc.a(_arm_addsubsf3.o)
 .ARM.attributes
                0x000021c7       0x1e /home/dhylands/gcc-arm-none-eabi/bin/../lib/gcc/arm-none-eabi/4.8.3/armv7e-m//libgcc.a(_arm_muldivsf3.o)
 .ARM.attributes
                0x000021e5       0x1e /home/dhylands/gcc-arm-none-eabi/bin/../lib/gcc/arm-none-eabi/4.8.3/armv7e-m//libgcc.a(_arm_cmpsf2.o)
 .ARM.attributes
                0x00002203       0x1e /home/dhylands/gcc-arm-none-eabi/bin/../lib/gcc/arm-none-eabi/4.8.3/armv7e-m//libgcc.a(_arm_fixsfsi.o)
 .ARM.attributes
                0x00002221       0x1e /home/dhylands/gcc-arm-none-eabi/bin/../lib/gcc/arm-none-eabi/4.8.3/armv7e-m//libgcc.a(_arm_fixunssfsi.o)

.debug_frame    0x00000000      0x9f0
 .debug_frame   0x00000000       0x30 /home/dhylands/gcc-arm-none-eabi/bin/../lib/gcc/arm-none-eabi/4.8.3/../../../../arm-none-eabi/lib/armv7e-m//libm.a(lib_a-sf_asinh.o)
 .debug_frame   0x00000030       0x30 /home/dhylands/gcc-arm-none-eabi/bin/../lib/gcc/arm-none-eabi/4.8.3/../../../../arm-none-eabi/lib/armv7e-m//libm.a(lib_a-sf_atan.o)
 .debug_frame   0x00000060       0x30 /home/dhylands/gcc-arm-none-eabi/bin/../lib/gcc/arm-none-eabi/4.8.3/../../../../arm-none-eabi/lib/armv7e-m//libm.a(lib_a-sf_ceil.o)
 .debug_frame   0x00000090       0x28 /home/dhylands/gcc-arm-none-eabi/bin/../lib/gcc/arm-none-eabi/4.8.3/../../../../arm-none-eabi/lib/armv7e-m//libm.a(lib_a-sf_cos.o)
 .debug_frame   0x000000b8       0x34 /home/dhylands/gcc-arm-none-eabi/bin/../lib/gcc/arm-none-eabi/4.8.3/../../../../arm-none-eabi/lib/armv7e-m//libm.a(lib_a-sf_expm1.o)
 .debug_frame   0x000000ec       0x20 /home/dhylands/gcc-arm-none-eabi/bin/../lib/gcc/arm-none-eabi/4.8.3/../../../../arm-none-eabi/lib/armv7e-m//libm.a(lib_a-sf_fabs.o)
 .debug_frame   0x0000010c       0x30 /home/dhylands/gcc-arm-none-eabi/bin/../lib/gcc/arm-none-eabi/4.8.3/../../../../arm-none-eabi/lib/armv7e-m//libm.a(lib_a-sf_floor.o)
 .debug_frame   0x0000013c       0x20 /home/dhylands/gcc-arm-none-eabi/bin/../lib/gcc/arm-none-eabi/4.8.3/../../../../arm-none-eabi/lib/armv7e-m//libm.a(lib_a-sf_fpclassify.o)
 .debug_frame   0x0000015c       0x2c /home/dhylands/gcc-arm-none-eabi/bin/../lib/gcc/arm-none-eabi/4.8.3/../../../../arm-none-eabi/lib/armv7e-m//libm.a(lib_a-sf_frexp.o)
 .debug_frame   0x00000188       0x2c /home/dhylands/gcc-arm-none-eabi/bin/../lib/gcc/arm-none-eabi/4.8.3/../../../../arm-none-eabi/lib/armv7e-m//libm.a(lib_a-sf_ldexp.o)
 .debug_frame   0x000001b4       0x34 /home/dhylands/gcc-arm-none-eabi/bin/../lib/gcc/arm-none-eabi/4.8.3/../../../../arm-none-eabi/lib/armv7e-m//libm.a(lib_a-sf_log1p.o)
 .debug_frame   0x000001e8       0x28 /home/dhylands/gcc-arm-none-eabi/bin/../lib/gcc/arm-none-eabi/4.8.3/../../../../arm-none-eabi/lib/armv7e-m//libm.a(lib_a-sf_log2.o)
 .debug_frame   0x00000210       0x2c /home/dhylands/gcc-arm-none-eabi/bin/../lib/gcc/arm-none-eabi/4.8.3/../../../../arm-none-eabi/lib/armv7e-m//libm.a(lib_a-sf_modf.o)
 .debug_frame   0x0000023c       0x28 /home/dhylands/gcc-arm-none-eabi/bin/../lib/gcc/arm-none-eabi/4.8.3/../../../../arm-none-eabi/lib/armv7e-m//libm.a(lib_a-sf_round.o)
 .debug_frame   0x00000264       0x2c /home/dhylands/gcc-arm-none-eabi/bin/../lib/gcc/arm-none-eabi/4.8.3/../../../../arm-none-eabi/lib/armv7e-m//libm.a(lib_a-sf_scalbn.o)
 .debug_frame   0x00000290       0x28 /home/dhylands/gcc-arm-none-eabi/bin/../lib/gcc/arm-none-eabi/4.8.3/../../../../arm-none-eabi/lib/armv7e-m//libm.a(lib_a-sf_sin.o)
 .debug_frame   0x000002b8       0x28 /home/dhylands/gcc-arm-none-eabi/bin/../lib/gcc/arm-none-eabi/4.8.3/../../../../arm-none-eabi/lib/armv7e-m//libm.a(lib_a-sf_tan.o)
 .debug_frame   0x000002e0       0x2c /home/dhylands/gcc-arm-none-eabi/bin/../lib/gcc/arm-none-eabi/4.8.3/../../../../arm-none-eabi/lib/armv7e-m//libm.a(lib_a-sf_tanh.o)
 .debug_frame   0x0000030c       0x30 /home/dhylands/gcc-arm-none-eabi/bin/../lib/gcc/arm-none-eabi/4.8.3/../../../../arm-none-eabi/lib/armv7e-m//libm.a(lib_a-wf_acos.o)
 .debug_frame   0x0000033c       0x30 /home/dhylands/gcc-arm-none-eabi/bin/../lib/gcc/arm-none-eabi/4.8.3/../../../../arm-none-eabi/lib/armv7e-m//libm.a(lib_a-wf_acosh.o)
 .debug_frame   0x0000036c       0x30 /home/dhylands/gcc-arm-none-eabi/bin/../lib/gcc/arm-none-eabi/4.8.3/../../../../arm-none-eabi/lib/armv7e-m//libm.a(lib_a-wf_asin.o)
 .debug_frame   0x0000039c       0x20 /home/dhylands/gcc-arm-none-eabi/bin/../lib/gcc/arm-none-eabi/4.8.3/../../../../arm-none-eabi/lib/armv7e-m//libm.a(lib_a-wf_atan2.o)
 .debug_frame   0x000003bc       0x30 /home/dhylands/gcc-arm-none-eabi/bin/../lib/gcc/arm-none-eabi/4.8.3/../../../../arm-none-eabi/lib/armv7e-m//libm.a(lib_a-wf_atanh.o)
 .debug_frame   0x000003ec       0x30 /home/dhylands/gcc-arm-none-eabi/bin/../lib/gcc/arm-none-eabi/4.8.3/../../../../arm-none-eabi/lib/armv7e-m//libm.a(lib_a-wf_cosh.o)
 .debug_frame   0x0000041c       0x30 /home/dhylands/gcc-arm-none-eabi/bin/../lib/gcc/arm-none-eabi/4.8.3/../../../../arm-none-eabi/lib/armv7e-m//libm.a(lib_a-wf_exp.o)
 .debug_frame   0x0000044c       0x30 /home/dhylands/gcc-arm-none-eabi/bin/../lib/gcc/arm-none-eabi/4.8.3/../../../../arm-none-eabi/lib/armv7e-m//libm.a(lib_a-wf_fmod.o)
 .debug_frame   0x0000047c       0x30 /home/dhylands/gcc-arm-none-eabi/bin/../lib/gcc/arm-none-eabi/4.8.3/../../../../arm-none-eabi/lib/armv7e-m//libm.a(lib_a-wf_log.o)
 .debug_frame   0x000004ac       0x30 /home/dhylands/gcc-arm-none-eabi/bin/../lib/gcc/arm-none-eabi/4.8.3/../../../../arm-none-eabi/lib/armv7e-m//libm.a(lib_a-wf_log10.o)
 .debug_frame   0x000004dc       0x34 /home/dhylands/gcc-arm-none-eabi/bin/../lib/gcc/arm-none-eabi/4.8.3/../../../../arm-none-eabi/lib/armv7e-m//libm.a(lib_a-wf_pow.o)
 .debug_frame   0x00000510       0x30 /home/dhylands/gcc-arm-none-eabi/bin/../lib/gcc/arm-none-eabi/4.8.3/../../../../arm-none-eabi/lib/armv7e-m//libm.a(lib_a-wf_sinh.o)
 .debug_frame   0x00000540       0x30 /home/dhylands/gcc-arm-none-eabi/bin/../lib/gcc/arm-none-eabi/4.8.3/../../../../arm-none-eabi/lib/armv7e-m//libm.a(lib_a-wf_sqrt.o)
 .debug_frame   0x00000570       0x30 /home/dhylands/gcc-arm-none-eabi/bin/../lib/gcc/arm-none-eabi/4.8.3/../../../../arm-none-eabi/lib/armv7e-m//libm.a(lib_a-ef_acos.o)
 .debug_frame   0x000005a0       0x2c /home/dhylands/gcc-arm-none-eabi/bin/../lib/gcc/arm-none-eabi/4.8.3/../../../../arm-none-eabi/lib/armv7e-m//libm.a(lib_a-ef_acosh.o)
 .debug_frame   0x000005cc       0x34 /home/dhylands/gcc-arm-none-eabi/bin/../lib/gcc/arm-none-eabi/4.8.3/../../../../arm-none-eabi/lib/armv7e-m//libm.a(lib_a-ef_asin.o)
 .debug_frame   0x00000600       0x30 /home/dhylands/gcc-arm-none-eabi/bin/../lib/gcc/arm-none-eabi/4.8.3/../../../../arm-none-eabi/lib/armv7e-m//libm.a(lib_a-ef_atan2.o)
 .debug_frame   0x00000630       0x30 /home/dhylands/gcc-arm-none-eabi/bin/../lib/gcc/arm-none-eabi/4.8.3/../../../../arm-none-eabi/lib/armv7e-m//libm.a(lib_a-ef_atanh.o)
 .debug_frame   0x00000660       0x2c /home/dhylands/gcc-arm-none-eabi/bin/../lib/gcc/arm-none-eabi/4.8.3/../../../../arm-none-eabi/lib/armv7e-m//libm.a(lib_a-ef_cosh.o)
 .debug_frame   0x0000068c       0x30 /home/dhylands/gcc-arm-none-eabi/bin/../lib/gcc/arm-none-eabi/4.8.3/../../../../arm-none-eabi/lib/armv7e-m//libm.a(lib_a-ef_exp.o)
 .debug_frame   0x000006bc       0x30 /home/dhylands/gcc-arm-none-eabi/bin/../lib/gcc/arm-none-eabi/4.8.3/../../../../arm-none-eabi/lib/armv7e-m//libm.a(lib_a-ef_fmod.o)
 .debug_frame   0x000006ec       0x38 /home/dhylands/gcc-arm-none-eabi/bin/../lib/gcc/arm-none-eabi/4.8.3/../../../../arm-none-eabi/lib/armv7e-m//libm.a(lib_a-ef_log.o)
 .debug_frame   0x00000724       0x2c /home/dhylands/gcc-arm-none-eabi/bin/../lib/gcc/arm-none-eabi/4.8.3/../../../../arm-none-eabi/lib/armv7e-m//libm.a(lib_a-ef_log10.o)
 .debug_frame   0x00000750       0x38 /home/dhylands/gcc-arm-none-eabi/bin/../lib/gcc/arm-none-eabi/4.8.3/../../../../arm-none-eabi/lib/armv7e-m//libm.a(lib_a-ef_pow.o)
 .debug_frame   0x00000788       0x38 /home/dhylands/gcc-arm-none-eabi/bin/../lib/gcc/arm-none-eabi/4.8.3/../../../../arm-none-eabi/lib/armv7e-m//libm.a(lib_a-ef_rem_pio2.o)
 .debug_frame   0x000007c0       0x30 /home/dhylands/gcc-arm-none-eabi/bin/../lib/gcc/arm-none-eabi/4.8.3/../../../../arm-none-eabi/lib/armv7e-m//libm.a(lib_a-ef_sinh.o)
 .debug_frame   0x000007f0       0x30 /home/dhylands/gcc-arm-none-eabi/bin/../lib/gcc/arm-none-eabi/4.8.3/../../../../arm-none-eabi/lib/armv7e-m//libm.a(lib_a-ef_sqrt.o)
 .debug_frame   0x00000820       0x34 /home/dhylands/gcc-arm-none-eabi/bin/../lib/gcc/arm-none-eabi/4.8.3/../../../../arm-none-eabi/lib/armv7e-m//libm.a(lib_a-kf_cos.o)
 .debug_frame   0x00000854       0x3c /home/dhylands/gcc-arm-none-eabi/bin/../lib/gcc/arm-none-eabi/4.8.3/../../../../arm-none-eabi/lib/armv7e-m//libm.a(lib_a-kf_rem_pio2.o)
 .debug_frame   0x00000890       0x34 /home/dhylands/gcc-arm-none-eabi/bin/../lib/gcc/arm-none-eabi/4.8.3/../../../../arm-none-eabi/lib/armv7e-m//libm.a(lib_a-kf_sin.o)
 .debug_frame   0x000008c4       0x38 /home/dhylands/gcc-arm-none-eabi/bin/../lib/gcc/arm-none-eabi/4.8.3/../../../../arm-none-eabi/lib/armv7e-m//libm.a(lib_a-kf_tan.o)
 .debug_frame   0x000008fc       0x20 /home/dhylands/gcc-arm-none-eabi/bin/../lib/gcc/arm-none-eabi/4.8.3/../../../../arm-none-eabi/lib/armv7e-m//libm.a(lib_a-s_matherr.o)
 .debug_frame   0x0000091c       0x20 /home/dhylands/gcc-arm-none-eabi/bin/../lib/gcc/arm-none-eabi/4.8.3/../../../../arm-none-eabi/lib/armv7e-m//libm.a(lib_a-s_nan.o)
 .debug_frame   0x0000093c       0x34 /home/dhylands/gcc-arm-none-eabi/bin/../lib/gcc/arm-none-eabi/4.8.3/../../../../arm-none-eabi/lib/armv7e-m//libm.a(lib_a-s_rint.o)
 .debug_frame   0x00000970       0x20 /home/dhylands/gcc-arm-none-eabi/bin/../lib/gcc/arm-none-eabi/4.8.3/../../../../arm-none-eabi/lib/armv7e-m//libm.a(lib_a-sf_copysign.o)
 .debug_frame   0x00000990       0x20 /home/dhylands/gcc-arm-none-eabi/bin/../lib/gcc/arm-none-eabi/4.8.3/../../../../arm-none-eabi/lib/armv7e-m//libm.a(lib_a-sf_finite.o)
 .debug_frame   0x000009b0       0x20 /home/dhylands/gcc-arm-none-eabi/bin/../lib/gcc/arm-none-eabi/4.8.3/../../../../arm-none-eabi/lib/armv7e-m//libm.a(lib_a-sf_nan.o)
 .debug_frame   0x000009d0       0x20 /home/dhylands/gcc-arm-none-eabi/bin/../lib/gcc/arm-none-eabi/4.8.3/../../../../arm-none-eabi/lib/armv7e-m//libc.a(lib_a-errno.o)
