Archive member included to satisfy reference by file (symbol)

/usr/lib/x86_64-linux-gnu/libc_nonshared.a(elf-init.oS)
                              /usr/lib/gcc/x86_64-linux-gnu/4.8/../../../x86_64-linux-gnu/crt1.o (__libc_csu_init)
/usr/lib/x86_64-linux-gnu/libc_nonshared.a(stat.oS)
                              build/main.o (stat)

As-needed library included to satisfy reference by file (symbol)

libreadline.so.6              build/input.o (readline)
libdl.so.2                    build/modffi.o (dlclose@@GLIBC_2.2.5)
libffi.so.6                   build/modffi.o (ffi_type_void)
libm.so.6                     build/py/objfloat.o (fmod@@GLIBC_2.2.5)

Allocating common symbols
Common symbol       size              file

mp_showbc_code_start
                    0x8               build/py/showbc.o
mp_state_ctx        0x458             build/py/mpstate.o

Discarded input sections

 .note.GNU-stack
                0x0000000000000000        0x0 /usr/lib/gcc/x86_64-linux-gnu/4.8/../../../x86_64-linux-gnu/crt1.o
 .gnu_debuglink
                0x0000000000000000        0xc /usr/lib/gcc/x86_64-linux-gnu/4.8/../../../x86_64-linux-gnu/crt1.o
 .note.GNU-stack
                0x0000000000000000        0x0 /usr/lib/gcc/x86_64-linux-gnu/4.8/../../../x86_64-linux-gnu/crti.o
 .gnu_debuglink
                0x0000000000000000        0xc /usr/lib/gcc/x86_64-linux-gnu/4.8/../../../x86_64-linux-gnu/crti.o
 .note.GNU-stack
                0x0000000000000000        0x0 /usr/lib/gcc/x86_64-linux-gnu/4.8/crtbegin.o
 .note.GNU-stack
                0x0000000000000000        0x0 build/py/mpstate.o
 .note.GNU-stack
                0x0000000000000000        0x0 build/py/nlrsetjmp.o
 .note.GNU-stack
                0x0000000000000000        0x0 build/py/malloc.o
 .note.GNU-stack
                0x0000000000000000        0x0 build/py/gc.o
 .note.GNU-stack
                0x0000000000000000        0x0 build/py/qstr.o
 .note.GNU-stack
                0x0000000000000000        0x0 build/py/vstr.o
 .note.GNU-stack
                0x0000000000000000        0x0 build/py/unicode.o
 .note.GNU-stack
                0x0000000000000000        0x0 build/py/mpz.o
 .note.GNU-stack
                0x0000000000000000        0x0 build/py/lexer.o
 .note.GNU-stack
                0x0000000000000000        0x0 build/py/lexerstr.o
 .note.GNU-stack
                0x0000000000000000        0x0 build/py/lexerunix.o
 .note.GNU-stack
                0x0000000000000000        0x0 build/py/parse.o
 .note.GNU-stack
                0x0000000000000000        0x0 build/py/scope.o
 .note.GNU-stack
                0x0000000000000000        0x0 build/py/compile.o
 .note.GNU-stack
                0x0000000000000000        0x0 build/py/emitcommon.o
 .note.GNU-stack
                0x0000000000000000        0x0 build/py/emitpass1.o
 .note.GNU-stack
                0x0000000000000000        0x0 build/py/emitcpy.o
 .note.GNU-stack
                0x0000000000000000        0x0 build/py/emitbc.o
 .note.GNU-stack
                0x0000000000000000        0x0 build/py/asmx64.o
 .note.GNU-stack
                0x0000000000000000        0x0 build/py/emitnx64.o
 .note.GNU-stack
                0x0000000000000000        0x0 build/py/asmx86.o
 .note.GNU-stack
                0x0000000000000000        0x0 build/py/emitnx86.o
 .note.GNU-stack
                0x0000000000000000        0x0 build/py/asmthumb.o
 .note.GNU-stack
                0x0000000000000000        0x0 build/py/emitnthumb.o
 .note.GNU-stack
                0x0000000000000000        0x0 build/py/emitinlinethumb.o
 .note.GNU-stack
                0x0000000000000000        0x0 build/py/asmarm.o
 .note.GNU-stack
                0x0000000000000000        0x0 build/py/emitnarm.o
 .note.GNU-stack
                0x0000000000000000        0x0 build/py/formatfloat.o
 .note.GNU-stack
                0x0000000000000000        0x0 build/py/parsenumbase.o
 .note.GNU-stack
                0x0000000000000000        0x0 build/py/parsenum.o
 .note.GNU-stack
                0x0000000000000000        0x0 build/py/emitglue.o
 .note.GNU-stack
                0x0000000000000000        0x0 build/py/runtime.o
 .note.GNU-stack
                0x0000000000000000        0x0 build/py/nativeglue.o
 .note.GNU-stack
                0x0000000000000000        0x0 build/py/stackctrl.o
 .note.GNU-stack
                0x0000000000000000        0x0 build/py/argcheck.o
 .note.GNU-stack
                0x0000000000000000        0x0 build/py/warning.o
 .note.GNU-stack
                0x0000000000000000        0x0 build/py/map.o
 .note.GNU-stack
                0x0000000000000000        0x0 build/py/obj.o
 .note.GNU-stack
                0x0000000000000000        0x0 build/py/objarray.o
 .note.GNU-stack
                0x0000000000000000        0x0 build/py/objbool.o
 .note.GNU-stack
                0x0000000000000000        0x0 build/py/objboundmeth.o
 .note.GNU-stack
                0x0000000000000000        0x0 build/py/objcell.o
 .note.GNU-stack
                0x0000000000000000        0x0 build/py/objclosure.o
 .note.GNU-stack
                0x0000000000000000        0x0 build/py/objcomplex.o
 .note.GNU-stack
                0x0000000000000000        0x0 build/py/objdict.o
 .note.GNU-stack
                0x0000000000000000        0x0 build/py/objenumerate.o
 .note.GNU-stack
                0x0000000000000000        0x0 build/py/objexcept.o
 .note.GNU-stack
                0x0000000000000000        0x0 build/py/objfilter.o
 .note.GNU-stack
                0x0000000000000000        0x0 build/py/objfloat.o
 .note.GNU-stack
                0x0000000000000000        0x0 build/py/objfun.o
 .note.GNU-stack
                0x0000000000000000        0x0 build/py/objgenerator.o
 .note.GNU-stack
                0x0000000000000000        0x0 build/py/objgetitemiter.o
 .note.GNU-stack
                0x0000000000000000        0x0 build/py/objint.o
 .note.GNU-stack
                0x0000000000000000        0x0 build/py/objint_longlong.o
 .note.GNU-stack
                0x0000000000000000        0x0 build/py/objint_mpz.o
 .note.GNU-stack
                0x0000000000000000        0x0 build/py/objlist.o
 .note.GNU-stack
                0x0000000000000000        0x0 build/py/objmap.o
 .note.GNU-stack
                0x0000000000000000        0x0 build/py/objmodule.o
 .note.GNU-stack
                0x0000000000000000        0x0 build/py/objobject.o
 .note.GNU-stack
                0x0000000000000000        0x0 build/py/objproperty.o
 .note.GNU-stack
                0x0000000000000000        0x0 build/py/objnone.o
 .note.GNU-stack
                0x0000000000000000        0x0 build/py/objnamedtuple.o
 .note.GNU-stack
                0x0000000000000000        0x0 build/py/objrange.o
 .note.GNU-stack
                0x0000000000000000        0x0 build/py/objreversed.o
 .note.GNU-stack
                0x0000000000000000        0x0 build/py/objset.o
 .note.GNU-stack
                0x0000000000000000        0x0 build/py/objslice.o
 .note.GNU-stack
                0x0000000000000000        0x0 build/py/objstr.o
 .note.GNU-stack
                0x0000000000000000        0x0 build/py/objstrunicode.o
 .note.GNU-stack
                0x0000000000000000        0x0 build/py/objstringio.o
 .note.GNU-stack
                0x0000000000000000        0x0 build/py/objtuple.o
 .note.GNU-stack
                0x0000000000000000        0x0 build/py/objtype.o
 .note.GNU-stack
                0x0000000000000000        0x0 build/py/objzip.o
 .note.GNU-stack
                0x0000000000000000        0x0 build/py/opmethods.o
 .note.GNU-stack
                0x0000000000000000        0x0 build/py/sequence.o
 .note.GNU-stack
                0x0000000000000000        0x0 build/py/stream.o
 .note.GNU-stack
                0x0000000000000000        0x0 build/py/binary.o
 .note.GNU-stack
                0x0000000000000000        0x0 build/py/builtinimport.o
 .note.GNU-stack
                0x0000000000000000        0x0 build/py/builtinevex.o
 .note.GNU-stack
                0x0000000000000000        0x0 build/py/modarray.o
 .note.GNU-stack
                0x0000000000000000        0x0 build/py/modbuiltins.o
 .note.GNU-stack
                0x0000000000000000        0x0 build/py/modcollections.o
 .note.GNU-stack
                0x0000000000000000        0x0 build/py/modgc.o
 .note.GNU-stack
                0x0000000000000000        0x0 build/py/modio.o
 .note.GNU-stack
                0x0000000000000000        0x0 build/py/modmath.o
 .note.GNU-stack
                0x0000000000000000        0x0 build/py/modcmath.o
 .note.GNU-stack
                0x0000000000000000        0x0 build/py/modmicropython.o
 .note.GNU-stack
                0x0000000000000000        0x0 build/py/modstruct.o
 .note.GNU-stack
                0x0000000000000000        0x0 build/py/modsys.o
 .note.GNU-stack
                0x0000000000000000        0x0 build/py/vm.o
 .note.GNU-stack
                0x0000000000000000        0x0 build/py/bc.o
 .note.GNU-stack
                0x0000000000000000        0x0 build/py/showbc.o
 .note.GNU-stack
                0x0000000000000000        0x0 build/py/repl.o
 .note.GNU-stack
                0x0000000000000000        0x0 build/py/smallint.o
 .note.GNU-stack
                0x0000000000000000        0x0 build/py/pfenv.o
 .note.GNU-stack
                0x0000000000000000        0x0 build/py/pfenv_printf.o
 .note.GNU-stack
                0x0000000000000000        0x0 build/py/frozenmod.o
 .note.GNU-stack
                0x0000000000000000        0x0 build/py/../extmod/moductypes.o
 .note.GNU-stack
                0x0000000000000000        0x0 build/py/../extmod/modujson.o
 .note.GNU-stack
                0x0000000000000000        0x0 build/py/../extmod/modure.o
 .note.GNU-stack
                0x0000000000000000        0x0 build/py/../extmod/moduzlib.o
 .note.GNU-stack
                0x0000000000000000        0x0 build/py/../extmod/moduheapq.o
 .note.GNU-stack
                0x0000000000000000        0x0 build/py/../extmod/moduhashlib.o
 .note.GNU-stack
                0x0000000000000000        0x0 build/py/../extmod/modubinascii.o
 .note.GNU-stack
                0x0000000000000000        0x0 build/main.o
 .note.GNU-stack
                0x0000000000000000        0x0 build/gccollect.o
 .note.GNU-stack
                0x0000000000000000        0x0 build/input.o
 .note.GNU-stack
                0x0000000000000000        0x0 build/file.o
 .note.GNU-stack
                0x0000000000000000        0x0 build/modos.o
 .note.GNU-stack
                0x0000000000000000        0x0 build/alloc.o
 .note.GNU-stack
                0x0000000000000000        0x0 build/modtime.o
 .note.GNU-stack
                0x0000000000000000        0x0 build/modtermios.o
 .note.GNU-stack
                0x0000000000000000        0x0 build/modsocket.o
 .note.GNU-stack
                0x0000000000000000        0x0 build/modffi.o
 .note.GNU-stack
                0x0000000000000000        0x0 /usr/lib/x86_64-linux-gnu/libc_nonshared.a(elf-init.oS)
 .note.GNU-stack
                0x0000000000000000        0x0 /usr/lib/x86_64-linux-gnu/libc_nonshared.a(stat.oS)
 .note.GNU-stack
                0x0000000000000000        0x0 /usr/lib/gcc/x86_64-linux-gnu/4.8/crtend.o
 .note.GNU-stack
                0x0000000000000000        0x0 /usr/lib/gcc/x86_64-linux-gnu/4.8/../../../x86_64-linux-gnu/crtn.o
 .gnu_debuglink
                0x0000000000000000        0xc /usr/lib/gcc/x86_64-linux-gnu/4.8/../../../x86_64-linux-gnu/crtn.o

Memory Configuration

Name             Origin             Length             Attributes
*default*        0x0000000000000000 0xffffffffffffffff

Linker script and memory map

LOAD /usr/lib/gcc/x86_64-linux-gnu/4.8/../../../x86_64-linux-gnu/crt1.o
LOAD /usr/lib/gcc/x86_64-linux-gnu/4.8/../../../x86_64-linux-gnu/crti.o
LOAD /usr/lib/gcc/x86_64-linux-gnu/4.8/crtbegin.o
LOAD build/py/mpstate.o
LOAD build/py/nlrx86.o
LOAD build/py/nlrx64.o
LOAD build/py/nlrthumb.o
LOAD build/py/nlrxtensa.o
LOAD build/py/nlrsetjmp.o
LOAD build/py/malloc.o
LOAD build/py/gc.o
LOAD build/py/qstr.o
LOAD build/py/vstr.o
LOAD build/py/unicode.o
LOAD build/py/mpz.o
LOAD build/py/lexer.o
LOAD build/py/lexerstr.o
LOAD build/py/lexerunix.o
LOAD build/py/parse.o
LOAD build/py/scope.o
LOAD build/py/compile.o
LOAD build/py/emitcommon.o
LOAD build/py/emitpass1.o
LOAD build/py/emitcpy.o
LOAD build/py/emitbc.o
LOAD build/py/asmx64.o
LOAD build/py/emitnx64.o
LOAD build/py/asmx86.o
LOAD build/py/emitnx86.o
LOAD build/py/asmthumb.o
LOAD build/py/emitnthumb.o
LOAD build/py/emitinlinethumb.o
LOAD build/py/asmarm.o
LOAD build/py/emitnarm.o
LOAD build/py/formatfloat.o
LOAD build/py/parsenumbase.o
LOAD build/py/parsenum.o
LOAD build/py/emitglue.o
LOAD build/py/runtime.o
LOAD build/py/nativeglue.o
LOAD build/py/stackctrl.o
LOAD build/py/argcheck.o
LOAD build/py/warning.o
LOAD build/py/map.o
LOAD build/py/obj.o
LOAD build/py/objarray.o
LOAD build/py/objbool.o
LOAD build/py/objboundmeth.o
LOAD build/py/objcell.o
LOAD build/py/objclosure.o
LOAD build/py/objcomplex.o
LOAD build/py/objdict.o
LOAD build/py/objenumerate.o
LOAD build/py/objexcept.o
LOAD build/py/objfilter.o
LOAD build/py/objfloat.o
LOAD build/py/objfun.o
LOAD build/py/objgenerator.o
LOAD build/py/objgetitemiter.o
LOAD build/py/objint.o
LOAD build/py/objint_longlong.o
LOAD build/py/objint_mpz.o
LOAD build/py/objlist.o
LOAD build/py/objmap.o
LOAD build/py/objmodule.o
LOAD build/py/objobject.o
LOAD build/py/objproperty.o
LOAD build/py/objnone.o
LOAD build/py/objnamedtuple.o
LOAD build/py/objrange.o
LOAD build/py/objreversed.o
LOAD build/py/objset.o
LOAD build/py/objslice.o
LOAD build/py/objstr.o
LOAD build/py/objstrunicode.o
LOAD build/py/objstringio.o
LOAD build/py/objtuple.o
LOAD build/py/objtype.o
LOAD build/py/objzip.o
LOAD build/py/opmethods.o
LOAD build/py/sequence.o
LOAD build/py/stream.o
LOAD build/py/binary.o
LOAD build/py/builtinimport.o
LOAD build/py/builtinevex.o
LOAD build/py/modarray.o
LOAD build/py/modbuiltins.o
LOAD build/py/modcollections.o
LOAD build/py/modgc.o
LOAD build/py/modio.o
LOAD build/py/modmath.o
LOAD build/py/modcmath.o
LOAD build/py/modmicropython.o
LOAD build/py/modstruct.o
LOAD build/py/modsys.o
LOAD build/py/vm.o
LOAD build/py/bc.o
LOAD build/py/showbc.o
LOAD build/py/repl.o
LOAD build/py/smallint.o
LOAD build/py/pfenv.o
LOAD build/py/pfenv_printf.o
LOAD build/py/frozenmod.o
LOAD build/py/../extmod/moductypes.o
LOAD build/py/../extmod/modujson.o
LOAD build/py/../extmod/modure.o
LOAD build/py/../extmod/moduzlib.o
LOAD build/py/../extmod/moduheapq.o
LOAD build/py/../extmod/moduhashlib.o
LOAD build/py/../extmod/modubinascii.o
LOAD build/main.o
LOAD build/gccollect.o
LOAD build/input.o
LOAD build/file.o
LOAD build/modos.o
LOAD build/alloc.o
LOAD build/modtime.o
LOAD build/modtermios.o
LOAD build/modsocket.o
LOAD build/modffi.o
LOAD /usr/lib/gcc/x86_64-linux-gnu/4.8/../../../x86_64-linux-gnu/libreadline.so
LOAD /usr/lib/gcc/x86_64-linux-gnu/4.8/../../../x86_64-linux-gnu/libdl.so
LOAD /usr/lib/gcc/x86_64-linux-gnu/4.8/../../../x86_64-linux-gnu/libffi.so
LOAD /usr/lib/gcc/x86_64-linux-gnu/4.8/../../../x86_64-linux-gnu/libm.so
LOAD /usr/lib/gcc/x86_64-linux-gnu/4.8/libgcc.a
LOAD /usr/lib/gcc/x86_64-linux-gnu/4.8/libgcc_s.so
LOAD /usr/lib/gcc/x86_64-linux-gnu/4.8/../../../x86_64-linux-gnu/libc.so
START GROUP
LOAD /lib/x86_64-linux-gnu/libc.so.6
LOAD /usr/lib/x86_64-linux-gnu/libc_nonshared.a
LOAD /lib/x86_64-linux-gnu/ld-linux-x86-64.so.2
END GROUP
LOAD /usr/lib/gcc/x86_64-linux-gnu/4.8/libgcc.a
LOAD /usr/lib/gcc/x86_64-linux-gnu/4.8/libgcc_s.so
LOAD /usr/lib/gcc/x86_64-linux-gnu/4.8/crtend.o
LOAD /usr/lib/gcc/x86_64-linux-gnu/4.8/../../../x86_64-linux-gnu/crtn.o
                0x0000000000400000                PROVIDE (__executable_start, 0x400000)
                0x0000000000400238                . = (0x400000 + SIZEOF_HEADERS)

.interp         0x0000000000400238       0x1c
 *(.interp)
 .interp        0x0000000000400238       0x1c /usr/lib/gcc/x86_64-linux-gnu/4.8/../../../x86_64-linux-gnu/crt1.o

.note.ABI-tag   0x0000000000400254       0x20
 .note.ABI-tag  0x0000000000400254       0x20 /usr/lib/gcc/x86_64-linux-gnu/4.8/../../../x86_64-linux-gnu/crt1.o

.note.gnu.build-id
                0x0000000000400274       0x24
 *(.note.gnu.build-id)
 .note.gnu.build-id
                0x0000000000400274       0x24 /usr/lib/gcc/x86_64-linux-gnu/4.8/../../../x86_64-linux-gnu/crt1.o

.hash
 *(.hash)

.gnu.hash       0x0000000000400298       0xac
 *(.gnu.hash)
 .gnu.hash      0x0000000000400298       0xac /usr/lib/gcc/x86_64-linux-gnu/4.8/../../../x86_64-linux-gnu/crt1.o

.dynsym         0x0000000000400348      0xc48
 *(.dynsym)
 .dynsym        0x0000000000400348      0xc48 /usr/lib/gcc/x86_64-linux-gnu/4.8/../../../x86_64-linux-gnu/crt1.o

.dynstr         0x0000000000400f90      0x502
 *(.dynstr)
 .dynstr        0x0000000000400f90      0x502 /usr/lib/gcc/x86_64-linux-gnu/4.8/../../../x86_64-linux-gnu/crt1.o

.gnu.version    0x0000000000401492      0x106
 *(.gnu.version)
 .gnu.version   0x0000000000401492      0x106 /usr/lib/gcc/x86_64-linux-gnu/4.8/../../../x86_64-linux-gnu/crt1.o

.gnu.version_d  0x0000000000401598        0x0
 *(.gnu.version_d)
 .gnu.version_d
                0x0000000000000000        0x0 /usr/lib/gcc/x86_64-linux-gnu/4.8/../../../x86_64-linux-gnu/crt1.o

.gnu.version_r  0x0000000000401598       0xa0
 *(.gnu.version_r)
 .gnu.version_r
                0x0000000000401598       0xa0 /usr/lib/gcc/x86_64-linux-gnu/4.8/../../../x86_64-linux-gnu/crt1.o

.rela.dyn       0x0000000000401638      0x150
 *(.rela.init)
 *(.rela.text .rela.text.* .rela.gnu.linkonce.t.*)
 .rela.text     0x0000000000000000        0x0 /usr/lib/gcc/x86_64-linux-gnu/4.8/../../../x86_64-linux-gnu/crt1.o
 .rela.text.unlikely
                0x0000000000000000        0x0 /usr/lib/gcc/x86_64-linux-gnu/4.8/../../../x86_64-linux-gnu/crt1.o
 .rela.text.startup
                0x0000000000000000        0x0 /usr/lib/gcc/x86_64-linux-gnu/4.8/../../../x86_64-linux-gnu/crt1.o
 *(.rela.fini)
 *(.rela.rodata .rela.rodata.* .rela.gnu.linkonce.r.*)
 .rela.rodata   0x0000000000000000        0x0 /usr/lib/gcc/x86_64-linux-gnu/4.8/../../../x86_64-linux-gnu/crt1.o
 *(.rela.data .rela.data.* .rela.gnu.linkonce.d.*)
 *(.rela.tdata .rela.tdata.* .rela.gnu.linkonce.td.*)
 *(.rela.tbss .rela.tbss.* .rela.gnu.linkonce.tb.*)
 *(.rela.ctors)
 *(.rela.dtors)
 *(.rela.got)
 .rela.got      0x0000000000401638       0x18 /usr/lib/gcc/x86_64-linux-gnu/4.8/../../../x86_64-linux-gnu/crt1.o
 *(.rela.bss .rela.bss.* .rela.gnu.linkonce.b.*)
 .rela.bss      0x0000000000401650      0x138 /usr/lib/gcc/x86_64-linux-gnu/4.8/../../../x86_64-linux-gnu/crt1.o
 *(.rela.ldata .rela.ldata.* .rela.gnu.linkonce.l.*)
 *(.rela.lbss .rela.lbss.* .rela.gnu.linkonce.lb.*)
 *(.rela.lrodata .rela.lrodata.* .rela.gnu.linkonce.lr.*)
 *(.rela.ifunc)

.rela.plt       0x0000000000401788      0xa38
 *(.rela.plt)
 .rela.plt      0x0000000000401788      0xa38 /usr/lib/gcc/x86_64-linux-gnu/4.8/../../../x86_64-linux-gnu/crt1.o
                0x00000000004021c0                PROVIDE (__rela_iplt_start, .)
 *(.rela.iplt)
 .rela.iplt     0x0000000000000000        0x0 /usr/lib/gcc/x86_64-linux-gnu/4.8/../../../x86_64-linux-gnu/crt1.o
                0x00000000004021c0                PROVIDE (__rela_iplt_end, .)

.init           0x00000000004021c0       0x1a
 *(SORT(.init))
 .init          0x00000000004021c0       0x15 /usr/lib/gcc/x86_64-linux-gnu/4.8/../../../x86_64-linux-gnu/crti.o
                0x00000000004021c0                _init
 .init          0x00000000004021d5        0x5 /usr/lib/gcc/x86_64-linux-gnu/4.8/../../../x86_64-linux-gnu/crtn.o

.plt            0x00000000004021e0      0x6e0
 *(.plt)
 .plt           0x00000000004021e0      0x6e0 /usr/lib/gcc/x86_64-linux-gnu/4.8/../../../x86_64-linux-gnu/crt1.o
                0x00000000004021f0                getenv@@GLIBC_2.2.5
                0x0000000000402200                erfc@@GLIBC_2.2.5
                0x0000000000402210                ffi_prep_closure_loc
                0x0000000000402220                __snprintf_chk@@GLIBC_2.3.4
                0x0000000000402230                ffi_prep_cif
                0x0000000000402240                free@@GLIBC_2.2.5
                0x0000000000402250                erf@@GLIBC_2.2.5
                0x0000000000402260                recv@@GLIBC_2.2.5
                0x0000000000402270                putchar@@GLIBC_2.2.5
                0x0000000000402280                __vfprintf_chk@@GLIBC_2.3.4
                0x0000000000402290                atanh@@GLIBC_2.2.5
                0x00000000004022a0                __errno_location@@GLIBC_2.2.5
                0x00000000004022b0                ldexp@@GLIBC_2.2.5
                0x00000000004022c0                unlink@@GLIBC_2.2.5
                0x00000000004022d0                round@@GLIBC_2.2.5
                0x00000000004022e0                strncmp@@GLIBC_2.2.5
                0x00000000004022f0                puts@@GLIBC_2.2.5
                0x0000000000402300                __isnan@@GLIBC_2.2.5
                0x0000000000402310                sigaction@@GLIBC_2.2.5
                0x0000000000402320                __finite@@GLIBC_2.2.5
                0x0000000000402330                setsockopt@@GLIBC_2.2.5
                0x0000000000402340                exp@@GLIBC_2.2.5
                0x0000000000402350                __vprintf_chk@@GLIBC_2.3.4
                0x0000000000402360                add_history
                0x0000000000402370                __fpclassify@@GLIBC_2.2.5
                0x0000000000402380                fcntl@@GLIBC_2.2.5
                0x0000000000402390                write@@GLIBC_2.2.5
                0x00000000004023a0                cfgetispeed@@GLIBC_2.2.5
                0x00000000004023b0                lround@@GLIBC_2.2.5
                0x00000000004023c0                atan@@GLIBC_2.2.5
                0x00000000004023d0                clock@@GLIBC_2.2.5
                0x00000000004023e0                __stack_chk_fail@@GLIBC_2.4
                0x00000000004023f0                mmap@@GLIBC_2.2.5
                0x0000000000402400                __isinf@@GLIBC_2.2.5
                0x0000000000402410                system@@GLIBC_2.2.5
                0x0000000000402420                send@@GLIBC_2.2.5
                0x0000000000402430                lgamma@@GLIBC_2.2.5
                0x0000000000402440                strchr@@GLIBC_2.2.5
                0x0000000000402450                modf@@GLIBC_2.2.5
                0x0000000000402460                strrchr@@GLIBC_2.2.5
                0x0000000000402470                lseek@@GLIBC_2.2.5
                0x0000000000402480                gettimeofday@@GLIBC_2.2.5
                0x0000000000402490                log2@@GLIBC_2.2.5
                0x00000000004024a0                __assert_fail@@GLIBC_2.2.5
                0x00000000004024b0                memset@@GLIBC_2.2.5
                0x00000000004024c0                pow@@GLIBC_2.2.5
                0x00000000004024d0                sincos@@GLIBC_2.2.5
                0x00000000004024e0                log@@GLIBC_2.2.5
                0x00000000004024f0                readline
                0x0000000000402500                close@@GLIBC_2.2.5
                0x0000000000402510                __realpath_chk@@GLIBC_2.4
                0x0000000000402520                fmod@@GLIBC_2.2.5
                0x0000000000402530                cos@@GLIBC_2.2.5
                0x0000000000402540                acos@@GLIBC_2.2.5
                0x0000000000402550                read@@GLIBC_2.2.5
                0x0000000000402560                __libc_start_main@@GLIBC_2.2.5
                0x0000000000402570                memcmp@@GLIBC_2.2.5
                0x0000000000402580                frexp@@GLIBC_2.2.5
                0x0000000000402590                tgamma@@GLIBC_2.2.5
                0x00000000004025a0                strcmp@@GLIBC_2.2.5
                0x00000000004025b0                log10@@GLIBC_2.2.5
                0x00000000004025c0                __memcpy_chk@@GLIBC_2.3.4
                0x00000000004025d0                sigemptyset@@GLIBC_2.2.5
                0x00000000004025f0                strtol@@GLIBC_2.2.5
                0x0000000000402600                memcpy@@GLIBC_2.14
                0x0000000000402610                expm1@@GLIBC_2.2.5
                0x0000000000402620                cosh@@GLIBC_2.2.5
                0x0000000000402630                select@@GLIBC_2.2.5
                0x0000000000402640                __xstat@@GLIBC_2.2.5
                0x0000000000402650                dlopen@@GLIBC_2.2.5
                0x0000000000402660                sinh@@GLIBC_2.2.5
                0x0000000000402670                malloc@@GLIBC_2.2.5
                0x0000000000402680                tan@@GLIBC_2.2.5
                0x0000000000402690                listen@@GLIBC_2.2.5
                0x00000000004026a0                ffi_closure_alloc
                0x00000000004026b0                atan2@@GLIBC_2.2.5
                0x00000000004026c0                __vsnprintf_chk@@GLIBC_2.3.4
                0x00000000004026d0                dlclose@@GLIBC_2.2.5
                0x00000000004026e0                munmap@@GLIBC_2.2.5
                0x00000000004026f0                cfgetospeed@@GLIBC_2.2.5
                0x0000000000402700                __printf_chk@@GLIBC_2.3.4
                0x0000000000402710                bind@@GLIBC_2.2.5
                0x0000000000402720                memmove@@GLIBC_2.2.5
                0x0000000000402730                fsync@@GLIBC_2.2.5
                0x0000000000402740                ffi_call
                0x0000000000402750                tcgetattr@@GLIBC_2.2.5
                0x0000000000402760                tcsetattr@@GLIBC_2.2.5
                0x0000000000402770                open@@GLIBC_2.2.5
                0x0000000000402780                cfsetispeed@@GLIBC_2.2.5
                0x0000000000402790                perror@@GLIBC_2.2.5
                0x00000000004027a0                accept@@GLIBC_2.2.5
                0x00000000004027b0                sin@@GLIBC_2.2.5
                0x00000000004027c0                floor@@GLIBC_2.2.5
                0x00000000004027d0                tanh@@GLIBC_2.2.5
                0x00000000004027e0                asin@@GLIBC_2.2.5
                0x00000000004027f0                exit@@GLIBC_2.2.5
                0x0000000000402800                connect@@GLIBC_2.2.5
                0x0000000000402810                __fprintf_chk@@GLIBC_2.3.4
                0x0000000000402820                acosh@@GLIBC_2.2.5
                0x0000000000402830                sqrt@@GLIBC_2.2.5
                0x0000000000402840                getaddrinfo@@GLIBC_2.2.5
                0x0000000000402850                dlsym@@GLIBC_2.2.5
                0x0000000000402860                ceil@@GLIBC_2.2.5
                0x0000000000402870                __ctype_b_loc@@GLIBC_2.3
                0x0000000000402880                freeaddrinfo@@GLIBC_2.2.5
                0x0000000000402890                asinh@@GLIBC_2.2.5
                0x00000000004028a0                __sprintf_chk@@GLIBC_2.3.4
                0x00000000004028b0                socket@@GLIBC_2.2.5
 *(.iplt)
 .iplt          0x0000000000000000        0x0 /usr/lib/gcc/x86_64-linux-gnu/4.8/../../../x86_64-linux-gnu/crt1.o

.text           0x00000000004028c0    0x297a0
 *(.text.unlikely .text.*_unlikely .text.unlikely.*)
 .text.unlikely
                0x00000000004028c0       0x1a build/py/asmx64.o
 .text.unlikely
                0x00000000004028da       0x22 build/py/objstr.o
 .text.unlikely
                0x00000000004028fc       0x18 build/py/objstringio.o
 .text.unlikely
                0x0000000000402914       0x36 build/py/bc.o
 .text.unlikely
                0x000000000040294a       0x18 build/file.o
 *(.text.exit .text.exit.*)
 *(.text.startup .text.startup.*)
 .text.startup  0x0000000000402962      0x7c8 build/main.o
                0x0000000000402962                main
 *(.text.hot .text.hot.*)
 *(.text .stub .text.* .gnu.linkonce.t.*)
 .text          0x000000000040312a       0x2a /usr/lib/gcc/x86_64-linux-gnu/4.8/../../../x86_64-linux-gnu/crt1.o
                0x000000000040312a                _start
 .text          0x0000000000403154        0x0 /usr/lib/gcc/x86_64-linux-gnu/4.8/../../../x86_64-linux-gnu/crti.o
 *fill*         0x0000000000403154        0xc 
 .text          0x0000000000403160       0xbd /usr/lib/gcc/x86_64-linux-gnu/4.8/crtbegin.o
 .text          0x000000000040321d        0x0 build/py/mpstate.o
 .text          0x000000000040321d        0x0 build/py/nlrx86.o
 .text          0x000000000040321d       0x9b build/py/nlrx64.o
                0x000000000040321d                nlr_push
                0x0000000000403256                nlr_pop
                0x0000000000403268                nlr_jump
 .text          0x00000000004032b8        0x0 build/py/nlrthumb.o
 .text          0x00000000004032b8        0x0 build/py/nlrxtensa.o
 .text          0x00000000004032b8        0x0 build/py/nlrsetjmp.o
 .text          0x00000000004032b8      0x1b1 build/py/malloc.o
                0x00000000004032b8                m_malloc
                0x00000000004032fd                m_malloc_maybe
                0x000000000040332f                m_malloc_with_finaliser
                0x0000000000403377                m_malloc0
                0x00000000004033a5                m_realloc
                0x00000000004033f8                m_realloc_maybe
                0x000000000040343f                m_free
                0x0000000000403451                m_get_total_bytes_allocated
                0x0000000000403459                m_get_current_bytes_allocated
                0x0000000000403461                m_get_peak_bytes_allocated
 *fill*         0x0000000000403469        0x7 
 .text          0x0000000000403470     0x1163 build/py/gc.o
                0x00000000004036c0                gc_init
                0x0000000000403790                gc_lock
                0x00000000004037a0                gc_unlock
                0x00000000004037b0                gc_is_locked
                0x00000000004037c0                gc_collect_start
                0x0000000000403890                gc_collect_root
                0x0000000000403960                gc_collect_end
                0x0000000000403b90                gc_info
                0x0000000000403cc0                gc_alloc
                0x0000000000403ec0                gc_free
                0x0000000000403fe0                gc_nbytes
                0x0000000000404070                gc_realloc
                0x0000000000404350                gc_dump_info
                0x00000000004043a0                gc_dump_alloc_table
 .text          0x00000000004045d3      0x422 build/py/qstr.o
                0x000000000040466c                qstr_compute_hash
                0x0000000000404698                qstr_init
                0x00000000004046a4                qstr_find_strn
                0x0000000000404744                qstr_from_strn
                0x00000000004047c4                qstr_from_str
                0x00000000004047de                qstr_build_start
                0x0000000000404825                qstr_build_end
                0x000000000040489c                qstr_hash
                0x00000000004048b3                qstr_len
                0x00000000004048bd                qstr_str
                0x00000000004048c7                qstr_data
                0x00000000004048dd                qstr_pool_info
                0x00000000004049a1                qstr_dump_data
 .text          0x00000000004049f5      0x60f build/py/vstr.o
                0x0000000000404aa3                vstr_init
                0x0000000000404adf                vstr_init_len
                0x0000000000404af5                vstr_init_fixed_buf
                0x0000000000404b11                vstr_clear
                0x0000000000404b31                vstr_new
                0x0000000000404b60                vstr_new_size
                0x0000000000404b92                vstr_free
                0x0000000000404bbd                vstr_reset
                0x0000000000404bca                vstr_had_error
                0x0000000000404bd1                vstr_str
                0x0000000000404bdf                vstr_len
                0x0000000000404bec                vstr_extend
                0x0000000000404c2f                vstr_hint_size
                0x0000000000404c50                vstr_add_len
                0x0000000000404c82                vstr_null_terminated_str
                0x0000000000404cb0                vstr_add_byte
                0x0000000000404cc6                vstr_add_char
                0x0000000000404dba                vstr_add_strn
                0x0000000000404e15                vstr_add_str
                0x0000000000404e32                vstr_ins_byte
                0x0000000000404e43                vstr_ins_char
                0x0000000000404e54                vstr_cut_tail_bytes
                0x0000000000404e74                vstr_cut_out_bytes
                0x0000000000404ebb                vstr_cut_head_bytes
                0x0000000000404ec5                vstr_vprintf
                0x0000000000404f75                vstr_printf
 .text          0x0000000000405004      0x176 build/py/unicode.o
                0x0000000000405004                utf8_get_char
                0x0000000000405042                utf8_next_char
                0x0000000000405056                utf8_ptr_to_index
                0x0000000000405074                unichar_charlen
                0x0000000000405099                unichar_isspace
                0x00000000004050b1                unichar_isalpha
                0x00000000004050ca                unichar_isprint
                0x00000000004050e1                unichar_isdigit
                0x00000000004050fa                unichar_isxdigit
                0x0000000000405120                unichar_isupper
                0x0000000000405139                unichar_islower
                0x0000000000405152                unichar_tolower
                0x0000000000405166                unichar_toupper
 .text          0x000000000040517a     0x1a0c build/py/mpz.o
                0x00000000004053b2                mpz_init_zero
                0x00000000004053ca                mpz_deinit
                0x00000000004053e5                mpz_zero
                0x000000000040540a                mpz_free
                0x0000000000405433                mpz_clone
                0x00000000004054a3                mpz_set
                0x00000000004054ea                mpz_set_from_int
                0x00000000004054fd                mpz_init_from_int
                0x0000000000405521                mpz_init_fixed_from_int
                0x000000000040554f                mpz_from_int
                0x0000000000405577                mpz_set_from_ll
                0x00000000004055de                mpz_from_ll
                0x000000000040560e                mpz_set_from_float
                0x0000000000405767                mpz_from_float
                0x0000000000405793                mpz_set_from_str
                0x000000000040588b                mpz_from_str
                0x00000000004058d0                mpz_is_zero
                0x00000000004058d9                mpz_is_pos
                0x00000000004058ee                mpz_is_neg
                0x0000000000405901                mpz_is_odd
                0x0000000000405917                mpz_is_even
                0x0000000000405933                mpz_cmp
                0x0000000000405976                mpz_abs_inpl
                0x0000000000405989                mpz_neg_inpl
                0x00000000004059a9                mpz_not_inpl
                0x0000000000405a51                mpz_shr_inpl
                0x0000000000405b6a                mpz_shl_inpl
                0x0000000000405c79                mpz_add_inpl
                0x0000000000405d1a                mpz_sub_inpl
                0x0000000000405dd0                mpz_and_inpl
                0x0000000000405f6a                mpz_or_inpl
                0x000000000040603f                mpz_xor_inpl
                0x0000000000406107                mpz_mul_inpl
                0x000000000040624c                mpz_pow_inpl
                0x000000000040630b                mpz_gcd
                0x0000000000406438                mpz_divmod_inpl
                0x00000000004067df                mpz_lcm
                0x000000000040685e                mpz_divmod
                0x000000000040689b                mpz_hash
                0x00000000004068ce                mpz_as_int_checked
                0x0000000000406911                mpz_as_uint_checked
                0x0000000000406950                mpz_as_float
                0x0000000000406993                mpz_as_str_size
                0x00000000004069f4                mpz_as_str_inpl
 .text          0x0000000000406b86      0xc88 build/py/lexer.o
                0x00000000004075e9                mp_lexer_free
                0x000000000040762d                mp_lexer_new
                0x000000000040776c                mp_lexer_to_next
                0x0000000000407773                mp_lexer_show_token
 .text          0x000000000040780e       0x9a build/py/lexerstr.o
                0x000000000040784c                mp_lexer_new_from_str_len
 .text          0x00000000004078a8       0xf5 build/py/lexerunix.o
                0x000000000040791e                mp_lexer_new_from_file
 .text          0x000000000040799d      0xce6 build/py/parse.o
                0x0000000000407be5                mp_parse_node_new_leaf
                0x0000000000407d90                mp_parse_node_free
                0x0000000000407e2e                mp_parse_node_extract_list
                0x0000000000407e65                mp_parse_node_print
                0x0000000000408012                mp_parse
 .text          0x0000000000408683      0x27d build/py/scope.o
                0x0000000000408683                scope_new
                0x000000000040876e                scope_free
                0x0000000000408791                scope_find
                0x00000000004087b5                scope_find_or_add_id
                0x000000000040882f                scope_find_global
                0x0000000000408842                scope_find_local_in_parent
                0x0000000000408870                scope_close_over_in_parents
 .text          0x0000000000408900     0x4fed build/py/compile.o
                0x000000000040d4e9                mp_compile
 .text          0x000000000040d8ed      0x1f8 build/py/emitcommon.o
                0x000000000040d8ed                emit_common_load_id
                0x000000000040d995                emit_common_store_id
                0x000000000040da3d                emit_common_delete_id
 .text          0x000000000040dae5      0x103 build/py/emitpass1.o
                0x000000000040dbd4                emit_pass1_new
                0x000000000040dbde                emit_pass1_free
 .text          0x000000000040dbe8        0x0 build/py/emitcpy.o
 .text          0x000000000040dbe8     0x132c build/py/emitbc.o
                0x000000000040eebe                emit_bc_new
                0x000000000040eeed                emit_bc_free
 .text          0x000000000040ef14      0xaa0 build/py/asmx64.o
                0x000000000040f0c4                asm_x64_new
                0x000000000040f0f3                asm_x64_free
                0x000000000040f12c                asm_x64_start_pass
                0x000000000040f193                asm_x64_end_pass
                0x000000000040f194                asm_x64_get_code_size
                0x000000000040f199                asm_x64_get_code
                0x000000000040f19e                asm_x64_nop
                0x000000000040f1a8                asm_x64_push_r64
                0x000000000040f1cb                asm_x64_pop_r64
                0x000000000040f1ee                asm_x64_mov_r64_r64
                0x000000000040f1f8                asm_x64_mov_r8_to_mem8
                0x000000000040f260                asm_x64_mov_r16_to_mem16
                0x000000000040f2d2                asm_x64_mov_r64_to_mem64
                0x000000000040f337                asm_x64_mov_mem8_to_r64zx
                0x000000000040f3a9                asm_x64_mov_mem16_to_r64zx
                0x000000000040f41b                asm_x64_mov_mem64_to_r64
                0x000000000040f47d                asm_x64_mov_i64_to_r64
                0x000000000040f50a                asm_x64_mov_i64_to_r64_optimised
                0x000000000040f559                asm_x64_mov_i64_to_r64_aligned
                0x000000000040f594                asm_x64_and_r64_r64
                0x000000000040f59e                asm_x64_or_r64_r64
                0x000000000040f5a8                asm_x64_xor_r64_r64
                0x000000000040f5b2                asm_x64_shl_r64_cl
                0x000000000040f5c1                asm_x64_sar_r64_cl
                0x000000000040f5d0                asm_x64_add_r64_r64
                0x000000000040f5da                asm_x64_sub_r64_r64
                0x000000000040f5e4                asm_x64_cmp_r64_with_r64
                0x000000000040f5f4                asm_x64_test_r8_with_r8
                0x000000000040f63c                asm_x64_setcc_r8
                0x000000000040f674                asm_x64_label_assign
                0x000000000040f6e8                asm_x64_jmp_label
                0x000000000040f758                asm_x64_jcc_label
                0x000000000040f7d1                asm_x64_entry
                0x000000000040f895                asm_x64_exit
                0x000000000040f8e2                asm_x64_mov_local_to_r64
                0x000000000040f8f6                asm_x64_mov_r64_to_local
                0x000000000040f90a                asm_x64_mov_local_addr_to_r64
                0x000000000040f971                asm_x64_call_ind
 .text          0x000000000040f9b4     0x28e5 build/py/emitnx64.o
                0x0000000000412230                emit_native_x64_new
                0x0000000000412256                emit_native_x64_free
 .text          0x0000000000412299        0x0 build/py/asmx86.o
 .text          0x0000000000412299        0x0 build/py/emitnx86.o
 .text          0x0000000000412299        0x0 build/py/asmthumb.o
 .text          0x0000000000412299        0x0 build/py/emitnthumb.o
 .text          0x0000000000412299        0x0 build/py/emitinlinethumb.o
 .text          0x0000000000412299        0x0 build/py/asmarm.o
 .text          0x0000000000412299        0x0 build/py/emitnarm.o
 .text          0x0000000000412299        0x0 build/py/formatfloat.o
 .text          0x0000000000412299       0xa1 build/py/parsenumbase.o
                0x0000000000412299                mp_parse_num_base
 .text          0x000000000041233a      0x4c4 build/py/parsenum.o
                0x0000000000412360                mp_parse_num_integer
                0x00000000004124f5                mp_parse_num_decimal
 .text          0x00000000004127fe      0x22a build/py/emitglue.o
                0x00000000004127fe                mp_emit_glue_new_raw_code
                0x0000000000412815                mp_emit_glue_assign_bytecode
                0x0000000000412885                mp_emit_glue_assign_native
                0x00000000004128d8                mp_make_function_from_raw_code
                0x00000000004129ec                mp_make_closure_from_raw_code
 .text          0x0000000000412a28     0x1744 build/py/runtime.o
                0x0000000000412a28                mp_init
                0x0000000000412a99                mp_deinit
                0x0000000000412a9e                mp_load_const_str
                0x0000000000412aa7                mp_load_const_bytes
                0x0000000000412ac7                mp_load_global
                0x0000000000412b4e                mp_load_name
                0x0000000000412b89                mp_load_build_class
                0x0000000000412bbe                mp_store_name
                0x0000000000412bd5                mp_delete_name
                0x0000000000412be9                mp_store_global
                0x0000000000412c00                mp_delete_global
                0x0000000000412c14                mp_unary_op
                0x0000000000412d0c                mp_call_function_n_kw
                0x0000000000412d6e                mp_call_function_0
                0x0000000000412d79                mp_call_function_1
                0x0000000000412d98                mp_call_function_2
                0x0000000000412db9                mp_call_method_n_kw
                0x0000000000412de3                mp_load_method_maybe
                0x0000000000412ef5                mp_load_method
                0x0000000000412f71                mp_load_attr
                0x0000000000412f9a                mp_store_attr
                0x0000000000413003                mp_getiter
                0x000000000041308e                mp_iternext_allow_raise
                0x00000000004130fa                mp_iternext
                0x00000000004131ab                mp_binary_op
                0x00000000004135e8                mp_call_method_n_kw_var
                0x00000000004139cd                mp_unpack_sequence
                0x0000000000413ab8                mp_unpack_ex
                0x0000000000413c72                mp_resume
                0x0000000000413e15                mp_make_raise_obj
                0x0000000000413e52                mp_import_name
                0x0000000000413e93                mp_import_from
                0x0000000000413fee                mp_import_all
                0x0000000000414056                mp_parse_compile_execute
                0x000000000041411c                m_malloc_fail
                0x0000000000414156                mp_not_implemented
 .text          0x000000000041416c       0xa7 build/py/nativeglue.o
                0x000000000041416c                mp_native_call_function_n_kw
                0x0000000000414181                mp_convert_obj_to_native
                0x00000000004141c7                mp_convert_native_to_obj
                0x00000000004141fb                mp_native_raise
 .text          0x0000000000414213       0x5d build/py/stackctrl.o
                0x0000000000414213                mp_stack_ctrl_init
                0x0000000000414220                mp_stack_usage
                0x0000000000414230                mp_stack_set_limit
                0x0000000000414238                mp_stack_check
 .text          0x0000000000414270      0x218 build/py/argcheck.o
                0x0000000000414270                mp_arg_check_num
                0x00000000004142e5                mp_arg_parse_all
                0x0000000000414421                mp_arg_parse_all_kw_array
                0x0000000000414470                mp_arg_error_unimpl_kw
 .text          0x0000000000414488       0xd1 build/py/warning.o
                0x0000000000414488                mp_warning
                0x0000000000414544                mp_emitter_warning
 .text          0x0000000000414559      0x602 build/py/map.o
                0x0000000000414559                mp_map_init
                0x0000000000414596                mp_map_init_fixed_table
                0x00000000004145b4                mp_map_new
                0x00000000004145e1                mp_map_deinit
                0x0000000000414609                mp_map_free
                0x0000000000414620                mp_map_clear
                0x0000000000414658                mp_map_lookup
                0x00000000004148f3                mp_set_init
                0x0000000000414915                mp_set_lookup
                0x0000000000414adf                mp_set_remove_first
                0x0000000000414b2a                mp_set_clear
 .text          0x0000000000414b5b      0x92f build/py/obj.o
                0x0000000000414b5b                mp_identity
                0x0000000000414b5f                mp_obj_get_type
                0x0000000000414b80                mp_obj_get_type_str
                0x0000000000414b90                mp_obj_print_helper
                0x0000000000414c10                mp_obj_print
                0x0000000000414c3c                mp_obj_print_exception
                0x0000000000414d59                mp_obj_is_callable
                0x0000000000414d7f                mp_obj_hash
                0x0000000000414e94                mp_obj_equal
                0x0000000000414f73                mp_obj_get_int
                0x0000000000414fd5                mp_obj_get_int_maybe
                0x0000000000415028                mp_obj_get_float
                0x00000000004150a0                mp_obj_get_complex
                0x0000000000415149                mp_obj_get_array
                0x0000000000415191                mp_obj_get_array_fixed_n
                0x00000000004151cf                mp_get_index
                0x00000000004152ab                mp_obj_id
                0x00000000004152c9                mp_obj_len_maybe
                0x0000000000415306                mp_obj_is_true
                0x0000000000415372                mp_obj_len
                0x00000000004153a6                mp_obj_subscr
                0x000000000041542b                mp_get_buffer
                0x0000000000415467                mp_get_buffer_raise
 .text          0x000000000041548a      0xaf6 build/py/objarray.o
                0x0000000000415f2b                mp_obj_new_bytearray
                0x0000000000415f4e                mp_obj_new_bytearray_by_ref
 .text          0x0000000000415f80       0xfe build/py/objbool.o
 .text          0x000000000041607e      0x144 build/py/objboundmeth.o
                0x000000000041619c                mp_obj_new_bound_meth
 .text          0x00000000004161c2       0x7d build/py/objcell.o
                0x000000000041621a                mp_obj_cell_get
                0x000000000041621f                mp_obj_cell_set
                0x0000000000416224                mp_obj_new_cell
 .text          0x000000000041623f      0x1e0 build/py/objclosure.o
                0x00000000004163d7                mp_obj_new_closure
 .text          0x000000000041641f      0x61f build/py/objcomplex.o
                0x0000000000416540                mp_obj_new_complex
                0x00000000004165d0                mp_obj_complex_get
                0x0000000000416758                mp_obj_complex_binary_op
 .text          0x0000000000416a3e      0xb25 build/py/objdict.o
                0x0000000000417273                mp_obj_dict_get
                0x00000000004172a1                mp_obj_dict_init
                0x00000000004172b1                mp_obj_new_dict
                0x0000000000417454                mp_obj_dict_len
                0x000000000041745d                mp_obj_dict_store
                0x00000000004174a7                mp_obj_dict_delete
                0x0000000000417534                mp_obj_dict_get_map
 .text          0x0000000000417563       0xca build/py/objenumerate.o
 .text          0x000000000041762d      0x64e build/py/objexcept.o
                0x000000000041762d                mp_obj_exception_make_new
                0x0000000000417773                mp_init_emergency_exception_buf
                0x0000000000417774                mp_obj_exception_get_value
                0x00000000004177b5                mp_obj_new_exception_args
                0x00000000004177e3                mp_obj_new_exception
                0x00000000004177ec                mp_obj_new_exception_arg1
                0x0000000000417809                mp_obj_new_exception_msg_varg
                0x0000000000417a94                mp_obj_new_exception_msg
                0x0000000000417a9b                mp_obj_is_exception_type
                0x0000000000417ac1                mp_obj_is_exception_instance
                0x0000000000417ad0                mp_obj_exception_match
                0x0000000000417afb                mp_obj_exception_clear_traceback
                0x0000000000417b41                mp_obj_exception_add_traceback
                0x0000000000417c0b                mp_obj_exception_get_traceback
 .text          0x0000000000417c7b       0xc8 build/py/objfilter.o
 .text          0x0000000000417d43      0x449 build/py/objfloat.o
                0x0000000000417dd9                mp_obj_new_float
                0x0000000000417ed0                mp_obj_float_get
                0x0000000000417f00                mp_obj_float_divmod
                0x0000000000417fd1                mp_obj_float_binary_op
 .text          0x000000000041818c      0x5b5 build/py/objfun.o
                0x000000000041856f                mp_obj_code_get_name
                0x0000000000418599                mp_obj_fun_get_name
                0x00000000004185d1                mp_obj_new_fun_bc
                0x00000000004186cd                mp_obj_new_fun_native
                0x0000000000418712                mp_obj_new_fun_viper
 .text          0x0000000000418741      0x3a8 build/py/objgenerator.o
                0x000000000041884f                mp_obj_new_gen_wrap
                0x000000000041886a                mp_obj_gen_resume
 .text          0x0000000000418ae9       0x9f build/py/objgetitemiter.o
                0x0000000000418b5a                mp_obj_new_getitem_iter
 .text          0x0000000000418b88      0x4e6 build/py/objint.o
                0x0000000000418d0d                mp_classify_fp_as_int
                0x0000000000418d44                mp_obj_int_formatted
                0x0000000000418f5e                mp_obj_int_print
                0x0000000000419000                mp_obj_int_binary_op_extra_cases
 .text          0x000000000041906e        0x0 build/py/objint_longlong.o
 .text          0x000000000041906e      0x694 build/py/objint_mpz.o
                0x000000000041909b                mp_obj_int_formatted_impl
                0x000000000041915d                mp_obj_int_hash
                0x0000000000419173                mp_obj_int_is_positive
                0x0000000000419191                mp_obj_int_unary_op
                0x0000000000419207                mp_obj_new_int_from_ll
                0x0000000000419235                mp_obj_new_int
                0x000000000041924b                mp_obj_new_int_from_ull
                0x0000000000419276                mp_obj_new_int_from_uint
                0x0000000000419293                mp_obj_new_int_from_float
                0x0000000000419310                mp_obj_new_int_from_str_len
                0x0000000000419359                mp_obj_int_get_truncated
                0x000000000041936f                mp_obj_int_get_checked
                0x00000000004193b3                mp_obj_int_binary_op
                0x00000000004196ea                mp_obj_int_as_float
 .text          0x0000000000419702      0xd8a build/py/objlist.o
                0x0000000000419752                mp_obj_list_append
                0x0000000000419c52                mp_obj_list_sort
                0x0000000000419d44                mp_obj_list_remove
                0x0000000000419ec4                mp_obj_list_init
                0x000000000041a110                mp_obj_new_list
                0x000000000041a177                mp_obj_list_get
                0x000000000041a186                mp_obj_list_set_len
                0x000000000041a18b                mp_obj_list_store
 .text          0x000000000041a48c      0x109 build/py/objmap.o
 .text          0x000000000041a595      0x223 build/py/objmodule.o
                0x000000000041a69f                mp_obj_new_module
                0x000000000041a714                mp_obj_module_get_globals
                0x000000000041a743                mp_module_init
                0x000000000041a752                mp_module_deinit
                0x000000000041a75c                mp_module_get
                0x000000000041a797                mp_module_register
 .text          0x000000000041a7b8       0x4e build/py/objobject.o
 .text          0x000000000041a806      0x11d build/py/objproperty.o
                0x000000000041a8f4                mp_obj_property_get
 .text          0x000000000041a923       0x28 build/py/objnone.o
 .text          0x000000000041a94b      0x311 build/py/objnamedtuple.o
 .text          0x000000000041ac5c      0x24f build/py/objrange.o
 .text          0x000000000041aeab       0xdb build/py/objreversed.o
 .text          0x000000000041af86      0x9e4 build/py/objset.o
                0x000000000041b584                mp_obj_new_set
                0x000000000041b6c8                mp_obj_set_store
 .text          0x000000000041b96a      0x102 build/py/objslice.o
                0x000000000041b9fc                mp_obj_new_slice
                0x000000000041ba2b                mp_obj_slice_get
 .text          0x000000000041ba6c     0x3177 build/py/objstr.o
                0x000000000041c270                mp_obj_str_get_buffer
                0x000000000041c2de                mp_str_print_quoted
                0x000000000041c3d7                mp_str_print_json
                0x000000000041c549                mp_obj_new_str_of_type
                0x000000000041cab1                mp_obj_new_str_from_vstr
                0x000000000041d274                mp_obj_new_str
                0x000000000041d2b2                mp_obj_str_make_new
                0x000000000041d3be                mp_obj_str_intern
                0x000000000041d405                mp_obj_new_bytes
                0x000000000041d415                mp_obj_str_equal
                0x000000000041d500                mp_obj_str_get_hash
                0x000000000041d536                mp_obj_str_get_len
                0x000000000041d56c                mp_obj_str_get_qstr
                0x000000000041d5a3                mp_obj_str_get_str
                0x000000000041d5e5                mp_obj_str_get_data
                0x000000000041d63d                mp_obj_str_binary_op
                0x000000000041de8e                mp_obj_str_format
 .text          0x000000000041ebe3      0x560 build/py/objstrunicode.o
                0x000000000041ee7b                str_index_to_ptr
 .text          0x000000000041f143      0x1ad build/py/objstringio.o
 .text          0x000000000041f2f0      0x590 build/py/objtuple.o
                0x000000000041f2f0                mp_obj_tuple_unary_op
                0x000000000041f33d                mp_obj_tuple_print
                0x000000000041f468                mp_obj_tuple_getiter
                0x000000000041f48b                mp_obj_new_tuple
                0x000000000041f4d3                mp_obj_tuple_binary_op
                0x000000000041f655                mp_obj_tuple_subscr
                0x000000000041f7b5                mp_obj_tuple_get
                0x000000000041f7ee                mp_obj_tuple_del
                0x000000000041f829                mp_obj_tuple_hash
 .text          0x000000000041f880     0x1499 build/py/objtype.o
                0x000000000041fd0f                instance_make_new
                0x0000000000420125                mp_obj_instance_load_attr
                0x0000000000420238                mp_obj_instance_store_attr
                0x000000000042069e                mp_obj_instance_call
                0x00000000004208de                mp_obj_instance_is_callable
                0x00000000004208ec                mp_obj_new_type
                0x0000000000420b2c                mp_obj_new_super
                0x0000000000420b7b                mp_obj_is_subclass_fast
                0x0000000000420ce8                mp_instance_cast_to_native_base
 .text          0x0000000000420d19       0xe3 build/py/objzip.o
 .text          0x0000000000420dfc       0xa0 build/py/opmethods.o
 .text          0x0000000000420e9c      0x3e4 build/py/sequence.o
                0x0000000000420e9c                mp_seq_multiply
                0x0000000000420ec0                mp_seq_get_fast_slice_indexes
                0x0000000000420f76                mp_seq_extract_slice
                0x0000000000420fd8                mp_seq_cmp_bytes
                0x0000000000421088                mp_seq_cmp_objs
                0x000000000042117c                mp_seq_index_obj
                0x000000000042123d                mp_seq_count_obj
 .text          0x0000000000421280      0x744 build/py/stream.o
                0x00000000004218ef                mp_stream_write
                0x000000000042198c                mp_stream_unbuffered_iter
 .text          0x00000000004219c4      0x483 build/py/binary.o
                0x00000000004219c4                mp_binary_get_size
                0x0000000000421a1c                mp_binary_get_val_array
                0x0000000000421acf                mp_binary_get_int
                0x0000000000421b0f                mp_binary_get_val
                0x0000000000421c23                mp_binary_set_int
                0x0000000000421c53                mp_binary_set_val
                0x0000000000421d46                mp_binary_set_val_array_from_int
                0x0000000000421de4                mp_binary_set_val_array
 .text          0x0000000000421e47      0x61e build/py/builtinimport.o
                0x0000000000421f01                mp_builtin___import__
                0x0000000000422447                mp_obj_is_package
 .text          0x0000000000422465      0x1bb build/py/builtinevex.o
 .text          0x0000000000422620        0x0 build/py/modarray.o
 .text          0x0000000000422620      0xbd6 build/py/modbuiltins.o
 .text          0x00000000004231f6        0x0 build/py/modcollections.o
 .text          0x00000000004231f6       0x85 build/py/modgc.o
 .text          0x000000000042327b        0x0 build/py/modio.o
 .text          0x000000000042327b      0x407 build/py/modmath.o
 .text          0x0000000000423682      0x368 build/py/modcmath.o
 .text          0x00000000004239ea       0xff build/py/modmicropython.o
                0x0000000000423a17                mp_micropython_mem_info
 .text          0x0000000000423ae9      0x3b2 build/py/modstruct.o
 .text          0x0000000000423e9b       0x63 build/py/modsys.o
 *fill*         0x0000000000423efe        0x2 
 .text          0x0000000000423f00     0x1a43 build/py/vm.o
                0x0000000000423f00                mp_execute_bytecode
 .text          0x0000000000425943      0x3d2 build/py/bc.o
                0x0000000000425943                mp_decode_uint
                0x0000000000425966                mp_setup_code_state
 .text          0x0000000000425d15      0xc1f build/py/showbc.o
                0x0000000000425d15                mp_bytecode_print_str
                0x000000000042665b                mp_bytecode_print2
                0x00000000004266ad                mp_bytecode_print
 .text          0x0000000000426934      0x1b2 build/py/repl.o
                0x0000000000426976                mp_repl_continue_with_input
 .text          0x0000000000426ae6       0xbb build/py/smallint.o
                0x0000000000426ae6                mp_small_int_mul_overflow
                0x0000000000426b48                mp_small_int_modulo
                0x0000000000426b74                mp_small_int_floor_divide
 .text          0x0000000000426ba1      0x744 build/py/pfenv.o
                0x0000000000426ba1                pfenv_vstr_add_strn
                0x0000000000426ba6                pfenv_print_strn
                0x0000000000426c98                pfenv_print_int
                0x0000000000426e6c                pfenv_print_mp_int
                0x0000000000427192                pfenv_print_float
 .text          0x00000000004272e5      0x52f build/py/pfenv_printf.o
                0x00000000004272e5                pfenv_vprintf
                0x00000000004276f1                pfenv_printf
                0x0000000000427780                printf_wrapper
 .text          0x0000000000427814        0x0 build/py/frozenmod.o
 .text          0x0000000000427814      0x949 build/py/../extmod/moductypes.o
 .text          0x000000000042815d      0x4ca build/py/../extmod/modujson.o
 .text          0x0000000000428627      0xcf1 build/py/../extmod/modure.o
                0x00000000004286bf                re1_5_sizecode
                0x000000000042877c                _compilecode
                0x0000000000428b24                re1_5_compilecode
                0x0000000000428b94                cleanmarks
                0x0000000000428bc6                re1_5_dumpcode
                0x0000000000428e4d                _re1_5_classmatch
                0x0000000000428e80                _re1_5_namedclassmatch
                0x000000000042909f                re1_5_recursiveloopprog
 .text          0x0000000000429318      0x9d3 build/py/../extmod/moduzlib.o
                0x0000000000429787                tinf_init
                0x0000000000429788                tinf_uncompress_dyn
                0x0000000000429994                tinf_uncompress
                0x00000000004299ce                tinf_adler32
                0x0000000000429b0a                tinf_zlib_uncompress_dyn
                0x0000000000429caf                tinf_zlib_uncompress
 .text          0x0000000000429ceb      0x1f5 build/py/../extmod/moduheapq.o
 .text          0x0000000000429ee0      0x43c build/py/../extmod/moduhashlib.o
                0x0000000000429eeb                sha256_transform
                0x000000000042a0b5                sha256_init
                0x000000000042a0fd                sha256_update
                0x000000000042a1e5                sha256_final
 .text          0x000000000042a31c       0x89 build/py/../extmod/modubinascii.o
 .text          0x000000000042a3a5      0x349 build/main.o
                0x000000000042a5ea                mp_import_stat
                0x000000000042a62c                DEBUG_printf
                0x000000000042a6cf                nlr_jump_fail
 .text          0x000000000042a6ee       0x5f build/gccollect.o
                0x000000000042a6ee                gc_collect
 .text          0x000000000042a74d       0x93 build/input.o
                0x000000000042a74d                prompt
 .text          0x000000000042a7e0      0x272 build/file.o
                0x000000000042a94b                mp_builtin_open
 .text          0x000000000042aa52      0x178 build/modos.o
 .text          0x000000000042abca       0xd3 build/alloc.o
                0x000000000042abca                mp_unix_alloc_exec
                0x000000000042ac38                mp_unix_free_exec
                0x000000000042ac78                mp_unix_mark_exec
 .text          0x000000000042ac9d       0xa5 build/modtime.o
 .text          0x000000000042ad42      0x3b8 build/modtermios.o
 .text          0x000000000042b0fa      0x7a1 build/modsocket.o
 .text          0x000000000042b89b      0x72f build/modffi.o
 *fill*         0x000000000042bfca        0x6 
 .text          0x000000000042bfd0       0x72 /usr/lib/x86_64-linux-gnu/libc_nonshared.a(elf-init.oS)
                0x000000000042bfd0                __libc_csu_init
                0x000000000042c040                __libc_csu_fini
 *fill*         0x000000000042c042        0xe 
 .text          0x000000000042c050       0x10 /usr/lib/x86_64-linux-gnu/libc_nonshared.a(stat.oS)
                0x000000000042c050                __stat
                0x000000000042c050                stat
 .text          0x000000000042c060        0x0 /usr/lib/gcc/x86_64-linux-gnu/4.8/crtend.o
 .text          0x000000000042c060        0x0 /usr/lib/gcc/x86_64-linux-gnu/4.8/../../../x86_64-linux-gnu/crtn.o
 *(.gnu.warning)

.fini           0x000000000042c060        0x9
 *(SORT(.fini))
 .fini          0x000000000042c060        0x4 /usr/lib/gcc/x86_64-linux-gnu/4.8/../../../x86_64-linux-gnu/crti.o
                0x000000000042c060                _fini
 .fini          0x000000000042c064        0x5 /usr/lib/gcc/x86_64-linux-gnu/4.8/../../../x86_64-linux-gnu/crtn.o
                0x000000000042c069                PROVIDE (__etext, .)
                0x000000000042c069                PROVIDE (_etext, .)
                0x000000000042c069                PROVIDE (etext, .)

.rodata         0x000000000042c080    0x13850
 *(.rodata .rodata.* .gnu.linkonce.r.*)
 .rodata.cst4   0x000000000042c080        0x4 /usr/lib/gcc/x86_64-linux-gnu/4.8/../../../x86_64-linux-gnu/crt1.o
                0x000000000042c080                _IO_stdin_used
 .rodata.str1.1
                0x000000000042c084       0x57 build/py/gc.o
 *fill*         0x000000000042c0db        0x5 
 .rodata.str1.8
                0x000000000042c0e0      0x137 build/py/gc.o
 .rodata        0x000000000042c217       0x1b build/py/gc.o
 .rodata.str1.1
                0x000000000042c232     0x133b build/py/qstr.o
 *fill*         0x000000000042d56d        0x3 
 .rodata        0x000000000042d570      0xeb0 build/py/qstr.o
 .rodata.str1.1
                0x000000000042e420       0x1a build/py/vstr.o
 *fill*         0x000000000042e43a        0x6 
 .rodata        0x000000000042e440        0xe build/py/vstr.o
 *fill*         0x000000000042e44e        0x2 
 .rodata        0x000000000042e450       0x80 build/py/unicode.o
 .rodata.str1.1
                0x000000000042e4d0       0x2f build/py/mpz.o
                                         0x31 (size before relaxing)
 *fill*         0x000000000042e4ff        0x1 
 .rodata        0x000000000042e500       0x81 build/py/mpz.o
 *fill*         0x000000000042e581        0x7 
 .rodata.cst8   0x000000000042e588        0x8 build/py/mpz.o
 .rodata.cst16  0x000000000042e590       0x10 build/py/mpz.o
 .rodata.str1.1
                0x000000000042e5a0      0x15a build/py/lexer.o
                                        0x18b (size before relaxing)
 *fill*         0x000000000042e6fa        0x6 
 .rodata        0x000000000042e700      0x15b build/py/lexer.o
 .rodata.str1.1
                0x000000000042e85b      0x1e4 build/py/parse.o
                                        0x1eb (size before relaxing)
 *fill*         0x000000000042ea3f        0x1 
 .rodata        0x000000000042ea40      0xa82 build/py/parse.o
 .rodata.str1.1
                0x000000000042f4c2       0x4c build/py/scope.o
                                         0x4e (size before relaxing)
 *fill*         0x000000000042f50e        0x2 
 .rodata        0x000000000042f510       0x6a build/py/scope.o
 .rodata.str1.1
                0x000000000042f57a     0x104b build/py/compile.o
                                       0x106e (size before relaxing)
 *fill*         0x00000000004305c5        0xb 
 .rodata        0x00000000004305d0      0xab0 build/py/compile.o
 .rodata.str1.1
                0x0000000000431080       0x13 build/py/emitcommon.o
                                         0x27 (size before relaxing)
 *fill*         0x0000000000431093        0xd 
 .rodata        0x00000000004310a0       0x54 build/py/emitcommon.o
 .rodata.str1.1
                0x00000000004310f4       0x28 build/py/emitpass1.o
                                         0x3a (size before relaxing)
 *fill*         0x000000000043111c        0x4 
 .rodata        0x0000000000431120      0x2c8 build/py/emitpass1.o
                0x0000000000431160                emit_pass1_method_table
 .rodata.str1.1
                0x00000000004313e8      0x224 build/py/emitbc.o
                                        0x226 (size before relaxing)
 *fill*         0x000000000043160c        0x4 
 .rodata        0x0000000000431610      0x3f8 build/py/emitbc.o
                0x0000000000431780                emit_bc_method_table
 .rodata.str1.1
                0x0000000000431a08      0x127 build/py/asmx64.o
                                        0x129 (size before relaxing)
 *fill*         0x0000000000431b2f        0x1 
 .rodata        0x0000000000431b30      0x1e3 build/py/asmx64.o
 .rodata.str1.1
                0x0000000000431d13      0x471 build/py/emitnx64.o
                                        0x4d2 (size before relaxing)
 *fill*         0x0000000000432184        0xc 
 .rodata        0x0000000000432190      0x788 build/py/emitnx64.o
                0x0000000000432690                emit_native_x64_method_table
 .rodata.str1.1
                0x0000000000432918       0x6b build/py/parsenum.o
 *fill*         0x0000000000432983        0x5 
 .rodata.cst8   0x0000000000432988       0x20 build/py/parsenum.o
 .rodata.cst16  0x0000000000000000       0x10 build/py/parsenum.o
 .rodata.str1.1
                0x00000000004329a8      0x169 build/py/emitglue.o
                                        0x16b (size before relaxing)
 *fill*         0x0000000000432b11        0xf 
 .rodata        0x0000000000432b20       0x3b build/py/emitglue.o
 .rodata.str1.1
                0x0000000000432b5b      0x2d8 build/py/runtime.o
                                        0x2eb (size before relaxing)
 *fill*         0x0000000000432e33        0xd 
 .rodata        0x0000000000432e40      0x178 build/py/runtime.o
                0x0000000000432fa0                mp_module___main__
 *fill*         0x0000000000432fb8        0x8 
 .rodata        0x0000000000432fc0      0x138 build/py/nativeglue.o
                0x0000000000432fc0                mp_fun_table
 .rodata.str1.1
                0x00000000004330f8      0x16c build/py/argcheck.o
                                        0x16e (size before relaxing)
 *fill*         0x0000000000433264        0xc 
 .rodata        0x0000000000433270       0x11 build/py/argcheck.o
 .rodata.str1.1
                0x0000000000433281        0xa build/py/warning.o
 *fill*         0x000000000043328b        0x5 
 .rodata        0x0000000000433290       0x78 build/py/map.o
                0x00000000004332f0                mp_const_empty_map
 .rodata.str1.1
                0x0000000000433308      0x211 build/py/obj.o
                                        0x213 (size before relaxing)
 *fill*         0x0000000000433519        0x7 
 .rodata        0x0000000000433520       0x38 build/py/obj.o
                0x0000000000433540                mp_identity_obj
 .rodata.cst8   0x0000000000433558        0x8 build/py/obj.o
 .rodata.str1.1
                0x0000000000433560      0x15c build/py/objarray.o
                                        0x160 (size before relaxing)
 *fill*         0x00000000004336bc        0x4 
 .rodata        0x00000000004336c0      0x2a8 build/py/objarray.o
                0x0000000000433770                mp_type_memoryview
                0x00000000004337f0                mp_type_bytearray
                0x0000000000433870                mp_type_array
 .rodata.str1.1
                0x0000000000433968        0xb build/py/objbool.o
                                         0x16 (size before relaxing)
 *fill*         0x0000000000433973        0xd 
 .rodata        0x0000000000433980       0xa0 build/py/objbool.o
                0x0000000000433980                mp_const_true_obj
                0x0000000000433990                mp_const_false_obj
                0x00000000004339a0                mp_type_bool
 .rodata.str1.1
                0x0000000000433a20       0x14 build/py/objboundmeth.o
                                         0x16 (size before relaxing)
 *fill*         0x0000000000433a34        0xc 
 .rodata        0x0000000000433a40       0x80 build/py/objboundmeth.o
                0x0000000000433a40                bound_meth_type
 .rodata.str1.1
                0x0000000000433ac0        0xa build/py/objcell.o
                                         0x12 (size before relaxing)
 *fill*         0x0000000000433aca        0x6 
 .rodata        0x0000000000433ad0       0x80 build/py/objcell.o
                0x0000000000433ad0                cell_type
 .rodata.str1.1
                0x0000000000433b50       0x1f build/py/objclosure.o
                                         0x29 (size before relaxing)
 *fill*         0x0000000000433b6f        0x1 
 .rodata        0x0000000000433b70       0x80 build/py/objclosure.o
                0x0000000000433b70                closure_type
 .rodata.str1.1
                0x0000000000433bf0       0xde build/py/objcomplex.o
 *fill*         0x0000000000433cce        0x2 
 .rodata        0x0000000000433cd0      0x150 build/py/objcomplex.o
                0x0000000000433da0                mp_type_complex
 .rodata.cst16  0x0000000000000000       0x10 build/py/objcomplex.o
 .rodata.cst8   0x0000000000000000        0x8 build/py/objcomplex.o
 .rodata.str1.1
                0x0000000000433e20      0x250 build/py/objdict.o
                                        0x25b (size before relaxing)
 .rodata        0x0000000000434070      0x5d0 build/py/objdict.o
                0x00000000004341b0                mp_type_dict
 .rodata.str1.1
                0x0000000000434640       0x6d build/py/objenumerate.o
 *fill*         0x00000000004346ad        0x3 
 .rodata        0x00000000004346b0       0xd0 build/py/objenumerate.o
                0x00000000004346d0                mp_type_enumerate
 .rodata.str1.1
                0x0000000000434780       0x68 build/py/objexcept.o
                                         0x71 (size before relaxing)
 *fill*         0x00000000004347e8        0x8 
 .rodata        0x00000000004347f0      0xf20 build/py/objexcept.o
                0x00000000004348a0                mp_type_UnicodeError
                0x0000000000434940                mp_type_ValueError
                0x00000000004349c0                mp_type_TypeError
                0x0000000000434a40                mp_type_IndentationError
                0x0000000000434ae0                mp_type_SyntaxError
                0x0000000000434b60                mp_type_NotImplementedError
                0x0000000000434c00                mp_type_RuntimeError
                0x0000000000434c80                mp_type_OSError
                0x0000000000434d00                mp_type_NameError
                0x0000000000434d80                mp_type_MemoryError
                0x0000000000434e00                mp_type_KeyError
                0x0000000000434e80                mp_type_IndexError
                0x0000000000434f20                mp_type_LookupError
                0x0000000000434fa0                mp_type_ImportError
                0x0000000000435020                mp_type_EOFError
                0x00000000004350a0                mp_type_AttributeError
                0x0000000000435120                mp_type_AssertionError
                0x00000000004351a0                mp_type_ZeroDivisionError
                0x0000000000435220                mp_type_OverflowError
                0x00000000004352c0                mp_type_ArithmeticError
                0x0000000000435340                mp_type_StopIteration
                0x00000000004353e0                mp_type_Exception
                0x0000000000435460                mp_type_GeneratorExit
                0x00000000004354e0                mp_type_KeyboardInterrupt
                0x0000000000435560                mp_type_SystemExit
                0x0000000000435600                mp_type_BaseException
                0x00000000004356d0                mp_const_GeneratorExit_obj
                0x00000000004356f0                mp_const_MemoryError_obj
 .rodata.str1.1
                0x0000000000435710       0x67 build/py/objfilter.o
 *fill*         0x0000000000435777        0x9 
 .rodata        0x0000000000435780       0x90 build/py/objfilter.o
                0x0000000000435790                mp_type_filter
 .rodata.str1.1
                0x0000000000435810       0x65 build/py/objfloat.o
                                         0x7f (size before relaxing)
 *fill*         0x0000000000435875        0xb 
 .rodata        0x0000000000435880      0x160 build/py/objfloat.o
                0x0000000000435960                mp_type_float
 .rodata.cst16  0x0000000000000000       0x10 build/py/objfloat.o
 .rodata.cst8   0x00000000004359e0        0x8 build/py/objfloat.o
                                         0x10 (size before relaxing)
 .rodata.str1.1
                0x00000000004359e8       0x9a build/py/objfun.o
                                         0xf2 (size before relaxing)
 *fill*         0x0000000000435a82        0xe 
 .rodata        0x0000000000435a90      0x290 build/py/objfun.o
                0x0000000000435c20                mp_type_fun_bc
                0x0000000000435ca0                mp_type_fun_builtin
 .rodata.str1.1
                0x0000000000435d20      0x13b build/py/objgenerator.o
 *fill*         0x0000000000435e5b        0x5 
 .rodata        0x0000000000435e60      0x1e0 build/py/objgenerator.o
                0x0000000000435e90                mp_type_gen_instance
                0x0000000000435fc0                mp_type_gen_wrap
 .rodata        0x0000000000436040       0x80 build/py/objgetitemiter.o
 .rodata.str1.1
                0x0000000000000000        0x3 build/py/objint.o
 .rodata        0x00000000004360c0      0x131 build/py/objint.o
                0x00000000004360c0                mp_type_int
 .rodata.str1.1
                0x00000000004361f1       0xc4 build/py/objint_mpz.o
                                         0xd9 (size before relaxing)
 *fill*         0x00000000004362b5        0xb 
 .rodata        0x00000000004362c0      0x13c build/py/objint_mpz.o
                0x00000000004363d0                mp_maxsize_obj
 .rodata.str1.1
                0x00000000004363fc      0x1a9 build/py/objlist.o
                                        0x1b2 (size before relaxing)
 *fill*         0x00000000004365a5        0xb 
 .rodata        0x00000000004365b0      0x458 build/py/objlist.o
                0x0000000000436760                mp_type_list
 .rodata.str1.1
                0x0000000000436a08       0x61 build/py/objmap.o
 *fill*         0x0000000000436a69        0x7 
 .rodata        0x0000000000436a70       0x90 build/py/objmap.o
                0x0000000000436a80                mp_type_map
 .rodata.str1.1
                0x0000000000436b00       0x8d build/py/objmodule.o
 *fill*         0x0000000000436b8d        0x3 
 .rodata        0x0000000000436b90      0x230 build/py/objmodule.o
                0x0000000000436d40                mp_type_module
 .rodata        0x0000000000436dc0      0x108 build/py/objobject.o
                0x0000000000436dc0                mp_type_object
 .rodata.str1.1
                0x0000000000436ec8       0x6b build/py/objproperty.o
 *fill*         0x0000000000436f33        0xd 
 .rodata        0x0000000000436f40      0x148 build/py/objproperty.o
                0x0000000000436f60                mp_type_property
 .rodata.str1.1
                0x0000000000437088        0x5 build/py/objnone.o
                                          0xa (size before relaxing)
 *fill*         0x000000000043708d        0x3 
 .rodata        0x0000000000437090       0x90 build/py/objnone.o
                0x0000000000437090                mp_const_none_obj
                0x00000000004370a0                mp_type_NoneType
 .rodata.str1.1
                0x0000000000437120       0xa1 build/py/objnamedtuple.o
                                         0xa6 (size before relaxing)
 *fill*         0x00000000004371c1        0xf 
 .rodata        0x00000000004371d0       0x38 build/py/objnamedtuple.o
                0x00000000004371d0                mp_namedtuple_obj
 .rodata.str1.1
                0x0000000000437208       0x13 build/py/objrange.o
                                         0x15 (size before relaxing)
 *fill*         0x000000000043721b        0x5 
 .rodata        0x0000000000437220      0x100 build/py/objrange.o
                0x0000000000437220                mp_type_range
 .rodata.str1.1
                0x0000000000437320       0x6b build/py/objreversed.o
 *fill*         0x000000000043738b        0x5 
 .rodata        0x0000000000437390       0xa0 build/py/objreversed.o
                0x00000000004373b0                mp_type_reversed
 .rodata.str1.1
                0x0000000000437430      0x127 build/py/objset.o
                                        0x130 (size before relaxing)
 *fill*         0x0000000000437557        0x9 
 .rodata        0x0000000000437560      0x630 build/py/objset.o
                0x00000000004376b0                mp_type_frozenset
                0x0000000000437730                mp_type_set
                0x0000000000437b10                mp_type_set_it
 .rodata.str1.1
                0x0000000000437b90       0x6c build/py/objslice.o
                                         0x7a (size before relaxing)
 *fill*         0x0000000000437bfc        0x4 
 .rodata        0x0000000000437c00      0x130 build/py/objslice.o
                0x0000000000437c20                mp_type_slice
                0x0000000000437ca0                mp_const_ellipsis_obj
                0x0000000000437cb0                mp_type_ellipsis
 .rodata.str1.1
                0x0000000000437d30      0x6ad build/py/objstr.o
                                        0x71b (size before relaxing)
 *fill*         0x00000000004383dd        0x3 
 .rodata        0x00000000004383e0      0x6d8 build/py/objstr.o
                0x0000000000438530                mp_const_empty_bytes_obj
                0x0000000000438550                mp_type_bytes
                0x0000000000438780                str_islower_obj
                0x00000000004387a0                str_isupper_obj
                0x00000000004387c0                str_isdigit_obj
                0x00000000004387e0                str_isalpha_obj
                0x0000000000438800                str_isspace_obj
                0x0000000000438820                str_upper_obj
                0x0000000000438840                str_lower_obj
                0x0000000000438860                str_rpartition_obj
                0x0000000000438880                str_partition_obj
                0x00000000004388a0                str_count_obj
                0x00000000004388c0                str_replace_obj
                0x00000000004388e0                str_format_obj
                0x0000000000438900                str_rstrip_obj
                0x0000000000438920                str_lstrip_obj
                0x0000000000438940                str_strip_obj
                0x0000000000438960                str_endswith_obj
                0x0000000000438980                str_startswith_obj
                0x00000000004389a0                str_rsplit_obj
                0x00000000004389c0                str_split_obj
                0x00000000004389e0                str_join_obj
                0x0000000000438a00                str_rindex_obj
                0x0000000000438a20                str_index_obj
                0x0000000000438a40                str_rfind_obj
                0x0000000000438a60                str_find_obj
                0x0000000000438a80                str_encode_obj
                0x0000000000438aa0                bytes_decode_obj
 .rodata.cst8   0x0000000000438ab8        0x8 build/py/objstr.o
 .rodata.str1.1
                0x0000000000438ac0       0x49 build/py/objstrunicode.o
                                         0xa0 (size before relaxing)
 *fill*         0x0000000000438b09        0x7 
 .rodata        0x0000000000438b10      0x2b0 build/py/objstrunicode.o
                0x0000000000438b90                mp_type_str
 .rodata.str1.1
                0x0000000000438dc0       0x42 build/py/objstringio.o
 *fill*         0x0000000000438e02        0xe 
 .rodata        0x0000000000438e10      0x238 build/py/objstringio.o
                0x0000000000438e10                mp_type_bytesio
                0x0000000000438e90                mp_type_stringio
 .rodata.str1.1
                0x0000000000439048       0xbb build/py/objtuple.o
                                         0xf9 (size before relaxing)
 *fill*         0x0000000000439103        0xd 
 .rodata        0x0000000000439110      0x228 build/py/objtuple.o
                0x0000000000439230                mp_const_empty_tuple_obj
                0x0000000000439240                mp_type_tuple
 .rodata.str1.1
                0x0000000000439338      0x4f3 build/py/objtype.o
                                        0x595 (size before relaxing)
 *fill*         0x000000000043982b        0x5 
 .rodata        0x0000000000439830      0x480 build/py/objtype.o
                0x0000000000439930                mp_type_classmethod
                0x00000000004399b0                mp_type_staticmethod
                0x0000000000439a30                mp_builtin_isinstance_obj
                0x0000000000439a50                mp_builtin_issubclass_obj
                0x0000000000439a70                mp_type_super
                0x0000000000439af0                mp_type_type
                0x0000000000439b70                mp_binary_op_method_name
                0x0000000000439c80                mp_unary_op_method_name
 .rodata.str1.1
                0x0000000000439cb0       0x61 build/py/objzip.o
 *fill*         0x0000000000439d11        0xf 
 .rodata        0x0000000000439d20       0x90 build/py/objzip.o
                0x0000000000439d30                mp_type_zip
 .rodata        0x0000000000439db0       0x78 build/py/opmethods.o
                0x0000000000439db0                mp_op_contains_obj
                0x0000000000439dd0                mp_op_delitem_obj
                0x0000000000439df0                mp_op_setitem_obj
                0x0000000000439e10                mp_op_getitem_obj
 .rodata.str1.1
                0x0000000000439e28       0x17 build/py/sequence.o
 .rodata.str1.1
                0x0000000000439e3f       0x34 build/py/stream.o
 *fill*         0x0000000000439e73        0xd 
 .rodata        0x0000000000439e80       0xd8 build/py/stream.o
                0x0000000000439e80                mp_stream_write_obj
                0x0000000000439ea0                mp_stream_unbuffered_readline_obj
                0x0000000000439ec0                mp_stream_readall_obj
                0x0000000000439ee0                mp_stream_readinto_obj
                0x0000000000439f00                mp_stream_read_obj
                0x0000000000439f20                mp_stream_seek_obj
                0x0000000000439f40                mp_stream_unbuffered_readlines_obj
 .rodata.str1.1
                0x0000000000439f58        0xf build/py/binary.o
                                         0x11 (size before relaxing)
 *fill*         0x0000000000439f67        0x9 
 .rodata        0x0000000000439f70      0x151 build/py/binary.o
 .rodata.str1.1
                0x000000000043a0c1       0x78 build/py/builtinimport.o
                                         0x7e (size before relaxing)
 *fill*         0x000000000043a139        0x7 
 .rodata        0x000000000043a140       0x38 build/py/builtinimport.o
                0x000000000043a160                mp_builtin___import___obj
 .rodata.str1.1
                0x000000000043a178       0x11 build/py/builtinevex.o
 *fill*         0x000000000043a189        0x7 
 .rodata        0x000000000043a190       0xe0 build/py/builtinevex.o
                0x000000000043a190                mp_builtin_exec_obj
                0x000000000043a1b0                mp_builtin_eval_obj
                0x000000000043a1d0                mp_builtin_compile_obj
 .rodata        0x000000000043a270       0x60 build/py/modarray.o
                0x000000000043a270                mp_module_array
 .rodata.str1.1
                0x000000000043a2d0      0x11b build/py/modbuiltins.o
                                        0x168 (size before relaxing)
 *fill*         0x000000000043a3eb        0x5 
 .rodata        0x000000000043a3f0      0xa48 build/py/modbuiltins.o
                0x000000000043a480                mp_module_builtins
                0x000000000043a4a0                mp_module_builtins_globals
                0x000000000043aa60                mp_builtin_locals_obj
                0x000000000043aa80                mp_builtin_globals_obj
                0x000000000043aaa0                mp_builtin_len_obj
                0x000000000043aac0                mp_builtin_id_obj
                0x000000000043aae0                mp_builtin_hasattr_obj
                0x000000000043ab00                mp_builtin_setattr_obj
                0x000000000043ab20                mp_builtin_getattr_obj
                0x000000000043ab40                mp_builtin_sorted_obj
                0x000000000043ab60                mp_builtin_sum_obj
                0x000000000043ab80                mp_builtin_round_obj
                0x000000000043aba0                mp_builtin_repr_obj
                0x000000000043abc0                mp_builtin___repl_print___obj
                0x000000000043abe0                mp_builtin_print_obj
                0x000000000043ac00                mp_builtin_pow_obj
                0x000000000043ac20                mp_builtin_ord_obj
                0x000000000043ac40                mp_builtin_oct_obj
                0x000000000043ac60                mp_builtin_next_obj
                0x000000000043ac80                mp_builtin_min_obj
                0x000000000043aca0                mp_builtin_max_obj
                0x000000000043acc0                mp_builtin_iter_obj
                0x000000000043ace0                mp_builtin_hex_obj
                0x000000000043ad00                mp_builtin_hash_obj
                0x000000000043ad20                mp_builtin_divmod_obj
                0x000000000043ad40                mp_builtin_dir_obj
                0x000000000043ad60                mp_builtin_chr_obj
                0x000000000043ad80                mp_builtin_callable_obj
                0x000000000043ada0                mp_builtin_bin_obj
                0x000000000043adc0                mp_builtin_any_obj
                0x000000000043ade0                mp_builtin_all_obj
                0x000000000043ae00                mp_builtin_abs_obj
                0x000000000043ae20                mp_builtin___build_class___obj
 .rodata.cst16  0x0000000000000000       0x10 build/py/modbuiltins.o
 .rodata.cst8   0x000000000043ae38        0x8 build/py/modbuiltins.o
                                         0x10 (size before relaxing)
 .rodata        0x000000000043ae40       0x60 build/py/modcollections.o
                0x000000000043ae40                mp_module_collections
 .rodata        0x000000000043aea0      0x168 build/py/modgc.o
                0x000000000043aea0                mp_module_gc
                0x000000000043af50                gc_mem_alloc_obj
                0x000000000043af70                gc_mem_free_obj
                0x000000000043af90                gc_isenabled_obj
                0x000000000043afb0                gc_enable_obj
                0x000000000043afd0                gc_disable_obj
                0x000000000043aff0                gc_collect_obj
 *fill*         0x000000000043b008        0x8 
 .rodata        0x000000000043b010       0xa0 build/py/modio.o
                0x000000000043b010                mp_module_io
 .rodata        0x000000000043b0b0      0x7b0 build/py/modmath.o
                0x000000000043b0b0                mp_module_math
                0x000000000043b840                mp_math_pi_obj
                0x000000000043b850                mp_math_e_obj
 .rodata.cst8   0x000000000043b860       0x10 build/py/modmath.o
 .rodata.cst16  0x000000000043b870       0x10 build/py/modmath.o
                                         0x20 (size before relaxing)
 .rodata        0x000000000043b880      0x218 build/py/modcmath.o
                0x000000000043b880                mp_module_cmath
 .rodata.cst16  0x0000000000000000       0x10 build/py/modcmath.o
 .rodata.cst8   0x000000000043ba98       0x10 build/py/modcmath.o
                                         0x18 (size before relaxing)
 .rodata.str1.1
                0x000000000043baa8       0x8a build/py/modmicropython.o
 *fill*         0x000000000043bb32        0xe 
 .rodata        0x000000000043bb40      0x138 build/py/modmicropython.o
                0x000000000043bb40                mp_module_micropython
 .rodata.str1.1
                0x000000000043bc78       0x32 build/py/modstruct.o
 *fill*         0x000000000043bcaa        0x6 
 .rodata        0x000000000043bcb0      0x108 build/py/modstruct.o
                0x000000000043bce0                mp_module_struct
                0x000000000043bd60                struct_pack_obj
                0x000000000043bd80                struct_unpack_obj
                0x000000000043bda0                struct_calcsize_obj
 *fill*         0x000000000043bdb8        0x8 
 .rodata        0x000000000043bdc0      0x1c0 build/py/modsys.o
                0x000000000043bdc0                mp_module_sys
                0x000000000043bed0                mp_sys_print_exception_obj
                0x000000000043bef0                mp_sys_exit_obj
 .rodata.str1.1
                0x000000000043bf80        0xc build/py/modsys.o
 *fill*         0x000000000043bf8c        0x4 
 .rodata.str1.8
                0x000000000043bf90       0x50 build/py/vm.o
                                         0x4f (size before relaxing)
 .rodata.str1.1
                0x000000000043bfe0       0x7b build/py/vm.o
                                         0x7d (size before relaxing)
 *fill*         0x000000000043c05b        0x5 
 .rodata        0x000000000043c060      0x840 build/py/vm.o
 .rodata.str1.1
                0x000000000043c8a0       0x89 build/py/bc.o
                                        0x116 (size before relaxing)
 .rodata.str1.1
                0x000000000043c929      0x5f2 build/py/showbc.o
                                        0x5f8 (size before relaxing)
 *fill*         0x000000000043cf1b        0x5 
 .rodata        0x000000000043cf20      0x2f6 build/py/showbc.o
 .rodata.str1.1
                0x0000000000000000       0x20 build/py/repl.o
 .rodata.str1.1
                0x0000000000000000        0x3 build/py/pfenv.o
 *fill*         0x000000000043d216        0xa 
 .rodata        0x000000000043d220       0x31 build/py/pfenv.o
 .rodata.str1.1
                0x000000000043d251       0x1c build/py/pfenv_printf.o
                                         0x29 (size before relaxing)
 *fill*         0x000000000043d26d        0x3 
 .rodata        0x000000000043d270        0xe build/py/pfenv_printf.o
 .rodata.str1.1
                0x000000000043d27e       0xd7 build/py/../extmod/moductypes.o
                                         0xe9 (size before relaxing)
 *fill*         0x000000000043d355        0xb 
 .rodata        0x000000000043d360      0x470 build/py/../extmod/moductypes.o
                0x000000000043d4d0                mp_module_uctypes
                0x000000000043d6d0                uctypes_struct_bytes_at_obj
                0x000000000043d6f0                uctypes_struct_bytearray_at_obj
                0x000000000043d710                uctypes_struct_addressof_obj
 .rodata.str1.1
                0x000000000043d7d0       0x15 build/py/../extmod/modujson.o
 *fill*         0x000000000043d7e5        0xb 
 .rodata        0x000000000043d7f0       0xa8 build/py/../extmod/modujson.o
                0x000000000043d7f0                mp_module_ujson
 .rodata.str1.1
                0x000000000043d898      0x115 build/py/../extmod/modure.o
                                        0x135 (size before relaxing)
 *fill*         0x000000000043d9ad        0x3 
 .rodata        0x000000000043d9b0      0x308 build/py/../extmod/modure.o
                0x000000000043d9d0                mp_module_ure
                0x000000000043da60                mod_re_search_obj
                0x000000000043da80                mod_re_match_obj
                0x000000000043daa0                mod_re_compile_obj
                0x000000000043db90                re_split_obj
                0x000000000043dbb0                re_search_obj
                0x000000000043dbd0                re_match_obj
                0x000000000043dca0                match_group_obj
 *fill*         0x000000000043dcb8        0x8 
 .rodata        0x000000000043dcc0      0x158 build/py/../extmod/moduzlib.o
                0x000000000043dcc0                clcidx
                0x000000000043dce0                dist_base
                0x000000000043dd20                dist_bits
                0x000000000043dd40                length_base
                0x000000000043dd80                length_bits
                0x000000000043dda0                mp_module_uzlib
 .rodata.str1.1
                0x000000000043de18       0x1f build/py/../extmod/moduheapq.o
 *fill*         0x000000000043de37        0x9 
 .rodata        0x000000000043de40       0xd8 build/py/../extmod/moduheapq.o
                0x000000000043de40                mp_module_uheapq
 .rodata.str1.1
                0x0000000000000000        0x1 build/py/../extmod/moduhashlib.o
 *fill*         0x000000000043df18        0x8 
 .rodata        0x000000000043df20      0x288 build/py/../extmod/moduhashlib.o
                0x000000000043e020                mp_module_uhashlib
                0x000000000043e150                hash_hexdigest_obj
                0x000000000043e170                hash_digest_obj
                0x000000000043e190                hash_update_obj
 *fill*         0x000000000043e1a8        0x8 
 .rodata        0x000000000043e1b0       0x78 build/py/../extmod/modubinascii.o
                0x000000000043e1b0                mp_module_ubinascii
                0x000000000043e210                mod_binascii_hexlify_obj
 .rodata.str1.1
                0x000000000043e228      0x2ea build/main.o
                                        0x2eb (size before relaxing)
 .rodata.str1.1
                0x0000000000000000        0x1 build/input.o
 *fill*         0x000000000043e512        0xe 
 .rodata        0x000000000043e520       0x18 build/input.o
                0x000000000043e520                mp_builtin_input_obj
 .rodata.str1.1
                0x000000000043e538        0xb build/file.o
                                         0x28 (size before relaxing)
 *fill*         0x000000000043e543        0xd 
 .rodata        0x000000000043e550      0x338 build/file.o
                0x000000000043e550                mp_sys_stderr_obj
                0x000000000043e560                mp_sys_stdout_obj
                0x000000000043e570                mp_sys_stdin_obj
                0x000000000043e580                mp_builtin_open_obj
                0x000000000043e5a0                mp_type_textio
                0x000000000043e640                mp_type_fileio
 *fill*         0x000000000043e888        0x8 
 .rodata        0x000000000043e890       0xd8 build/modos.o
                0x000000000043e890                mp_module_os
 *fill*         0x000000000043e968        0x8 
 .rodata        0x000000000043e970       0xd8 build/modtime.o
                0x000000000043e970                mp_module_time
 .rodata.cst8   0x000000000043ea48        0x8 build/modtime.o
 .rodata.cst4   0x000000000043ea50        0x4 build/modtime.o
 .rodata.str1.1
                0x000000000043ea54       0x62 build/modtermios.o
 *fill*         0x000000000043eab6        0xa 
 .rodata        0x000000000043eac0      0x138 build/modtermios.o
                0x000000000043eae0                mp_module_termios
 .rodata.str1.1
                0x000000000043ebf8       0xfd build/modsocket.o
                                        0x10c (size before relaxing)
 *fill*         0x000000000043ecf5        0xb 
 .rodata        0x000000000043ed00      0x4c0 build/modsocket.o
                0x000000000043ed30                mp_module_socket
 .rodata.str1.1
                0x000000000043f1c0       0xd3 build/modffi.o
 *fill*         0x000000000043f293        0xd 
 .rodata        0x000000000043f2a0      0x630 build/modffi.o
                0x000000000043f460                mp_module_ffi
                0x000000000043f4f0                mod_ffi_as_bytearray_obj
                0x000000000043f510                mod_ffi_open_obj
                0x000000000043f570                ffivar_set_obj
                0x000000000043f590                ffivar_get_obj
                0x000000000043f610                ffimod_addr_obj
                0x000000000043f630                ffimod_var_obj
                0x000000000043f650                mod_ffi_callback_obj
                0x000000000043f670                mod_ffi_func_obj
                0x000000000043f690                ffimod_func_obj

.rodata1
 *(.rodata1)

.eh_frame_hdr   0x000000000043f8d0     0x271c
 *(.eh_frame_hdr)
 .eh_frame_hdr  0x000000000043f8d0     0x271c /usr/lib/gcc/x86_64-linux-gnu/4.8/../../../x86_64-linux-gnu/crt1.o

.eh_frame       0x0000000000441ff0     0xc1bc
 *(.eh_frame)
 .eh_frame      0x0000000000441ff0       0x30 /usr/lib/gcc/x86_64-linux-gnu/4.8/../../../x86_64-linux-gnu/crt1.o
 .eh_frame      0x0000000000442020       0x40 /usr/lib/gcc/x86_64-linux-gnu/4.8/../../../x86_64-linux-gnu/crt1.o
 .eh_frame      0x0000000000442060      0x148 build/py/malloc.o
 .eh_frame      0x00000000004421a8      0x298 build/py/gc.o
                                        0x290 (size before relaxing)
 .eh_frame      0x0000000000442440      0x258 build/py/qstr.o
                                        0x248 (size before relaxing)
 .eh_frame      0x0000000000442698      0x3b0 build/py/vstr.o
                                        0x380 (size before relaxing)
 .eh_frame      0x0000000000442a48      0x150 build/py/unicode.o
                                        0x138 (size before relaxing)
 .eh_frame      0x0000000000442b98      0x820 build/py/mpz.o
                                        0x7c0 (size before relaxing)
 .eh_frame      0x00000000004433b8      0x120 build/py/lexer.o
                                        0x128 (size before relaxing)
 .eh_frame      0x00000000004434d8       0x88 build/py/lexerstr.o
                                         0x98 (size before relaxing)
 .eh_frame      0x0000000000443560       0x80 build/py/lexerunix.o
                                         0x90 (size before relaxing)
 .eh_frame      0x00000000004435e0      0x288 build/py/parse.o
 .eh_frame      0x0000000000443868      0x110 build/py/scope.o
 .eh_frame      0x0000000000443978     0x1328 build/py/compile.o
                                       0x1250 (size before relaxing)
 .eh_frame      0x0000000000444ca0       0xc0 build/py/emitcommon.o
                                         0xd0 (size before relaxing)
 .eh_frame      0x0000000000444d60      0x110 build/py/emitpass1.o
 .eh_frame      0x0000000000444e70      0xd28 build/py/emitbc.o
                                        0xca0 (size before relaxing)
 .eh_frame      0x0000000000445b98      0x658 build/py/asmx64.o
                                        0x600 (size before relaxing)
 .eh_frame      0x00000000004461f0      0xe70 build/py/emitnx64.o
                                        0xdc0 (size before relaxing)
 .eh_frame      0x0000000000447060       0x18 build/py/parsenumbase.o
                                         0x30 (size before relaxing)
 .eh_frame      0x0000000000447078       0xd0 build/py/parsenum.o
                                         0xe0 (size before relaxing)
 .eh_frame      0x0000000000447148       0x98 build/py/emitglue.o
                                         0xa8 (size before relaxing)
 .eh_frame      0x00000000004471e0      0x578 build/py/runtime.o
                                        0x550 (size before relaxing)
 .eh_frame      0x0000000000447758       0x68 build/py/nativeglue.o
                                         0x78 (size before relaxing)
 .eh_frame      0x00000000004477c0       0x60 build/py/stackctrl.o
                                         0x70 (size before relaxing)
 .eh_frame      0x0000000000447820       0xa8 build/py/argcheck.o
                                         0xb8 (size before relaxing)
 .eh_frame      0x00000000004478c8       0x40 build/py/warning.o
                                         0x50 (size before relaxing)
 .eh_frame      0x0000000000447908      0x228 build/py/map.o
                                        0x218 (size before relaxing)
 .eh_frame      0x0000000000447b30      0x370 build/py/obj.o
                                        0x360 (size before relaxing)
 .eh_frame      0x0000000000447ea0      0x2f8 build/py/objarray.o
 .eh_frame      0x0000000000448198       0x88 build/py/objbool.o
                                         0x98 (size before relaxing)
 .eh_frame      0x0000000000448220       0xa0 build/py/objboundmeth.o
                                         0xb8 (size before relaxing)
 .eh_frame      0x00000000004482c0       0x80 build/py/objcell.o
                                         0x88 (size before relaxing)
 .eh_frame      0x0000000000448340       0xc0 build/py/objclosure.o
                                         0xd8 (size before relaxing)
 .eh_frame      0x0000000000448400      0x108 build/py/objcomplex.o
                                        0x110 (size before relaxing)
 .eh_frame      0x0000000000448508      0x450 build/py/objdict.o
                                        0x430 (size before relaxing)
 .eh_frame      0x0000000000448958       0x48 build/py/objenumerate.o
                                         0x60 (size before relaxing)
 .eh_frame      0x00000000004489a0      0x280 build/py/objexcept.o
                                        0x270 (size before relaxing)
 .eh_frame      0x0000000000448c20       0x50 build/py/objfilter.o
                                         0x68 (size before relaxing)
 .eh_frame      0x0000000000448c70      0x100 build/py/objfloat.o
                                        0x110 (size before relaxing)
 .eh_frame      0x0000000000448d70      0x1f0 build/py/objfun.o
                                        0x1f8 (size before relaxing)
 .eh_frame      0x0000000000448f60      0x140 build/py/objgenerator.o
                                        0x148 (size before relaxing)
 .eh_frame      0x00000000004490a0       0x48 build/py/objgetitemiter.o
                                         0x60 (size before relaxing)
 .eh_frame      0x00000000004490e8      0x128 build/py/objint.o
                                        0x138 (size before relaxing)
 .eh_frame      0x0000000000449210      0x218 build/py/objint_mpz.o
                                        0x210 (size before relaxing)
 .eh_frame      0x0000000000449428      0x3d0 build/py/objlist.o
                                        0x3b8 (size before relaxing)
 .eh_frame      0x00000000004497f8       0x70 build/py/objmap.o
                                         0x88 (size before relaxing)
 .eh_frame      0x0000000000449868      0x150 build/py/objmodule.o
 .eh_frame      0x00000000004499b8       0x50 build/py/objobject.o
                                         0x60 (size before relaxing)
 .eh_frame      0x0000000000449a08       0xc0 build/py/objproperty.o
                                         0xd8 (size before relaxing)
 .eh_frame      0x0000000000449ac8       0x30 build/py/objnone.o
                                         0x40 (size before relaxing)
 .eh_frame      0x0000000000449af8       0xd8 build/py/objnamedtuple.o
                                         0xe0 (size before relaxing)
 .eh_frame      0x0000000000449bd0      0x110 build/py/objrange.o
                                        0x118 (size before relaxing)
 .eh_frame      0x0000000000449ce0       0x50 build/py/objreversed.o
                                         0x68 (size before relaxing)
 .eh_frame      0x0000000000449d30      0x4f0 build/py/objset.o
                                        0x4d0 (size before relaxing)
 .eh_frame      0x000000000044a220       0x90 build/py/objslice.o
                                         0xa0 (size before relaxing)
 .eh_frame      0x000000000044a2b0      0x9d0 build/py/objstr.o
                                        0x960 (size before relaxing)
 .eh_frame      0x000000000044ac80      0x130 build/py/objstrunicode.o
                                        0x140 (size before relaxing)
 .eh_frame      0x000000000044adb0      0x108 build/py/objstringio.o
                                        0x110 (size before relaxing)
 .eh_frame      0x000000000044aeb8      0x200 build/py/objtuple.o
                                        0x1f8 (size before relaxing)
 .eh_frame      0x000000000044b0b8      0x528 build/py/objtype.o
                                        0x520 (size before relaxing)
 .eh_frame      0x000000000044b5e0       0x68 build/py/objzip.o
                                         0x80 (size before relaxing)
 .eh_frame      0x000000000044b648       0x88 build/py/opmethods.o
                                         0xa0 (size before relaxing)
 .eh_frame      0x000000000044b6d0      0x180 build/py/sequence.o
                                        0x190 (size before relaxing)
 .eh_frame      0x000000000044b850      0x1a0 build/py/stream.o
                                        0x1b0 (size before relaxing)
 .eh_frame      0x000000000044b9f0      0x130 build/py/binary.o
                                        0x138 (size before relaxing)
 .eh_frame      0x000000000044bb20       0x98 build/py/builtinimport.o
                                         0xa8 (size before relaxing)
 .eh_frame      0x000000000044bbb8       0xb0 build/py/builtinevex.o
                                         0xc0 (size before relaxing)
 .eh_frame      0x000000000044bc68      0x410 build/py/modbuiltins.o
                                        0x3f0 (size before relaxing)
 .eh_frame      0x000000000044c078       0x90 build/py/modgc.o
                                         0xa0 (size before relaxing)
 .eh_frame      0x000000000044c108      0x3b8 build/py/modmath.o
                                        0x3d0 (size before relaxing)
 .eh_frame      0x000000000044c4c0       0xe0 build/py/modcmath.o
                                         0xf8 (size before relaxing)
 .eh_frame      0x000000000044c5a0       0x90 build/py/modmicropython.o
                                         0xa8 (size before relaxing)
 .eh_frame      0x000000000044c630      0x108 build/py/modstruct.o
                                        0x118 (size before relaxing)
 .eh_frame      0x000000000044c738       0x30 build/py/modsys.o
                                         0x48 (size before relaxing)
 .eh_frame      0x000000000044c768       0x50 build/py/vm.o
                                         0x68 (size before relaxing)
 .eh_frame      0x000000000044c7b8       0x88 build/py/bc.o
                                         0x98 (size before relaxing)
 .eh_frame      0x000000000044c840       0xa0 build/py/showbc.o
                                         0xb0 (size before relaxing)
 .eh_frame      0x000000000044c8e0       0x38 build/py/repl.o
                                         0x50 (size before relaxing)
 .eh_frame      0x000000000044c918       0x48 build/py/smallint.o
                                         0x58 (size before relaxing)
 .eh_frame      0x000000000044c960      0x150 build/py/pfenv.o
                                        0x158 (size before relaxing)
 .eh_frame      0x000000000044cab0       0x88 build/py/pfenv_printf.o
                                         0x98 (size before relaxing)
 .eh_frame      0x000000000044cb38      0x2b8 build/py/../extmod/moductypes.o
 .eh_frame      0x000000000044cdf0       0x70 build/py/../extmod/modujson.o
                                         0x88 (size before relaxing)
 .eh_frame      0x000000000044ce60      0x320 build/py/../extmod/modure.o
                                        0x2f8 (size before relaxing)
 .eh_frame      0x000000000044d180      0x2c8 build/py/../extmod/moduzlib.o
                                        0x2c0 (size before relaxing)
 .eh_frame      0x000000000044d448      0x118 build/py/../extmod/moduheapq.o
                                        0x128 (size before relaxing)
 .eh_frame      0x000000000044d560      0x158 build/py/../extmod/moduhashlib.o
                                        0x160 (size before relaxing)
 .eh_frame      0x000000000044d6b8       0x18 build/py/../extmod/modubinascii.o
                                         0x30 (size before relaxing)
 .eh_frame      0x000000000044d6d0      0x170 build/main.o
                                        0x178 (size before relaxing)
 .eh_frame      0x000000000044d840       0x48 build/gccollect.o
                                         0x60 (size before relaxing)
 .eh_frame      0x000000000044d888       0x38 build/input.o
                                         0x50 (size before relaxing)
 .eh_frame      0x000000000044d8c0      0x1a8 build/file.o
                                        0x1b0 (size before relaxing)
 .eh_frame      0x000000000044da68       0x50 build/modos.o
                                         0x68 (size before relaxing)
 .eh_frame      0x000000000044dab8       0x68 build/alloc.o
                                         0x78 (size before relaxing)
 .eh_frame      0x000000000044db20       0x48 build/modtime.o
                                         0x60 (size before relaxing)
 .eh_frame      0x000000000044db68       0xc0 build/modtermios.o
                                         0xd0 (size before relaxing)
 .eh_frame      0x000000000044dc28      0x258 build/modsocket.o
                                        0x260 (size before relaxing)
 .eh_frame      0x000000000044de80      0x2b0 build/modffi.o
                                        0x2a0 (size before relaxing)
 .eh_frame      0x000000000044e130       0x60 /usr/lib/x86_64-linux-gnu/libc_nonshared.a(elf-init.oS)
                                         0x78 (size before relaxing)
 .eh_frame      0x000000000044e190       0x18 /usr/lib/x86_64-linux-gnu/libc_nonshared.a(stat.oS)
                                         0x30 (size before relaxing)
 .eh_frame      0x000000000044e1a8        0x4 /usr/lib/gcc/x86_64-linux-gnu/4.8/crtend.o

.gcc_except_table
 *(.gcc_except_table .gcc_except_table.*)

.exception_ranges
 *(.exception_ranges .exception_ranges*)
                0x000000000044e1ac                . = (ALIGN (0x200000) - ((0x200000 - .) & 0x1fffff))
                0x000000000064edcc                . = DATA_SEGMENT_ALIGN (0x200000, 0x1000)

.eh_frame
 *(.eh_frame)

.gcc_except_table
 *(.gcc_except_table .gcc_except_table.*)

.exception_ranges
 *(.exception_ranges .exception_ranges*)

.tdata
 *(.tdata .tdata.* .gnu.linkonce.td.*)

.tbss
 *(.tbss .tbss.* .gnu.linkonce.tb.*)
 *(.tcommon)

.preinit_array  0x000000000064edcc        0x0
                0x000000000064edcc                PROVIDE (__preinit_array_start, .)
 *(.preinit_array)
                0x000000000064edcc                PROVIDE (__preinit_array_end, .)

.init_array     0x000000000064edd0        0x8
                0x000000000064edd0                PROVIDE (__init_array_start, .)
 *(SORT(.init_array.*) SORT(.ctors.*))
 *(.init_array EXCLUDE_FILE(*crtend?.o *crtend.o *crtbegin?.o *crtbegin.o) .ctors)
 .init_array    0x000000000064edd0        0x8 /usr/lib/gcc/x86_64-linux-gnu/4.8/crtbegin.o
                0x000000000064edd8                PROVIDE (__init_array_end, .)

.fini_array     0x000000000064edd8        0x8
                0x000000000064edd8                PROVIDE (__fini_array_start, .)
 *(SORT(.fini_array.*) SORT(.dtors.*))
 *(.fini_array EXCLUDE_FILE(*crtend?.o *crtend.o *crtbegin?.o *crtbegin.o) .dtors)
 .fini_array    0x000000000064edd8        0x8 /usr/lib/gcc/x86_64-linux-gnu/4.8/crtbegin.o
                0x000000000064ede0                PROVIDE (__fini_array_end, .)

.ctors
 *crtbegin.o(.ctors)
 *crtbegin?.o(.ctors)
 *(EXCLUDE_FILE(*crtend?.o *crtend.o) .ctors)
 *(SORT(.ctors.*))
 *(.ctors)

.dtors
 *crtbegin.o(.dtors)
 *crtbegin?.o(.dtors)
 *(EXCLUDE_FILE(*crtend?.o *crtend.o) .dtors)
 *(SORT(.dtors.*))
 *(.dtors)

.jcr            0x000000000064ede0        0x8
 *(.jcr)
 .jcr           0x000000000064ede0        0x0 /usr/lib/gcc/x86_64-linux-gnu/4.8/crtbegin.o
 .jcr           0x000000000064ede0        0x8 /usr/lib/gcc/x86_64-linux-gnu/4.8/crtend.o

.data.rel.ro
 *(.data.rel.ro.local* .gnu.linkonce.d.rel.ro.local.*)
 *(.data.rel.ro .data.rel.ro.* .gnu.linkonce.d.rel.ro.*)

.dynamic        0x000000000064ede8      0x210
 *(.dynamic)
 .dynamic       0x000000000064ede8      0x210 /usr/lib/gcc/x86_64-linux-gnu/4.8/../../../x86_64-linux-gnu/crt1.o
                0x000000000064ede8                _DYNAMIC

.got            0x000000000064eff8        0x8
 *(.got)
 .got           0x000000000064eff8        0x8 /usr/lib/gcc/x86_64-linux-gnu/4.8/../../../x86_64-linux-gnu/crt1.o
 *(.igot)
                0x000000000064ffe8                . = DATA_SEGMENT_RELRO_END (., (SIZEOF (.got.plt) >= 0x18)?0x18:0x0)

.got.plt        0x000000000064f000      0x380
 *(.got.plt)
 .got.plt       0x000000000064f000      0x380 /usr/lib/gcc/x86_64-linux-gnu/4.8/../../../x86_64-linux-gnu/crt1.o
                0x000000000064f000                _GLOBAL_OFFSET_TABLE_
 *(.igot.plt)
 .igot.plt      0x0000000000000000        0x0 /usr/lib/gcc/x86_64-linux-gnu/4.8/../../../x86_64-linux-gnu/crt1.o

.data           0x000000000064f380       0x18
 *(.data .data.* .gnu.linkonce.d.*)
 .data          0x000000000064f380        0x4 /usr/lib/gcc/x86_64-linux-gnu/4.8/../../../x86_64-linux-gnu/crt1.o
                0x000000000064f380                data_start
                0x000000000064f380                __data_start
 .data          0x000000000064f384        0x0 /usr/lib/gcc/x86_64-linux-gnu/4.8/../../../x86_64-linux-gnu/crti.o
 *fill*         0x000000000064f384        0x4 
 .data          0x000000000064f388        0x8 /usr/lib/gcc/x86_64-linux-gnu/4.8/crtbegin.o
                0x000000000064f388                __dso_handle
 .data          0x000000000064f390        0x0 build/py/mpstate.o
 .data          0x000000000064f390        0x0 build/py/nlrx86.o
 .data          0x000000000064f390        0x0 build/py/nlrx64.o
 .data          0x000000000064f390        0x0 build/py/nlrthumb.o
 .data          0x000000000064f390        0x0 build/py/nlrxtensa.o
 .data          0x000000000064f390        0x0 build/py/nlrsetjmp.o
 .data          0x000000000064f390        0x0 build/py/malloc.o
 .data          0x000000000064f390        0x0 build/py/gc.o
 .data          0x000000000064f390        0x0 build/py/qstr.o
 .data          0x000000000064f390        0x0 build/py/vstr.o
 .data          0x000000000064f390        0x0 build/py/unicode.o
 .data          0x000000000064f390        0x0 build/py/mpz.o
 .data          0x000000000064f390        0x0 build/py/lexer.o
 .data          0x000000000064f390        0x0 build/py/lexerstr.o
 .data          0x000000000064f390        0x0 build/py/lexerunix.o
 .data          0x000000000064f390        0x0 build/py/parse.o
 .data          0x000000000064f390        0x0 build/py/scope.o
 .data          0x000000000064f390        0x0 build/py/compile.o
 .data          0x000000000064f390        0x0 build/py/emitcommon.o
 .data          0x000000000064f390        0x0 build/py/emitpass1.o
 .data          0x000000000064f390        0x0 build/py/emitcpy.o
 .data          0x000000000064f390        0x0 build/py/emitbc.o
 .data          0x000000000064f390        0x0 build/py/asmx64.o
 .data          0x000000000064f390        0x0 build/py/emitnx64.o
 .data          0x000000000064f390        0x0 build/py/asmx86.o
 .data          0x000000000064f390        0x0 build/py/emitnx86.o
 .data          0x000000000064f390        0x0 build/py/asmthumb.o
 .data          0x000000000064f390        0x0 build/py/emitnthumb.o
 .data          0x000000000064f390        0x0 build/py/emitinlinethumb.o
 .data          0x000000000064f390        0x0 build/py/asmarm.o
 .data          0x000000000064f390        0x0 build/py/emitnarm.o
 .data          0x000000000064f390        0x0 build/py/formatfloat.o
 .data          0x000000000064f390        0x0 build/py/parsenumbase.o
 .data          0x000000000064f390        0x0 build/py/parsenum.o
 .data          0x000000000064f390        0x0 build/py/emitglue.o
 .data          0x000000000064f390        0x0 build/py/runtime.o
 .data          0x000000000064f390        0x0 build/py/nativeglue.o
 .data          0x000000000064f390        0x0 build/py/stackctrl.o
 .data          0x000000000064f390        0x0 build/py/argcheck.o
 .data          0x000000000064f390        0x0 build/py/warning.o
 .data          0x000000000064f390        0x0 build/py/map.o
 .data          0x000000000064f390        0x0 build/py/obj.o
 .data          0x000000000064f390        0x0 build/py/objarray.o
 .data          0x000000000064f390        0x0 build/py/objbool.o
 .data          0x000000000064f390        0x0 build/py/objboundmeth.o
 .data          0x000000000064f390        0x0 build/py/objcell.o
 .data          0x000000000064f390        0x0 build/py/objclosure.o
 .data          0x000000000064f390        0x0 build/py/objcomplex.o
 .data          0x000000000064f390        0x0 build/py/objdict.o
 .data          0x000000000064f390        0x0 build/py/objenumerate.o
 .data          0x000000000064f390        0x0 build/py/objexcept.o
 .data          0x000000000064f390        0x0 build/py/objfilter.o
 .data          0x000000000064f390        0x0 build/py/objfloat.o
 .data          0x000000000064f390        0x0 build/py/objfun.o
 .data          0x000000000064f390        0x0 build/py/objgenerator.o
 .data          0x000000000064f390        0x0 build/py/objgetitemiter.o
 .data          0x000000000064f390        0x0 build/py/objint.o
 .data          0x000000000064f390        0x0 build/py/objint_longlong.o
 .data          0x000000000064f390        0x0 build/py/objint_mpz.o
 .data          0x000000000064f390        0x0 build/py/objlist.o
 .data          0x000000000064f390        0x0 build/py/objmap.o
 .data          0x000000000064f390        0x0 build/py/objmodule.o
 .data          0x000000000064f390        0x0 build/py/objobject.o
 .data          0x000000000064f390        0x0 build/py/objproperty.o
 .data          0x000000000064f390        0x0 build/py/objnone.o
 .data          0x000000000064f390        0x0 build/py/objnamedtuple.o
 .data          0x000000000064f390        0x0 build/py/objrange.o
 .data          0x000000000064f390        0x0 build/py/objreversed.o
 .data          0x000000000064f390        0x0 build/py/objset.o
 .data          0x000000000064f390        0x0 build/py/objslice.o
 .data          0x000000000064f390        0x0 build/py/objstr.o
 .data          0x000000000064f390        0x0 build/py/objstrunicode.o
 .data          0x000000000064f390        0x0 build/py/objstringio.o
 .data          0x000000000064f390        0x0 build/py/objtuple.o
 .data          0x000000000064f390        0x0 build/py/objtype.o
 .data          0x000000000064f390        0x0 build/py/objzip.o
 .data          0x000000000064f390        0x0 build/py/opmethods.o
 .data          0x000000000064f390        0x0 build/py/sequence.o
 .data          0x000000000064f390        0x0 build/py/stream.o
 .data          0x000000000064f390        0x0 build/py/binary.o
 .data          0x000000000064f390        0x0 build/py/builtinimport.o
 .data          0x000000000064f390        0x0 build/py/builtinevex.o
 .data          0x000000000064f390        0x0 build/py/modarray.o
 .data          0x000000000064f390        0x0 build/py/modbuiltins.o
 .data          0x000000000064f390        0x0 build/py/modcollections.o
 .data          0x000000000064f390        0x0 build/py/modgc.o
 .data          0x000000000064f390        0x0 build/py/modio.o
 .data          0x000000000064f390        0x0 build/py/modmath.o
 .data          0x000000000064f390        0x0 build/py/modcmath.o
 .data          0x000000000064f390        0x0 build/py/modmicropython.o
 .data          0x000000000064f390        0x0 build/py/modstruct.o
 .data          0x000000000064f390        0x0 build/py/modsys.o
 .data          0x000000000064f390        0x0 build/py/vm.o
 .data          0x000000000064f390        0x0 build/py/bc.o
 .data          0x000000000064f390        0x0 build/py/showbc.o
 .data          0x000000000064f390        0x0 build/py/repl.o
 .data          0x000000000064f390        0x0 build/py/smallint.o
 .data          0x000000000064f390        0x0 build/py/pfenv.o
 .data          0x000000000064f390        0x0 build/py/pfenv_printf.o
 .data          0x000000000064f390        0x0 build/py/frozenmod.o
 .data          0x000000000064f390        0x0 build/py/../extmod/moductypes.o
 .data          0x000000000064f390        0x0 build/py/../extmod/modujson.o
 .data          0x000000000064f390        0x0 build/py/../extmod/modure.o
 .data          0x000000000064f390        0x0 build/py/../extmod/moduzlib.o
 .data          0x000000000064f390        0x0 build/py/../extmod/moduheapq.o
 .data          0x000000000064f390        0x0 build/py/../extmod/moduhashlib.o
 .data          0x000000000064f390        0x0 build/py/../extmod/modubinascii.o
 .data          0x000000000064f390        0x8 build/main.o
                0x000000000064f390                heap_size
 .data          0x000000000064f398        0x0 build/gccollect.o
 .data          0x000000000064f398        0x0 build/input.o
 .data          0x000000000064f398        0x0 build/file.o
 .data          0x000000000064f398        0x0 build/modos.o
 .data          0x000000000064f398        0x0 build/alloc.o
 .data          0x000000000064f398        0x0 build/modtime.o
 .data          0x000000000064f398        0x0 build/modtermios.o
 .data          0x000000000064f398        0x0 build/modsocket.o
 .data          0x000000000064f398        0x0 build/modffi.o
 .data          0x000000000064f398        0x0 /usr/lib/x86_64-linux-gnu/libc_nonshared.a(elf-init.oS)
 .data          0x000000000064f398        0x0 /usr/lib/x86_64-linux-gnu/libc_nonshared.a(stat.oS)
 .data          0x000000000064f398        0x0 /usr/lib/gcc/x86_64-linux-gnu/4.8/crtend.o
 .data          0x000000000064f398        0x0 /usr/lib/gcc/x86_64-linux-gnu/4.8/../../../x86_64-linux-gnu/crtn.o

.tm_clone_table
                0x000000000064f398        0x0
 .tm_clone_table
                0x000000000064f398        0x0 /usr/lib/gcc/x86_64-linux-gnu/4.8/crtbegin.o
 .tm_clone_table
                0x000000000064f398        0x0 /usr/lib/gcc/x86_64-linux-gnu/4.8/crtend.o

.data1
 *(.data1)
                0x000000000064f398                _edata = .
                0x000000000064f398                PROVIDE (edata, .)
                0x000000000064f398                . = .
                0x000000000064f398                __bss_start = .

.bss            0x000000000064f3a0      0x600
 *(.dynbss)
 .dynbss        0x000000000064f3a0      0x180 /usr/lib/gcc/x86_64-linux-gnu/4.8/../../../x86_64-linux-gnu/crt1.o
                0x000000000064f3a0                ffi_type_void
                0x000000000064f3c0                ffi_type_double
                0x000000000064f3e0                ffi_type_sint8
                0x000000000064f400                ffi_type_uint16
                0x000000000064f420                ffi_type_sint32
                0x000000000064f440                ffi_type_uint8
                0x000000000064f460                ffi_type_float
                0x000000000064f480                ffi_type_uint64
                0x000000000064f4a0                ffi_type_sint64
                0x000000000064f4c0                ffi_type_pointer
                0x000000000064f4e0                ffi_type_uint32
                0x000000000064f500                ffi_type_sint16
                0x000000000064f518                stderr@@GLIBC_2.2.5
 *(.bss .bss.* .gnu.linkonce.b.*)
 .bss           0x000000000064f520        0x0 /usr/lib/gcc/x86_64-linux-gnu/4.8/../../../x86_64-linux-gnu/crt1.o
 .bss           0x000000000064f520        0x0 /usr/lib/gcc/x86_64-linux-gnu/4.8/../../../x86_64-linux-gnu/crti.o
 .bss           0x000000000064f520        0x1 /usr/lib/gcc/x86_64-linux-gnu/4.8/crtbegin.o
 .bss           0x000000000064f521        0x0 build/py/mpstate.o
 .bss           0x000000000064f521        0x0 build/py/nlrx86.o
 .bss           0x000000000064f521        0x0 build/py/nlrx64.o
 .bss           0x000000000064f521        0x0 build/py/nlrthumb.o
 .bss           0x000000000064f521        0x0 build/py/nlrxtensa.o
 .bss           0x000000000064f521        0x0 build/py/nlrsetjmp.o
 .bss           0x000000000064f521        0x0 build/py/malloc.o
 .bss           0x000000000064f521        0x0 build/py/gc.o
 .bss           0x000000000064f521        0x0 build/py/qstr.o
 .bss           0x000000000064f521        0x0 build/py/vstr.o
 .bss           0x000000000064f521        0x0 build/py/unicode.o
 .bss           0x000000000064f521        0x0 build/py/mpz.o
 .bss           0x000000000064f521        0x0 build/py/lexer.o
 .bss           0x000000000064f521        0x0 build/py/lexerstr.o
 .bss           0x000000000064f521        0x0 build/py/lexerunix.o
 .bss           0x000000000064f521        0x0 build/py/parse.o
 .bss           0x000000000064f521        0x0 build/py/scope.o
 .bss           0x000000000064f521        0x0 build/py/compile.o
 .bss           0x000000000064f521        0x0 build/py/emitcommon.o
 .bss           0x000000000064f521        0x0 build/py/emitpass1.o
 .bss           0x000000000064f521        0x0 build/py/emitcpy.o
 .bss           0x000000000064f521        0x0 build/py/emitbc.o
 .bss           0x000000000064f521        0x0 build/py/asmx64.o
 .bss           0x000000000064f521        0x0 build/py/emitnx64.o
 .bss           0x000000000064f521        0x0 build/py/asmx86.o
 .bss           0x000000000064f521        0x0 build/py/emitnx86.o
 .bss           0x000000000064f521        0x0 build/py/asmthumb.o
 .bss           0x000000000064f521        0x0 build/py/emitnthumb.o
 .bss           0x000000000064f521        0x0 build/py/emitinlinethumb.o
 .bss           0x000000000064f521        0x0 build/py/asmarm.o
 .bss           0x000000000064f521        0x0 build/py/emitnarm.o
 .bss           0x000000000064f521        0x0 build/py/formatfloat.o
 .bss           0x000000000064f521        0x0 build/py/parsenumbase.o
 .bss           0x000000000064f521        0x0 build/py/parsenum.o
 .bss           0x000000000064f521        0x0 build/py/emitglue.o
 .bss           0x000000000064f521        0x0 build/py/runtime.o
 .bss           0x000000000064f521        0x0 build/py/nativeglue.o
 .bss           0x000000000064f521        0x0 build/py/stackctrl.o
 .bss           0x000000000064f521        0x0 build/py/argcheck.o
 .bss           0x000000000064f521        0x0 build/py/warning.o
 .bss           0x000000000064f521        0x0 build/py/map.o
 .bss           0x000000000064f521        0x0 build/py/obj.o
 .bss           0x000000000064f521        0x0 build/py/objarray.o
 .bss           0x000000000064f521        0x0 build/py/objbool.o
 .bss           0x000000000064f521        0x0 build/py/objboundmeth.o
 .bss           0x000000000064f521        0x0 build/py/objcell.o
 .bss           0x000000000064f521        0x0 build/py/objclosure.o
 .bss           0x000000000064f521        0x0 build/py/objcomplex.o
 .bss           0x000000000064f521        0x0 build/py/objdict.o
 .bss           0x000000000064f521        0x0 build/py/objenumerate.o
 .bss           0x000000000064f521        0x0 build/py/objexcept.o
 .bss           0x000000000064f521        0x0 build/py/objfilter.o
 .bss           0x000000000064f521        0x0 build/py/objfloat.o
 .bss           0x000000000064f521        0x0 build/py/objfun.o
 .bss           0x000000000064f521        0x0 build/py/objgenerator.o
 .bss           0x000000000064f521        0x0 build/py/objgetitemiter.o
 .bss           0x000000000064f521        0x0 build/py/objint.o
 .bss           0x000000000064f521        0x0 build/py/objint_longlong.o
 .bss           0x000000000064f521        0x0 build/py/objint_mpz.o
 .bss           0x000000000064f521        0x0 build/py/objlist.o
 .bss           0x000000000064f521        0x0 build/py/objmap.o
 .bss           0x000000000064f521        0x0 build/py/objmodule.o
 .bss           0x000000000064f521        0x0 build/py/objobject.o
 .bss           0x000000000064f521        0x0 build/py/objproperty.o
 .bss           0x000000000064f521        0x0 build/py/objnone.o
 .bss           0x000000000064f521        0x0 build/py/objnamedtuple.o
 .bss           0x000000000064f521        0x0 build/py/objrange.o
 .bss           0x000000000064f521        0x0 build/py/objreversed.o
 .bss           0x000000000064f521        0x0 build/py/objset.o
 .bss           0x000000000064f521        0x0 build/py/objslice.o
 .bss           0x000000000064f521        0x0 build/py/objstr.o
 .bss           0x000000000064f521        0x0 build/py/objstrunicode.o
 .bss           0x000000000064f521        0x0 build/py/objstringio.o
 .bss           0x000000000064f521        0x0 build/py/objtuple.o
 .bss           0x000000000064f521        0x0 build/py/objtype.o
 .bss           0x000000000064f521        0x0 build/py/objzip.o
 .bss           0x000000000064f521        0x0 build/py/opmethods.o
 .bss           0x000000000064f521        0x0 build/py/sequence.o
 .bss           0x000000000064f521        0x0 build/py/stream.o
 .bss           0x000000000064f521        0x0 build/py/binary.o
 .bss           0x000000000064f521        0x0 build/py/builtinimport.o
 .bss           0x000000000064f521        0x0 build/py/builtinevex.o
 .bss           0x000000000064f521        0x0 build/py/modarray.o
 .bss           0x000000000064f521        0x0 build/py/modbuiltins.o
 .bss           0x000000000064f521        0x0 build/py/modcollections.o
 .bss           0x000000000064f521        0x0 build/py/modgc.o
 .bss           0x000000000064f521        0x0 build/py/modio.o
 .bss           0x000000000064f521        0x0 build/py/modmath.o
 .bss           0x000000000064f521        0x0 build/py/modcmath.o
 .bss           0x000000000064f521        0x0 build/py/modmicropython.o
 .bss           0x000000000064f521        0x0 build/py/modstruct.o
 .bss           0x000000000064f521        0x0 build/py/modsys.o
 .bss           0x000000000064f521        0x0 build/py/vm.o
 .bss           0x000000000064f521        0x0 build/py/bc.o
 .bss           0x000000000064f521        0x0 build/py/showbc.o
 .bss           0x000000000064f521        0x0 build/py/repl.o
 .bss           0x000000000064f521        0x0 build/py/smallint.o
 .bss           0x000000000064f521        0x0 build/py/pfenv.o
 .bss           0x000000000064f521        0x0 build/py/pfenv_printf.o
 .bss           0x000000000064f521        0x0 build/py/frozenmod.o
 .bss           0x000000000064f521        0x0 build/py/../extmod/moductypes.o
 .bss           0x000000000064f521        0x0 build/py/../extmod/modujson.o
 .bss           0x000000000064f521        0x0 build/py/../extmod/modure.o
 .bss           0x000000000064f521        0x0 build/py/../extmod/moduzlib.o
 .bss           0x000000000064f521        0x0 build/py/../extmod/moduheapq.o
 .bss           0x000000000064f521        0x0 build/py/../extmod/moduhashlib.o
 .bss           0x000000000064f521        0x0 build/py/../extmod/modubinascii.o
 *fill*         0x000000000064f521        0x7 
 .bss           0x000000000064f528        0xd build/main.o
                0x000000000064f528                mp_verbose_flag
 .bss           0x000000000064f535        0x0 build/gccollect.o
 .bss           0x000000000064f535        0x0 build/input.o
 .bss           0x000000000064f535        0x0 build/file.o
 .bss           0x000000000064f535        0x0 build/modos.o
 .bss           0x000000000064f535        0x0 build/alloc.o
 .bss           0x000000000064f535        0x0 build/modtime.o
 .bss           0x000000000064f535        0x0 build/modtermios.o
 .bss           0x000000000064f535        0x0 build/modsocket.o
 .bss           0x000000000064f535        0x0 build/modffi.o
 .bss           0x000000000064f535        0x0 /usr/lib/x86_64-linux-gnu/libc_nonshared.a(elf-init.oS)
 .bss           0x000000000064f535        0x0 /usr/lib/x86_64-linux-gnu/libc_nonshared.a(stat.oS)
 .bss           0x000000000064f535        0x0 /usr/lib/gcc/x86_64-linux-gnu/4.8/crtend.o
 .bss           0x000000000064f535        0x0 /usr/lib/gcc/x86_64-linux-gnu/4.8/../../../x86_64-linux-gnu/crtn.o
 *(COMMON)
 *fill*         0x000000000064f535        0xb 
 COMMON         0x000000000064f540      0x458 build/py/mpstate.o
                0x000000000064f540                mp_state_ctx
 COMMON         0x000000000064f998        0x8 build/py/showbc.o
                0x000000000064f998                mp_showbc_code_start
                0x000000000064f9a0                . = ALIGN ((. != 0x0)?0x8:0x1)

.lbss
 *(.dynlbss)
 *(.lbss .lbss.* .gnu.linkonce.lb.*)
 *(LARGE_COMMON)
                0x000000000064f9a0                . = ALIGN (0x8)
                0x000000000064f9a0                . = SEGMENT_START ("ldata-segment", .)

.lrodata
 *(.lrodata .lrodata.* .gnu.linkonce.lr.*)

.ldata          0x0000000000a4f9a0        0x0
 *(.ldata .ldata.* .gnu.linkonce.l.*)
                0x0000000000a4f9a0                . = ALIGN ((. != 0x0)?0x8:0x1)
                0x0000000000a4f9a0                . = ALIGN (0x8)
                0x0000000000a4f9a0                _end = .
                0x0000000000a4f9a0                PROVIDE (end, .)
                0x0000000000a4f9a0                . = DATA_SEGMENT_END (.)

.stab
 *(.stab)

.stabstr
 *(.stabstr)

.stab.excl
 *(.stab.excl)

.stab.exclstr
 *(.stab.exclstr)

.stab.index
 *(.stab.index)

.stab.indexstr
 *(.stab.indexstr)

.comment        0x0000000000000000       0x24
 *(.comment)
 .comment       0x0000000000000000       0x24 /usr/lib/gcc/x86_64-linux-gnu/4.8/crtbegin.o
                                         0x25 (size before relaxing)
 .comment       0x0000000000000000       0x25 build/py/mpstate.o
 .comment       0x0000000000000000       0x25 build/py/nlrsetjmp.o
 .comment       0x0000000000000000       0x25 build/py/malloc.o
 .comment       0x0000000000000000       0x25 build/py/gc.o
 .comment       0x0000000000000000       0x25 build/py/qstr.o
 .comment       0x0000000000000000       0x25 build/py/vstr.o
 .comment       0x0000000000000000       0x25 build/py/unicode.o
 .comment       0x0000000000000000       0x25 build/py/mpz.o
 .comment       0x0000000000000000       0x25 build/py/lexer.o
 .comment       0x0000000000000000       0x25 build/py/lexerstr.o
 .comment       0x0000000000000000       0x25 build/py/lexerunix.o
 .comment       0x0000000000000000       0x25 build/py/parse.o
 .comment       0x0000000000000000       0x25 build/py/scope.o
 .comment       0x0000000000000000       0x25 build/py/compile.o
 .comment       0x0000000000000000       0x25 build/py/emitcommon.o
 .comment       0x0000000000000000       0x25 build/py/emitpass1.o
 .comment       0x0000000000000000       0x25 build/py/emitcpy.o
 .comment       0x0000000000000000       0x25 build/py/emitbc.o
 .comment       0x0000000000000000       0x25 build/py/asmx64.o
 .comment       0x0000000000000000       0x25 build/py/emitnx64.o
 .comment       0x0000000000000000       0x25 build/py/asmx86.o
 .comment       0x0000000000000000       0x25 build/py/emitnx86.o
 .comment       0x0000000000000000       0x25 build/py/asmthumb.o
 .comment       0x0000000000000000       0x25 build/py/emitnthumb.o
 .comment       0x0000000000000000       0x25 build/py/emitinlinethumb.o
 .comment       0x0000000000000000       0x25 build/py/asmarm.o
 .comment       0x0000000000000000       0x25 build/py/emitnarm.o
 .comment       0x0000000000000000       0x25 build/py/formatfloat.o
 .comment       0x0000000000000000       0x25 build/py/parsenumbase.o
 .comment       0x0000000000000000       0x25 build/py/parsenum.o
 .comment       0x0000000000000000       0x25 build/py/emitglue.o
 .comment       0x0000000000000000       0x25 build/py/runtime.o
 .comment       0x0000000000000000       0x25 build/py/nativeglue.o
 .comment       0x0000000000000000       0x25 build/py/stackctrl.o
 .comment       0x0000000000000000       0x25 build/py/argcheck.o
 .comment       0x0000000000000000       0x25 build/py/warning.o
 .comment       0x0000000000000000       0x25 build/py/map.o
 .comment       0x0000000000000000       0x25 build/py/obj.o
 .comment       0x0000000000000000       0x25 build/py/objarray.o
 .comment       0x0000000000000000       0x25 build/py/objbool.o
 .comment       0x0000000000000000       0x25 build/py/objboundmeth.o
 .comment       0x0000000000000000       0x25 build/py/objcell.o
 .comment       0x0000000000000000       0x25 build/py/objclosure.o
 .comment       0x0000000000000000       0x25 build/py/objcomplex.o
 .comment       0x0000000000000000       0x25 build/py/objdict.o
 .comment       0x0000000000000000       0x25 build/py/objenumerate.o
 .comment       0x0000000000000000       0x25 build/py/objexcept.o
 .comment       0x0000000000000000       0x25 build/py/objfilter.o
 .comment       0x0000000000000000       0x25 build/py/objfloat.o
 .comment       0x0000000000000000       0x25 build/py/objfun.o
 .comment       0x0000000000000000       0x25 build/py/objgenerator.o
 .comment       0x0000000000000000       0x25 build/py/objgetitemiter.o
 .comment       0x0000000000000000       0x25 build/py/objint.o
 .comment       0x0000000000000000       0x25 build/py/objint_longlong.o
 .comment       0x0000000000000000       0x25 build/py/objint_mpz.o
 .comment       0x0000000000000000       0x25 build/py/objlist.o
 .comment       0x0000000000000000       0x25 build/py/objmap.o
 .comment       0x0000000000000000       0x25 build/py/objmodule.o
 .comment       0x0000000000000000       0x25 build/py/objobject.o
 .comment       0x0000000000000000       0x25 build/py/objproperty.o
 .comment       0x0000000000000000       0x25 build/py/objnone.o
 .comment       0x0000000000000000       0x25 build/py/objnamedtuple.o
 .comment       0x0000000000000000       0x25 build/py/objrange.o
 .comment       0x0000000000000000       0x25 build/py/objreversed.o
 .comment       0x0000000000000000       0x25 build/py/objset.o
 .comment       0x0000000000000000       0x25 build/py/objslice.o
 .comment       0x0000000000000000       0x25 build/py/objstr.o
 .comment       0x0000000000000000       0x25 build/py/objstrunicode.o
 .comment       0x0000000000000000       0x25 build/py/objstringio.o
 .comment       0x0000000000000000       0x25 build/py/objtuple.o
 .comment       0x0000000000000000       0x25 build/py/objtype.o
 .comment       0x0000000000000000       0x25 build/py/objzip.o
 .comment       0x0000000000000000       0x25 build/py/opmethods.o
 .comment       0x0000000000000000       0x25 build/py/sequence.o
 .comment       0x0000000000000000       0x25 build/py/stream.o
 .comment       0x0000000000000000       0x25 build/py/binary.o
 .comment       0x0000000000000000       0x25 build/py/builtinimport.o
 .comment       0x0000000000000000       0x25 build/py/builtinevex.o
 .comment       0x0000000000000000       0x25 build/py/modarray.o
 .comment       0x0000000000000000       0x25 build/py/modbuiltins.o
 .comment       0x0000000000000000       0x25 build/py/modcollections.o
 .comment       0x0000000000000000       0x25 build/py/modgc.o
 .comment       0x0000000000000000       0x25 build/py/modio.o
 .comment       0x0000000000000000       0x25 build/py/modmath.o
 .comment       0x0000000000000000       0x25 build/py/modcmath.o
 .comment       0x0000000000000000       0x25 build/py/modmicropython.o
 .comment       0x0000000000000000       0x25 build/py/modstruct.o
 .comment       0x0000000000000000       0x25 build/py/modsys.o
 .comment       0x0000000000000000       0x25 build/py/vm.o
 .comment       0x0000000000000000       0x25 build/py/bc.o
 .comment       0x0000000000000000       0x25 build/py/showbc.o
 .comment       0x0000000000000000       0x25 build/py/repl.o
 .comment       0x0000000000000000       0x25 build/py/smallint.o
 .comment       0x0000000000000000       0x25 build/py/pfenv.o
 .comment       0x0000000000000000       0x25 build/py/pfenv_printf.o
 .comment       0x0000000000000000       0x25 build/py/frozenmod.o
 .comment       0x0000000000000000       0x25 build/py/../extmod/moductypes.o
 .comment       0x0000000000000000       0x25 build/py/../extmod/modujson.o
 .comment       0x0000000000000000       0x25 build/py/../extmod/modure.o
 .comment       0x0000000000000000       0x25 build/py/../extmod/moduzlib.o
 .comment       0x0000000000000000       0x25 build/py/../extmod/moduheapq.o
 .comment       0x0000000000000000       0x25 build/py/../extmod/moduhashlib.o
 .comment       0x0000000000000000       0x25 build/py/../extmod/modubinascii.o
 .comment       0x0000000000000000       0x25 build/main.o
 .comment       0x0000000000000000       0x25 build/gccollect.o
 .comment       0x0000000000000000       0x25 build/input.o
 .comment       0x0000000000000000       0x25 build/file.o
 .comment       0x0000000000000000       0x25 build/modos.o
 .comment       0x0000000000000000       0x25 build/alloc.o
 .comment       0x0000000000000000       0x25 build/modtime.o
 .comment       0x0000000000000000       0x25 build/modtermios.o
 .comment       0x0000000000000000       0x25 build/modsocket.o
 .comment       0x0000000000000000       0x25 build/modffi.o
 .comment       0x0000000000000000       0x25 /usr/lib/x86_64-linux-gnu/libc_nonshared.a(elf-init.oS)
 .comment       0x0000000000000000       0x25 /usr/lib/x86_64-linux-gnu/libc_nonshared.a(stat.oS)
 .comment       0x0000000000000000       0x25 /usr/lib/gcc/x86_64-linux-gnu/4.8/crtend.o

.debug
 *(.debug)

.line
 *(.line)

.debug_srcinfo
 *(.debug_srcinfo)

.debug_sfnames
 *(.debug_sfnames)

.debug_aranges
 *(.debug_aranges)

.debug_pubnames
 *(.debug_pubnames)

.debug_info
 *(.debug_info .gnu.linkonce.wi.*)

.debug_abbrev
 *(.debug_abbrev)

.debug_line
 *(.debug_line .debug_line.* .debug_line_end)

.debug_frame
 *(.debug_frame)

.debug_str
 *(.debug_str)

.debug_loc
 *(.debug_loc)

.debug_macinfo
 *(.debug_macinfo)

.debug_weaknames
 *(.debug_weaknames)

.debug_funcnames
 *(.debug_funcnames)

.debug_typenames
 *(.debug_typenames)

.debug_varnames
 *(.debug_varnames)

.debug_pubtypes
 *(.debug_pubtypes)

.debug_ranges
 *(.debug_ranges)

.debug_macro
 *(.debug_macro)

.gnu.attributes
 *(.gnu.attributes)

/DISCARD/
 *(.note.GNU-stack)
 *(.gnu_debuglink)
 *(.gnu.lto_*)
OUTPUT(micropython elf64-x86-64)

Cross Reference Table

Symbol                                            File
DEBUG_printf                                      build/main.o
GLIBC_2.10                                        /lib/x86_64-linux-gnu/libc.so.6
GLIBC_2.11                                        /lib/x86_64-linux-gnu/libc.so.6
GLIBC_2.12                                        /lib/x86_64-linux-gnu/libc.so.6
GLIBC_2.13                                        /lib/x86_64-linux-gnu/libc.so.6
GLIBC_2.14                                        /lib/x86_64-linux-gnu/libc.so.6
GLIBC_2.15                                        /usr/lib/gcc/x86_64-linux-gnu/4.8/../../../x86_64-linux-gnu/libm.so
                                                  /lib/x86_64-linux-gnu/libc.so.6
GLIBC_2.16                                        /lib/x86_64-linux-gnu/libc.so.6
GLIBC_2.17                                        /lib/x86_64-linux-gnu/libc.so.6
GLIBC_2.18                                        /usr/lib/gcc/x86_64-linux-gnu/4.8/../../../x86_64-linux-gnu/libm.so
                                                  /lib/x86_64-linux-gnu/libc.so.6
GLIBC_2.2.5                                       /usr/lib/gcc/x86_64-linux-gnu/4.8/../../../x86_64-linux-gnu/libdl.so
                                                  /lib/x86_64-linux-gnu/ld-linux-x86-64.so.2
                                                  /lib/x86_64-linux-gnu/libc.so.6
                                                  /usr/lib/gcc/x86_64-linux-gnu/4.8/../../../x86_64-linux-gnu/libm.so
GLIBC_2.2.6                                       /lib/x86_64-linux-gnu/libc.so.6
GLIBC_2.3                                         /lib/x86_64-linux-gnu/libc.so.6
                                                  /lib/x86_64-linux-gnu/ld-linux-x86-64.so.2
GLIBC_2.3.2                                       /lib/x86_64-linux-gnu/libc.so.6
GLIBC_2.3.3                                       /usr/lib/gcc/x86_64-linux-gnu/4.8/../../../x86_64-linux-gnu/libdl.so
                                                  /lib/x86_64-linux-gnu/libc.so.6
GLIBC_2.3.4                                       /usr/lib/gcc/x86_64-linux-gnu/4.8/../../../x86_64-linux-gnu/libdl.so
                                                  /lib/x86_64-linux-gnu/libc.so.6
GLIBC_2.4                                         /usr/lib/gcc/x86_64-linux-gnu/4.8/../../../x86_64-linux-gnu/libm.so
                                                  /lib/x86_64-linux-gnu/ld-linux-x86-64.so.2
                                                  /lib/x86_64-linux-gnu/libc.so.6
GLIBC_2.5                                         /lib/x86_64-linux-gnu/libc.so.6
GLIBC_2.6                                         /lib/x86_64-linux-gnu/libc.so.6
GLIBC_2.7                                         /lib/x86_64-linux-gnu/libc.so.6
GLIBC_2.8                                         /lib/x86_64-linux-gnu/libc.so.6
GLIBC_2.9                                         /lib/x86_64-linux-gnu/libc.so.6
GLIBC_PRIVATE                                     /usr/lib/gcc/x86_64-linux-gnu/4.8/../../../x86_64-linux-gnu/libdl.so
                                                  /lib/x86_64-linux-gnu/ld-linux-x86-64.so.2
                                                  /lib/x86_64-linux-gnu/libc.so.6
_DYNAMIC                                          /usr/lib/gcc/x86_64-linux-gnu/4.8/../../../x86_64-linux-gnu/crt1.o
_Exit                                             /lib/x86_64-linux-gnu/libc.so.6
_Exit@@GLIBC_2.2.5                                /lib/x86_64-linux-gnu/libc.so.6
_Exit@GLIBC_2.2.5                                 /lib/x86_64-linux-gnu/libc.so.6
_GLOBAL_OFFSET_TABLE_                             /usr/lib/gcc/x86_64-linux-gnu/4.8/../../../x86_64-linux-gnu/crt1.o
                                                  /usr/lib/x86_64-linux-gnu/libc_nonshared.a(stat.oS)
                                                  /usr/lib/x86_64-linux-gnu/libc_nonshared.a(elf-init.oS)
                                                  /usr/lib/gcc/x86_64-linux-gnu/4.8/../../../x86_64-linux-gnu/crti.o
_IO_fprintf                                       /lib/x86_64-linux-gnu/libc.so.6
_IO_fprintf@@GLIBC_2.2.5                          /lib/x86_64-linux-gnu/libc.so.6
_IO_fprintf@GLIBC_2.2.5                           /lib/x86_64-linux-gnu/libc.so.6
_IO_stdin_used                                    /usr/lib/gcc/x86_64-linux-gnu/4.8/../../../x86_64-linux-gnu/crt1.o
_ITM_deregisterTMCloneTable                       //lib/x86_64-linux-gnu/libtinfo.so.5
                                                  /usr/lib/gcc/x86_64-linux-gnu/4.8/../../../x86_64-linux-gnu/libm.so
                                                  /usr/lib/gcc/x86_64-linux-gnu/4.8/../../../x86_64-linux-gnu/libffi.so
                                                  /usr/lib/gcc/x86_64-linux-gnu/4.8/../../../x86_64-linux-gnu/libdl.so
                                                  /usr/lib/gcc/x86_64-linux-gnu/4.8/../../../x86_64-linux-gnu/libreadline.so
                                                  /usr/lib/gcc/x86_64-linux-gnu/4.8/crtbegin.o
_ITM_registerTMCloneTable                         //lib/x86_64-linux-gnu/libtinfo.so.5
                                                  /usr/lib/gcc/x86_64-linux-gnu/4.8/../../../x86_64-linux-gnu/libm.so
                                                  /usr/lib/gcc/x86_64-linux-gnu/4.8/../../../x86_64-linux-gnu/libffi.so
                                                  /usr/lib/gcc/x86_64-linux-gnu/4.8/../../../x86_64-linux-gnu/libdl.so
                                                  /usr/lib/gcc/x86_64-linux-gnu/4.8/../../../x86_64-linux-gnu/libreadline.so
                                                  /usr/lib/gcc/x86_64-linux-gnu/4.8/crtbegin.o
_Jv_RegisterClasses                               //lib/x86_64-linux-gnu/libtinfo.so.5
                                                  /usr/lib/gcc/x86_64-linux-gnu/4.8/../../../x86_64-linux-gnu/libm.so
                                                  /usr/lib/gcc/x86_64-linux-gnu/4.8/../../../x86_64-linux-gnu/libffi.so
                                                  /usr/lib/gcc/x86_64-linux-gnu/4.8/../../../x86_64-linux-gnu/libdl.so
                                                  /usr/lib/gcc/x86_64-linux-gnu/4.8/../../../x86_64-linux-gnu/libreadline.so
                                                  /usr/lib/gcc/x86_64-linux-gnu/4.8/crtbegin.o
_LIB_VERSION                                      /usr/lib/gcc/x86_64-linux-gnu/4.8/../../../x86_64-linux-gnu/libm.so
_LIB_VERSION@@GLIBC_2.2.5                         /usr/lib/gcc/x86_64-linux-gnu/4.8/../../../x86_64-linux-gnu/libm.so
_LIB_VERSION@GLIBC_2.2.5                          /usr/lib/gcc/x86_64-linux-gnu/4.8/../../../x86_64-linux-gnu/libm.so
__TMC_END__                                       /usr/lib/gcc/x86_64-linux-gnu/4.8/crtend.o
                                                  /usr/lib/gcc/x86_64-linux-gnu/4.8/crtbegin.o
__after_morecore_hook                             /lib/x86_64-linux-gnu/libc.so.6
__after_morecore_hook@@GLIBC_2.2.5                /lib/x86_64-linux-gnu/libc.so.6
__after_morecore_hook@GLIBC_2.2.5                 /lib/x86_64-linux-gnu/libc.so.6
__assert_fail                                     /lib/x86_64-linux-gnu/libc.so.6
                                                  build/modffi.o
                                                  build/modsocket.o
                                                  build/modtermios.o
                                                  build/py/../extmod/modure.o
                                                  build/py/../extmod/moductypes.o
                                                  build/py/pfenv_printf.o
                                                  build/py/showbc.o
                                                  build/py/vm.o
                                                  build/py/modstruct.o
                                                  build/py/modbuiltins.o
                                                  build/py/builtinimport.o
                                                  build/py/binary.o
                                                  build/py/objzip.o
                                                  build/py/objtype.o
                                                  build/py/objtuple.o
                                                  build/py/objstr.o
                                                  build/py/objslice.o
                                                  build/py/objset.o
                                                  build/py/objreversed.o
                                                  build/py/objproperty.o
                                                  build/py/objmodule.o
                                                  build/py/objmap.o
                                                  build/py/objlist.o
                                                  build/py/objint_mpz.o
                                                  build/py/objgenerator.o
                                                  build/py/objfun.o
                                                  build/py/objfloat.o
                                                  build/py/objfilter.o
                                                  build/py/objexcept.o
                                                  build/py/objenumerate.o
                                                  build/py/objdict.o
                                                  build/py/objcomplex.o
                                                  build/py/objarray.o
                                                  build/py/obj.o
                                                  build/py/argcheck.o
                                                  build/py/runtime.o
                                                  build/py/emitglue.o
                                                  build/py/emitnx64.o
                                                  build/py/asmx64.o
                                                  build/py/emitbc.o
                                                  build/py/emitpass1.o
                                                  build/py/emitcommon.o
                                                  build/py/compile.o
                                                  build/py/scope.o
                                                  build/py/parse.o
                                                  build/py/lexer.o
                                                  build/py/mpz.o
                                                  build/py/vstr.o
                                                  build/py/qstr.o
                                                  build/py/gc.o
__assert_fail@@GLIBC_2.2.5                        /lib/x86_64-linux-gnu/libc.so.6
__assert_fail@GLIBC_2.2.5                         /lib/x86_64-linux-gnu/libc.so.6
                                                  /usr/lib/gcc/x86_64-linux-gnu/4.8/../../../x86_64-linux-gnu/libm.so
__bss_start                                       /usr/lib/gcc/x86_64-linux-gnu/4.8/../../../x86_64-linux-gnu/libreadline.so
                                                  //lib/x86_64-linux-gnu/libtinfo.so.5
                                                  /usr/lib/gcc/x86_64-linux-gnu/4.8/../../../x86_64-linux-gnu/libffi.so
__close                                           /lib/x86_64-linux-gnu/libc.so.6
__close@@GLIBC_2.2.5                              /lib/x86_64-linux-gnu/libc.so.6
__close@GLIBC_2.2.5                               /lib/x86_64-linux-gnu/libc.so.6
__connect                                         /lib/x86_64-linux-gnu/libc.so.6
__connect@@GLIBC_2.2.5                            /lib/x86_64-linux-gnu/libc.so.6
__connect@GLIBC_2.2.5                             /lib/x86_64-linux-gnu/libc.so.6
__ctype_b_loc                                     /lib/x86_64-linux-gnu/libc.so.6
                                                  build/main.o
__ctype_b_loc@@GLIBC_2.3                          /lib/x86_64-linux-gnu/libc.so.6
__ctype_b_loc@GLIBC_2.3                           /lib/x86_64-linux-gnu/libc.so.6
                                                  //lib/x86_64-linux-gnu/libtinfo.so.5
                                                  /usr/lib/gcc/x86_64-linux-gnu/4.8/../../../x86_64-linux-gnu/libreadline.so
__ctype_get_mb_cur_max                            /lib/x86_64-linux-gnu/libc.so.6
__ctype_get_mb_cur_max@@GLIBC_2.2.5               /lib/x86_64-linux-gnu/libc.so.6
__ctype_get_mb_cur_max@GLIBC_2.2.5                /lib/x86_64-linux-gnu/libc.so.6
                                                  /usr/lib/gcc/x86_64-linux-gnu/4.8/../../../x86_64-linux-gnu/libreadline.so
__data_start                                      /usr/lib/gcc/x86_64-linux-gnu/4.8/../../../x86_64-linux-gnu/crt1.o
__dso_handle                                      /usr/lib/gcc/x86_64-linux-gnu/4.8/crtbegin.o
__errno_location                                  /lib/x86_64-linux-gnu/libc.so.6
                                                  build/modffi.o
                                                  build/modsocket.o
                                                  build/modtermios.o
                                                  build/modos.o
                                                  build/file.o
                                                  build/main.o
__errno_location@@GLIBC_2.2.5                     /lib/x86_64-linux-gnu/libc.so.6
__errno_location@GLIBC_2.2.5                      /lib/x86_64-linux-gnu/libc.so.6
                                                  //lib/x86_64-linux-gnu/libtinfo.so.5
                                                  /usr/lib/gcc/x86_64-linux-gnu/4.8/../../../x86_64-linux-gnu/libm.so
                                                  /usr/lib/gcc/x86_64-linux-gnu/4.8/../../../x86_64-linux-gnu/libffi.so
                                                  /usr/lib/gcc/x86_64-linux-gnu/4.8/../../../x86_64-linux-gnu/libreadline.so
__fcntl                                           /lib/x86_64-linux-gnu/libc.so.6
__fcntl@@GLIBC_2.2.5                              /lib/x86_64-linux-gnu/libc.so.6
__fcntl@GLIBC_2.2.5                               /lib/x86_64-linux-gnu/libc.so.6
__finite                                          /usr/lib/gcc/x86_64-linux-gnu/4.8/../../../x86_64-linux-gnu/libm.so
                                                  build/py/modmath.o
__finite@@GLIBC_2.2.5                             /usr/lib/gcc/x86_64-linux-gnu/4.8/../../../x86_64-linux-gnu/libm.so
                                                  /lib/x86_64-linux-gnu/libc.so.6
__finite@GLIBC_2.2.5                              /usr/lib/gcc/x86_64-linux-gnu/4.8/../../../x86_64-linux-gnu/libm.so
__fpclassify                                      /usr/lib/gcc/x86_64-linux-gnu/4.8/../../../x86_64-linux-gnu/libm.so
                                                  build/py/objint_mpz.o
__fpclassify@@GLIBC_2.2.5                         /usr/lib/gcc/x86_64-linux-gnu/4.8/../../../x86_64-linux-gnu/libm.so
__fpclassify@GLIBC_2.2.5                          /usr/lib/gcc/x86_64-linux-gnu/4.8/../../../x86_64-linux-gnu/libm.so
__fprintf_chk                                     /lib/x86_64-linux-gnu/libc.so.6
                                                  build/main.o
__fprintf_chk@@GLIBC_2.3.4                        /lib/x86_64-linux-gnu/libc.so.6
__fprintf_chk@GLIBC_2.3.4                         /lib/x86_64-linux-gnu/libc.so.6
                                                  //lib/x86_64-linux-gnu/libtinfo.so.5
                                                  /usr/lib/gcc/x86_64-linux-gnu/4.8/../../../x86_64-linux-gnu/libreadline.so
__free_hook                                       /lib/x86_64-linux-gnu/libc.so.6
__free_hook@@GLIBC_2.2.5                          /lib/x86_64-linux-gnu/libc.so.6
__free_hook@GLIBC_2.2.5                           /lib/x86_64-linux-gnu/libc.so.6
__getdelim                                        /lib/x86_64-linux-gnu/libc.so.6
__getdelim@@GLIBC_2.2.5                           /lib/x86_64-linux-gnu/libc.so.6
__getdelim@GLIBC_2.2.5                            /lib/x86_64-linux-gnu/libc.so.6
                                                  /usr/lib/gcc/x86_64-linux-gnu/4.8/../../../x86_64-linux-gnu/libffi.so
__gmon_start__                                    //lib/x86_64-linux-gnu/libtinfo.so.5
                                                  /usr/lib/gcc/x86_64-linux-gnu/4.8/../../../x86_64-linux-gnu/libm.so
                                                  /usr/lib/gcc/x86_64-linux-gnu/4.8/../../../x86_64-linux-gnu/libffi.so
                                                  /usr/lib/gcc/x86_64-linux-gnu/4.8/../../../x86_64-linux-gnu/libdl.so
                                                  /usr/lib/gcc/x86_64-linux-gnu/4.8/../../../x86_64-linux-gnu/libreadline.so
                                                  /usr/lib/gcc/x86_64-linux-gnu/4.8/../../../x86_64-linux-gnu/crti.o
__init_array_end                                  /usr/lib/x86_64-linux-gnu/libc_nonshared.a(elf-init.oS)
__init_array_start                                /usr/lib/x86_64-linux-gnu/libc_nonshared.a(elf-init.oS)
__isascii_l                                       /lib/x86_64-linux-gnu/libc.so.6
__isascii_l@@GLIBC_2.2.5                          /lib/x86_64-linux-gnu/libc.so.6
__isascii_l@GLIBC_2.2.5                           /lib/x86_64-linux-gnu/libc.so.6
__isinf                                           /lib/x86_64-linux-gnu/libc.so.6
                                                  build/py/modmath.o
__isinf@@GLIBC_2.2.5                              /lib/x86_64-linux-gnu/libc.so.6
__isinf@GLIBC_2.2.5                               /lib/x86_64-linux-gnu/libc.so.6
__isnan                                           /lib/x86_64-linux-gnu/libc.so.6
                                                  build/py/modmath.o
__isnan@@GLIBC_2.2.5                              /lib/x86_64-linux-gnu/libc.so.6
__isnan@GLIBC_2.2.5                               /lib/x86_64-linux-gnu/libc.so.6
__libc_csu_fini                                   /usr/lib/x86_64-linux-gnu/libc_nonshared.a(elf-init.oS)
                                                  /usr/lib/gcc/x86_64-linux-gnu/4.8/../../../x86_64-linux-gnu/crt1.o
__libc_csu_init                                   /usr/lib/x86_64-linux-gnu/libc_nonshared.a(elf-init.oS)
                                                  /usr/lib/gcc/x86_64-linux-gnu/4.8/../../../x86_64-linux-gnu/crt1.o
__libc_secure_getenv                              /lib/x86_64-linux-gnu/libc.so.6
__libc_secure_getenv@@GLIBC_PRIVATE               /lib/x86_64-linux-gnu/libc.so.6
__libc_secure_getenv@GLIBC_PRIVATE                /lib/x86_64-linux-gnu/libc.so.6
__libc_start_main                                 /lib/x86_64-linux-gnu/libc.so.6
                                                  /usr/lib/gcc/x86_64-linux-gnu/4.8/../../../x86_64-linux-gnu/crt1.o
__libc_start_main@@GLIBC_2.2.5                    /lib/x86_64-linux-gnu/libc.so.6
__libc_start_main@GLIBC_2.2.5                     /lib/x86_64-linux-gnu/libc.so.6
__lseek                                           /lib/x86_64-linux-gnu/libc.so.6
__lseek@@GLIBC_2.2.5                              /lib/x86_64-linux-gnu/libc.so.6
__lseek@GLIBC_2.2.5                               /lib/x86_64-linux-gnu/libc.so.6
__malloc_hook                                     /lib/x86_64-linux-gnu/libc.so.6
__malloc_hook@@GLIBC_2.2.5                        /lib/x86_64-linux-gnu/libc.so.6
__malloc_hook@GLIBC_2.2.5                         /lib/x86_64-linux-gnu/libc.so.6
__malloc_initialize_hook                          /lib/x86_64-linux-gnu/libc.so.6
__malloc_initialize_hook@@GLIBC_2.2.5             /lib/x86_64-linux-gnu/libc.so.6
__malloc_initialize_hook@GLIBC_2.2.5              /lib/x86_64-linux-gnu/libc.so.6
__memalign_hook                                   /lib/x86_64-linux-gnu/libc.so.6
__memalign_hook@@GLIBC_2.2.5                      /lib/x86_64-linux-gnu/libc.so.6
__memalign_hook@GLIBC_2.2.5                       /lib/x86_64-linux-gnu/libc.so.6
__memcpy_chk                                      /lib/x86_64-linux-gnu/libc.so.6
                                                  build/main.o
                                                  build/py/objclosure.o
                                                  build/py/objboundmeth.o
__memcpy_chk@@GLIBC_2.3.4                         /lib/x86_64-linux-gnu/libc.so.6
__memcpy_chk@GLIBC_2.3.4                          /lib/x86_64-linux-gnu/libc.so.6
                                                  //lib/x86_64-linux-gnu/libtinfo.so.5
                                                  /usr/lib/gcc/x86_64-linux-gnu/4.8/../../../x86_64-linux-gnu/libreadline.so
__nanosleep                                       /lib/x86_64-linux-gnu/libc.so.6
__nanosleep@@GLIBC_2.2.6                          /lib/x86_64-linux-gnu/libc.so.6
__nanosleep@GLIBC_2.2.6                           /lib/x86_64-linux-gnu/libc.so.6
__open                                            /lib/x86_64-linux-gnu/libc.so.6
__open64                                          /lib/x86_64-linux-gnu/libc.so.6
__open64@@GLIBC_2.2.5                             /lib/x86_64-linux-gnu/libc.so.6
__open64@GLIBC_2.2.5                              /lib/x86_64-linux-gnu/libc.so.6
__open@@GLIBC_2.2.5                               /lib/x86_64-linux-gnu/libc.so.6
__open@GLIBC_2.2.5                                /lib/x86_64-linux-gnu/libc.so.6
__poll                                            /lib/x86_64-linux-gnu/libc.so.6
__poll@@GLIBC_2.2.5                               /lib/x86_64-linux-gnu/libc.so.6
__poll@GLIBC_2.2.5                                /lib/x86_64-linux-gnu/libc.so.6
__pread64                                         /lib/x86_64-linux-gnu/libc.so.6
__pread64@@GLIBC_2.2.5                            /lib/x86_64-linux-gnu/libc.so.6
__pread64@GLIBC_2.2.5                             /lib/x86_64-linux-gnu/libc.so.6
__printf_chk                                      /lib/x86_64-linux-gnu/libc.so.6
                                                  build/main.o
                                                  build/py/../extmod/modure.o
                                                  build/py/showbc.o
                                                  build/py/modmicropython.o
                                                  build/py/warning.o
                                                  build/py/emitnx64.o
                                                  build/py/emitbc.o
                                                  build/py/compile.o
                                                  build/py/parse.o
                                                  build/py/lexer.o
                                                  build/py/qstr.o
                                                  build/py/gc.o
__printf_chk@@GLIBC_2.3.4                         /lib/x86_64-linux-gnu/libc.so.6
__printf_chk@GLIBC_2.3.4                          /lib/x86_64-linux-gnu/libc.so.6
                                                  /usr/lib/gcc/x86_64-linux-gnu/4.8/../../../x86_64-linux-gnu/libreadline.so
__pthread_getspecific                             /usr/lib/gcc/x86_64-linux-gnu/4.8/../../../x86_64-linux-gnu/libdl.so
__pthread_key_create                              /usr/lib/gcc/x86_64-linux-gnu/4.8/../../../x86_64-linux-gnu/libdl.so
__pthread_once                                    /usr/lib/gcc/x86_64-linux-gnu/4.8/../../../x86_64-linux-gnu/libdl.so
__pthread_setspecific                             /usr/lib/gcc/x86_64-linux-gnu/4.8/../../../x86_64-linux-gnu/libdl.so
__pwrite64                                        /lib/x86_64-linux-gnu/libc.so.6
__pwrite64@@GLIBC_2.2.5                           /lib/x86_64-linux-gnu/libc.so.6
__pwrite64@GLIBC_2.2.5                            /lib/x86_64-linux-gnu/libc.so.6
__read                                            /lib/x86_64-linux-gnu/libc.so.6
__read@@GLIBC_2.2.5                               /lib/x86_64-linux-gnu/libc.so.6
__read@GLIBC_2.2.5                                /lib/x86_64-linux-gnu/libc.so.6
__realloc_hook                                    /lib/x86_64-linux-gnu/libc.so.6
__realloc_hook@@GLIBC_2.2.5                       /lib/x86_64-linux-gnu/libc.so.6
__realloc_hook@GLIBC_2.2.5                        /lib/x86_64-linux-gnu/libc.so.6
__realpath_chk                                    /lib/x86_64-linux-gnu/libc.so.6
                                                  build/main.o
__realpath_chk@@GLIBC_2.4                         /lib/x86_64-linux-gnu/libc.so.6
__realpath_chk@GLIBC_2.4                          /lib/x86_64-linux-gnu/libc.so.6
__secure_getenv@GLIBC_2.2.5                       /lib/x86_64-linux-gnu/libc.so.6
__send                                            /lib/x86_64-linux-gnu/libc.so.6
__send@@GLIBC_2.2.5                               /lib/x86_64-linux-gnu/libc.so.6
__send@GLIBC_2.2.5                                /lib/x86_64-linux-gnu/libc.so.6
__sigaction                                       /lib/x86_64-linux-gnu/libc.so.6
__sigaction@@GLIBC_2.2.5                          /lib/x86_64-linux-gnu/libc.so.6
__sigaction@GLIBC_2.2.5                           /lib/x86_64-linux-gnu/libc.so.6
__snprintf_chk                                    /lib/x86_64-linux-gnu/libc.so.6
                                                  build/py/pfenv.o
__snprintf_chk@@GLIBC_2.3.4                       /lib/x86_64-linux-gnu/libc.so.6
__snprintf_chk@GLIBC_2.3.4                        /lib/x86_64-linux-gnu/libc.so.6
                                                  /usr/lib/gcc/x86_64-linux-gnu/4.8/../../../x86_64-linux-gnu/libreadline.so
__sprintf_chk                                     /lib/x86_64-linux-gnu/libc.so.6
                                                  build/modsocket.o
                                                  build/py/objfloat.o
                                                  build/py/objcomplex.o
__sprintf_chk@@GLIBC_2.3.4                        /lib/x86_64-linux-gnu/libc.so.6
__sprintf_chk@GLIBC_2.3.4                         /lib/x86_64-linux-gnu/libc.so.6
                                                  //lib/x86_64-linux-gnu/libtinfo.so.5
                                                  /usr/lib/gcc/x86_64-linux-gnu/4.8/../../../x86_64-linux-gnu/libreadline.so
__stack_chk_fail                                  /lib/x86_64-linux-gnu/libc.so.6
                                                  build/modsocket.o
                                                  build/modtermios.o
                                                  build/main.o
                                                  build/py/../extmod/moduzlib.o
                                                  build/py/../extmod/modure.o
                                                  build/py/pfenv.o
                                                  build/py/modbuiltins.o
                                                  build/py/builtinimport.o
                                                  build/py/objnamedtuple.o
                                                  build/py/objint.o
                                                  build/py/objfun.o
                                                  build/py/objfloat.o
                                                  build/py/objcomplex.o
                                                  build/py/runtime.o
                                                  build/py/emitbc.o
__stack_chk_fail@@GLIBC_2.4                       /lib/x86_64-linux-gnu/libc.so.6
__stack_chk_fail@GLIBC_2.4                        /lib/x86_64-linux-gnu/libc.so.6
                                                  //lib/x86_64-linux-gnu/libtinfo.so.5
                                                  /usr/lib/gcc/x86_64-linux-gnu/4.8/../../../x86_64-linux-gnu/libffi.so
                                                  /usr/lib/gcc/x86_64-linux-gnu/4.8/../../../x86_64-linux-gnu/libreadline.so
__stat                                            /usr/lib/x86_64-linux-gnu/libc_nonshared.a(stat.oS)
__strtoll_l                                       /lib/x86_64-linux-gnu/libc.so.6
__strtoll_l@@GLIBC_2.2.5                          /lib/x86_64-linux-gnu/libc.so.6
__strtoll_l@GLIBC_2.2.5                           /lib/x86_64-linux-gnu/libc.so.6
__strtoull_l                                      /lib/x86_64-linux-gnu/libc.so.6
__strtoull_l@@GLIBC_2.2.5                         /lib/x86_64-linux-gnu/libc.so.6
__strtoull_l@GLIBC_2.2.5                          /lib/x86_64-linux-gnu/libc.so.6
__toascii_l                                       /lib/x86_64-linux-gnu/libc.so.6
__toascii_l@@GLIBC_2.2.5                          /lib/x86_64-linux-gnu/libc.so.6
__toascii_l@GLIBC_2.2.5                           /lib/x86_64-linux-gnu/libc.so.6
__vfprintf_chk                                    /lib/x86_64-linux-gnu/libc.so.6
                                                  build/main.o
__vfprintf_chk@@GLIBC_2.3.4                       /lib/x86_64-linux-gnu/libc.so.6
__vfprintf_chk@GLIBC_2.3.4                        /lib/x86_64-linux-gnu/libc.so.6
                                                  //lib/x86_64-linux-gnu/libtinfo.so.5
                                                  /usr/lib/gcc/x86_64-linux-gnu/4.8/../../../x86_64-linux-gnu/libreadline.so
__vprintf_chk                                     /lib/x86_64-linux-gnu/libc.so.6
                                                  build/py/pfenv_printf.o
                                                  build/py/warning.o
__vprintf_chk@@GLIBC_2.3.4                        /lib/x86_64-linux-gnu/libc.so.6
__vprintf_chk@GLIBC_2.3.4                         /lib/x86_64-linux-gnu/libc.so.6
__vsnprintf                                       /lib/x86_64-linux-gnu/libc.so.6
__vsnprintf@@GLIBC_2.2.5                          /lib/x86_64-linux-gnu/libc.so.6
__vsnprintf@GLIBC_2.2.5                           /lib/x86_64-linux-gnu/libc.so.6
__vsnprintf_chk                                   /lib/x86_64-linux-gnu/libc.so.6
                                                  build/py/objexcept.o
                                                  build/py/vstr.o
__vsnprintf_chk@@GLIBC_2.3.4                      /lib/x86_64-linux-gnu/libc.so.6
__vsnprintf_chk@GLIBC_2.3.4                       /lib/x86_64-linux-gnu/libc.so.6
                                                  /usr/lib/gcc/x86_64-linux-gnu/4.8/../../../x86_64-linux-gnu/libreadline.so
__vsscanf                                         /lib/x86_64-linux-gnu/libc.so.6
__vsscanf@@GLIBC_2.2.5                            /lib/x86_64-linux-gnu/libc.so.6
__vsscanf@GLIBC_2.2.5                             /lib/x86_64-linux-gnu/libc.so.6
__wait                                            /lib/x86_64-linux-gnu/libc.so.6
__wait@@GLIBC_2.2.5                               /lib/x86_64-linux-gnu/libc.so.6
__wait@GLIBC_2.2.5                                /lib/x86_64-linux-gnu/libc.so.6
__waitpid                                         /lib/x86_64-linux-gnu/libc.so.6
__waitpid@@GLIBC_2.2.5                            /lib/x86_64-linux-gnu/libc.so.6
__waitpid@GLIBC_2.2.5                             /lib/x86_64-linux-gnu/libc.so.6
__wcstoll_l                                       /lib/x86_64-linux-gnu/libc.so.6
__wcstoll_l@@GLIBC_2.2.5                          /lib/x86_64-linux-gnu/libc.so.6
__wcstoll_l@GLIBC_2.2.5                           /lib/x86_64-linux-gnu/libc.so.6
__wcstoull_l                                      /lib/x86_64-linux-gnu/libc.so.6
__wcstoull_l@@GLIBC_2.2.5                         /lib/x86_64-linux-gnu/libc.so.6
__wcstoull_l@GLIBC_2.2.5                          /lib/x86_64-linux-gnu/libc.so.6
__write                                           /lib/x86_64-linux-gnu/libc.so.6
__write@@GLIBC_2.2.5                              /lib/x86_64-linux-gnu/libc.so.6
__write@GLIBC_2.2.5                               /lib/x86_64-linux-gnu/libc.so.6
__xpg_sigpause                                    /lib/x86_64-linux-gnu/libc.so.6
__xpg_sigpause@@GLIBC_2.2.5                       /lib/x86_64-linux-gnu/libc.so.6
__xpg_sigpause@GLIBC_2.2.5                        /lib/x86_64-linux-gnu/libc.so.6
__xstat                                           /lib/x86_64-linux-gnu/libc.so.6
                                                  /usr/lib/x86_64-linux-gnu/libc_nonshared.a(stat.oS)
__xstat@@GLIBC_2.2.5                              /lib/x86_64-linux-gnu/libc.so.6
__xstat@GLIBC_2.2.5                               /lib/x86_64-linux-gnu/libc.so.6
                                                  //lib/x86_64-linux-gnu/libtinfo.so.5
                                                  /usr/lib/gcc/x86_64-linux-gnu/4.8/../../../x86_64-linux-gnu/libreadline.so
_compilecode                                      build/py/../extmod/modure.o
_dl_starting_up                                   /lib/x86_64-linux-gnu/libc.so.6
_edata                                            /usr/lib/gcc/x86_64-linux-gnu/4.8/../../../x86_64-linux-gnu/libreadline.so
                                                  //lib/x86_64-linux-gnu/libtinfo.so.5
                                                  /usr/lib/gcc/x86_64-linux-gnu/4.8/../../../x86_64-linux-gnu/libffi.so
_end                                              /usr/lib/gcc/x86_64-linux-gnu/4.8/../../../x86_64-linux-gnu/libreadline.so
                                                  //lib/x86_64-linux-gnu/libtinfo.so.5
                                                  /usr/lib/gcc/x86_64-linux-gnu/4.8/../../../x86_64-linux-gnu/libffi.so
_environ                                          /lib/x86_64-linux-gnu/libc.so.6
_environ@@GLIBC_2.2.5                             /lib/x86_64-linux-gnu/libc.so.6
_environ@GLIBC_2.2.5                              /lib/x86_64-linux-gnu/libc.so.6
                                                  /usr/lib/gcc/x86_64-linux-gnu/4.8/../../../x86_64-linux-gnu/libdl.so
_fini                                             /usr/lib/gcc/x86_64-linux-gnu/4.8/../../../x86_64-linux-gnu/crti.o
                                                  //lib/x86_64-linux-gnu/libtinfo.so.5
                                                  /usr/lib/gcc/x86_64-linux-gnu/4.8/../../../x86_64-linux-gnu/libffi.so
                                                  /usr/lib/gcc/x86_64-linux-gnu/4.8/../../../x86_64-linux-gnu/libreadline.so
_flushlbf                                         /lib/x86_64-linux-gnu/libc.so.6
_flushlbf@@GLIBC_2.2.5                            /lib/x86_64-linux-gnu/libc.so.6
_flushlbf@GLIBC_2.2.5                             /lib/x86_64-linux-gnu/libc.so.6
_init                                             /usr/lib/gcc/x86_64-linux-gnu/4.8/../../../x86_64-linux-gnu/crti.o
                                                  //lib/x86_64-linux-gnu/libtinfo.so.5
                                                  /usr/lib/x86_64-linux-gnu/libc_nonshared.a(elf-init.oS)
                                                  /usr/lib/gcc/x86_64-linux-gnu/4.8/../../../x86_64-linux-gnu/libffi.so
                                                  /usr/lib/gcc/x86_64-linux-gnu/4.8/../../../x86_64-linux-gnu/libreadline.so
_longjmp                                          /lib/x86_64-linux-gnu/libc.so.6
_longjmp@@GLIBC_2.2.5                             /lib/x86_64-linux-gnu/libc.so.6
_longjmp@GLIBC_2.2.5                              /lib/x86_64-linux-gnu/libc.so.6
_re1_5_classmatch                                 build/py/../extmod/modure.o
_re1_5_namedclassmatch                            build/py/../extmod/modure.o
_start                                            /usr/lib/gcc/x86_64-linux-gnu/4.8/../../../x86_64-linux-gnu/crt1.o
accept                                            /lib/x86_64-linux-gnu/libc.so.6
                                                  build/modsocket.o
accept@@GLIBC_2.2.5                               /lib/x86_64-linux-gnu/libc.so.6
accept@GLIBC_2.2.5                                /lib/x86_64-linux-gnu/libc.so.6
access                                            /lib/x86_64-linux-gnu/libc.so.6
access@@GLIBC_2.2.5                               /lib/x86_64-linux-gnu/libc.so.6
access@GLIBC_2.2.5                                /lib/x86_64-linux-gnu/libc.so.6
                                                  //lib/x86_64-linux-gnu/libtinfo.so.5
                                                  /usr/lib/gcc/x86_64-linux-gnu/4.8/../../../x86_64-linux-gnu/libffi.so
                                                  /usr/lib/gcc/x86_64-linux-gnu/4.8/../../../x86_64-linux-gnu/libreadline.so
acos                                              /usr/lib/gcc/x86_64-linux-gnu/4.8/../../../x86_64-linux-gnu/libm.so
                                                  build/py/modmath.o
acos@@GLIBC_2.2.5                                 /usr/lib/gcc/x86_64-linux-gnu/4.8/../../../x86_64-linux-gnu/libm.so
acos@GLIBC_2.2.5                                  /usr/lib/gcc/x86_64-linux-gnu/4.8/../../../x86_64-linux-gnu/libm.so
acosf                                             /usr/lib/gcc/x86_64-linux-gnu/4.8/../../../x86_64-linux-gnu/libm.so
acosf@@GLIBC_2.2.5                                /usr/lib/gcc/x86_64-linux-gnu/4.8/../../../x86_64-linux-gnu/libm.so
acosf@GLIBC_2.2.5                                 /usr/lib/gcc/x86_64-linux-gnu/4.8/../../../x86_64-linux-gnu/libm.so
acosh                                             /usr/lib/gcc/x86_64-linux-gnu/4.8/../../../x86_64-linux-gnu/libm.so
                                                  build/py/modmath.o
acosh@@GLIBC_2.2.5                                /usr/lib/gcc/x86_64-linux-gnu/4.8/../../../x86_64-linux-gnu/libm.so
acosh@GLIBC_2.2.5                                 /usr/lib/gcc/x86_64-linux-gnu/4.8/../../../x86_64-linux-gnu/libm.so
acoshf                                            /usr/lib/gcc/x86_64-linux-gnu/4.8/../../../x86_64-linux-gnu/libm.so
acoshf@@GLIBC_2.2.5                               /usr/lib/gcc/x86_64-linux-gnu/4.8/../../../x86_64-linux-gnu/libm.so
acoshf@GLIBC_2.2.5                                /usr/lib/gcc/x86_64-linux-gnu/4.8/../../../x86_64-linux-gnu/libm.so
acoshl                                            /usr/lib/gcc/x86_64-linux-gnu/4.8/../../../x86_64-linux-gnu/libm.so
acoshl@@GLIBC_2.2.5                               /usr/lib/gcc/x86_64-linux-gnu/4.8/../../../x86_64-linux-gnu/libm.so
acoshl@GLIBC_2.2.5                                /usr/lib/gcc/x86_64-linux-gnu/4.8/../../../x86_64-linux-gnu/libm.so
acosl                                             /usr/lib/gcc/x86_64-linux-gnu/4.8/../../../x86_64-linux-gnu/libm.so
acosl@@GLIBC_2.2.5                                /usr/lib/gcc/x86_64-linux-gnu/4.8/../../../x86_64-linux-gnu/libm.so
acosl@GLIBC_2.2.5                                 /usr/lib/gcc/x86_64-linux-gnu/4.8/../../../x86_64-linux-gnu/libm.so
add_history                                       /usr/lib/gcc/x86_64-linux-gnu/4.8/../../../x86_64-linux-gnu/libreadline.so
                                                  build/input.o
addmntent                                         /lib/x86_64-linux-gnu/libc.so.6
addmntent@@GLIBC_2.2.5                            /lib/x86_64-linux-gnu/libc.so.6
addmntent@GLIBC_2.2.5                             /lib/x86_64-linux-gnu/libc.so.6
adjtime                                           /lib/x86_64-linux-gnu/libc.so.6
adjtime@@GLIBC_2.2.5                              /lib/x86_64-linux-gnu/libc.so.6
adjtime@GLIBC_2.2.5                               /lib/x86_64-linux-gnu/libc.so.6
adjtimex                                          /lib/x86_64-linux-gnu/libc.so.6
adjtimex@@GLIBC_2.2.5                             /lib/x86_64-linux-gnu/libc.so.6
adjtimex@GLIBC_2.2.5                              /lib/x86_64-linux-gnu/libc.so.6
advance                                           /lib/x86_64-linux-gnu/libc.so.6
advance@@GLIBC_2.2.5                              /lib/x86_64-linux-gnu/libc.so.6
advance@GLIBC_2.2.5                               /lib/x86_64-linux-gnu/libc.so.6
aligned_alloc                                     /lib/x86_64-linux-gnu/libc.so.6
aligned_alloc@@GLIBC_2.16                         /lib/x86_64-linux-gnu/libc.so.6
aligned_alloc@GLIBC_2.16                          /lib/x86_64-linux-gnu/libc.so.6
alphasort64                                       /lib/x86_64-linux-gnu/libc.so.6
alphasort64@@GLIBC_2.2.5                          /lib/x86_64-linux-gnu/libc.so.6
alphasort64@GLIBC_2.2.5                           /lib/x86_64-linux-gnu/libc.so.6
arch_prctl                                        /lib/x86_64-linux-gnu/libc.so.6
arch_prctl@@GLIBC_2.2.5                           /lib/x86_64-linux-gnu/libc.so.6
arch_prctl@GLIBC_2.2.5                            /lib/x86_64-linux-gnu/libc.so.6
argp_error                                        /lib/x86_64-linux-gnu/libc.so.6
argp_error@@GLIBC_2.2.5                           /lib/x86_64-linux-gnu/libc.so.6
argp_error@GLIBC_2.2.5                            /lib/x86_64-linux-gnu/libc.so.6
argp_failure                                      /lib/x86_64-linux-gnu/libc.so.6
argp_failure@@GLIBC_2.2.5                         /lib/x86_64-linux-gnu/libc.so.6
argp_failure@GLIBC_2.2.5                          /lib/x86_64-linux-gnu/libc.so.6
argp_help                                         /lib/x86_64-linux-gnu/libc.so.6
argp_help@@GLIBC_2.2.5                            /lib/x86_64-linux-gnu/libc.so.6
argp_help@GLIBC_2.2.5                             /lib/x86_64-linux-gnu/libc.so.6
argp_parse                                        /lib/x86_64-linux-gnu/libc.so.6
argp_parse@@GLIBC_2.2.5                           /lib/x86_64-linux-gnu/libc.so.6
argp_parse@GLIBC_2.2.5                            /lib/x86_64-linux-gnu/libc.so.6
argp_state_help                                   /lib/x86_64-linux-gnu/libc.so.6
argp_state_help@@GLIBC_2.2.5                      /lib/x86_64-linux-gnu/libc.so.6
argp_state_help@GLIBC_2.2.5                       /lib/x86_64-linux-gnu/libc.so.6
argp_usage                                        /lib/x86_64-linux-gnu/libc.so.6
argp_usage@@GLIBC_2.2.5                           /lib/x86_64-linux-gnu/libc.so.6
argp_usage@GLIBC_2.2.5                            /lib/x86_64-linux-gnu/libc.so.6
argz_add                                          /lib/x86_64-linux-gnu/libc.so.6
argz_add@@GLIBC_2.2.5                             /lib/x86_64-linux-gnu/libc.so.6
argz_add@GLIBC_2.2.5                              /lib/x86_64-linux-gnu/libc.so.6
argz_add_sep                                      /lib/x86_64-linux-gnu/libc.so.6
argz_add_sep@@GLIBC_2.2.5                         /lib/x86_64-linux-gnu/libc.so.6
argz_add_sep@GLIBC_2.2.5                          /lib/x86_64-linux-gnu/libc.so.6
argz_append                                       /lib/x86_64-linux-gnu/libc.so.6
argz_append@@GLIBC_2.2.5                          /lib/x86_64-linux-gnu/libc.so.6
argz_append@GLIBC_2.2.5                           /lib/x86_64-linux-gnu/libc.so.6
argz_count                                        /lib/x86_64-linux-gnu/libc.so.6
argz_count@@GLIBC_2.2.5                           /lib/x86_64-linux-gnu/libc.so.6
argz_count@GLIBC_2.2.5                            /lib/x86_64-linux-gnu/libc.so.6
argz_create                                       /lib/x86_64-linux-gnu/libc.so.6
argz_create@@GLIBC_2.2.5                          /lib/x86_64-linux-gnu/libc.so.6
argz_create@GLIBC_2.2.5                           /lib/x86_64-linux-gnu/libc.so.6
argz_create_sep                                   /lib/x86_64-linux-gnu/libc.so.6
argz_create_sep@@GLIBC_2.2.5                      /lib/x86_64-linux-gnu/libc.so.6
argz_create_sep@GLIBC_2.2.5                       /lib/x86_64-linux-gnu/libc.so.6
argz_extract                                      /lib/x86_64-linux-gnu/libc.so.6
argz_extract@@GLIBC_2.2.5                         /lib/x86_64-linux-gnu/libc.so.6
argz_extract@GLIBC_2.2.5                          /lib/x86_64-linux-gnu/libc.so.6
argz_insert                                       /lib/x86_64-linux-gnu/libc.so.6
argz_insert@@GLIBC_2.2.5                          /lib/x86_64-linux-gnu/libc.so.6
argz_insert@GLIBC_2.2.5                           /lib/x86_64-linux-gnu/libc.so.6
argz_next                                         /lib/x86_64-linux-gnu/libc.so.6
argz_next@@GLIBC_2.2.5                            /lib/x86_64-linux-gnu/libc.so.6
argz_next@GLIBC_2.2.5                             /lib/x86_64-linux-gnu/libc.so.6
argz_replace                                      /lib/x86_64-linux-gnu/libc.so.6
argz_replace@@GLIBC_2.2.5                         /lib/x86_64-linux-gnu/libc.so.6
argz_replace@GLIBC_2.2.5                          /lib/x86_64-linux-gnu/libc.so.6
argz_stringify                                    /lib/x86_64-linux-gnu/libc.so.6
argz_stringify@@GLIBC_2.2.5                       /lib/x86_64-linux-gnu/libc.so.6
argz_stringify@GLIBC_2.2.5                        /lib/x86_64-linux-gnu/libc.so.6
asctime_r                                         /lib/x86_64-linux-gnu/libc.so.6
asctime_r@@GLIBC_2.2.5                            /lib/x86_64-linux-gnu/libc.so.6
asctime_r@GLIBC_2.2.5                             /lib/x86_64-linux-gnu/libc.so.6
asin                                              /usr/lib/gcc/x86_64-linux-gnu/4.8/../../../x86_64-linux-gnu/libm.so
                                                  build/py/modmath.o
asin@@GLIBC_2.2.5                                 /usr/lib/gcc/x86_64-linux-gnu/4.8/../../../x86_64-linux-gnu/libm.so
asin@GLIBC_2.2.5                                  /usr/lib/gcc/x86_64-linux-gnu/4.8/../../../x86_64-linux-gnu/libm.so
asinf                                             /usr/lib/gcc/x86_64-linux-gnu/4.8/../../../x86_64-linux-gnu/libm.so
asinf@@GLIBC_2.2.5                                /usr/lib/gcc/x86_64-linux-gnu/4.8/../../../x86_64-linux-gnu/libm.so
asinf@GLIBC_2.2.5                                 /usr/lib/gcc/x86_64-linux-gnu/4.8/../../../x86_64-linux-gnu/libm.so
asinh                                             /usr/lib/gcc/x86_64-linux-gnu/4.8/../../../x86_64-linux-gnu/libm.so
                                                  build/py/modmath.o
asinh@@GLIBC_2.2.5                                /usr/lib/gcc/x86_64-linux-gnu/4.8/../../../x86_64-linux-gnu/libm.so
asinh@GLIBC_2.2.5                                 /usr/lib/gcc/x86_64-linux-gnu/4.8/../../../x86_64-linux-gnu/libm.so
asinhf                                            /usr/lib/gcc/x86_64-linux-gnu/4.8/../../../x86_64-linux-gnu/libm.so
asinhf@@GLIBC_2.2.5                               /usr/lib/gcc/x86_64-linux-gnu/4.8/../../../x86_64-linux-gnu/libm.so
asinhf@GLIBC_2.2.5                                /usr/lib/gcc/x86_64-linux-gnu/4.8/../../../x86_64-linux-gnu/libm.so
asinhl                                            /usr/lib/gcc/x86_64-linux-gnu/4.8/../../../x86_64-linux-gnu/libm.so
asinhl@@GLIBC_2.2.5                               /usr/lib/gcc/x86_64-linux-gnu/4.8/../../../x86_64-linux-gnu/libm.so
asinhl@GLIBC_2.2.5                                /usr/lib/gcc/x86_64-linux-gnu/4.8/../../../x86_64-linux-gnu/libm.so
asinl                                             /usr/lib/gcc/x86_64-linux-gnu/4.8/../../../x86_64-linux-gnu/libm.so
asinl@@GLIBC_2.2.5                                /usr/lib/gcc/x86_64-linux-gnu/4.8/../../../x86_64-linux-gnu/libm.so
asinl@GLIBC_2.2.5                                 /usr/lib/gcc/x86_64-linux-gnu/4.8/../../../x86_64-linux-gnu/libm.so
asm_x64_add_r64_r64                               build/py/asmx64.o
                                                  build/py/emitnx64.o
asm_x64_and_r64_r64                               build/py/asmx64.o
                                                  build/py/emitnx64.o
asm_x64_call_ind                                  build/py/asmx64.o
                                                  build/py/emitnx64.o
asm_x64_cmp_r64_with_r64                          build/py/asmx64.o
                                                  build/py/emitnx64.o
asm_x64_end_pass                                  build/py/asmx64.o
                                                  build/py/emitnx64.o
asm_x64_entry                                     build/py/asmx64.o
                                                  build/py/emitnx64.o
asm_x64_exit                                      build/py/asmx64.o
                                                  build/py/emitnx64.o
asm_x64_free                                      build/py/asmx64.o
                                                  build/py/emitnx64.o
asm_x64_get_code                                  build/py/asmx64.o
                                                  build/py/emitnx64.o
asm_x64_get_code_size                             build/py/asmx64.o
                                                  build/py/emitnx64.o
asm_x64_jcc_label                                 build/py/asmx64.o
                                                  build/py/emitnx64.o
asm_x64_jmp_label                                 build/py/asmx64.o
                                                  build/py/emitnx64.o
asm_x64_label_assign                              build/py/asmx64.o
                                                  build/py/emitnx64.o
asm_x64_mov_i64_to_r64                            build/py/asmx64.o
asm_x64_mov_i64_to_r64_aligned                    build/py/asmx64.o
                                                  build/py/emitnx64.o
asm_x64_mov_i64_to_r64_optimised                  build/py/asmx64.o
                                                  build/py/emitnx64.o
asm_x64_mov_local_addr_to_r64                     build/py/asmx64.o
                                                  build/py/emitnx64.o
asm_x64_mov_local_to_r64                          build/py/asmx64.o
                                                  build/py/emitnx64.o
asm_x64_mov_mem16_to_r64zx                        build/py/asmx64.o
                                                  build/py/emitnx64.o
asm_x64_mov_mem64_to_r64                          build/py/asmx64.o
asm_x64_mov_mem8_to_r64zx                         build/py/asmx64.o
                                                  build/py/emitnx64.o
asm_x64_mov_r16_to_mem16                          build/py/asmx64.o
                                                  build/py/emitnx64.o
asm_x64_mov_r64_r64                               build/py/asmx64.o
                                                  build/py/emitnx64.o
asm_x64_mov_r64_to_local                          build/py/asmx64.o
                                                  build/py/emitnx64.o
asm_x64_mov_r64_to_mem64                          build/py/asmx64.o
asm_x64_mov_r8_to_mem8                            build/py/asmx64.o
                                                  build/py/emitnx64.o
asm_x64_new                                       build/py/asmx64.o
                                                  build/py/emitnx64.o
asm_x64_nop                                       build/py/asmx64.o
asm_x64_or_r64_r64                                build/py/asmx64.o
                                                  build/py/emitnx64.o
asm_x64_pop_r64                                   build/py/asmx64.o
asm_x64_push_r64                                  build/py/asmx64.o
asm_x64_sar_r64_cl                                build/py/asmx64.o
                                                  build/py/emitnx64.o
asm_x64_setcc_r8                                  build/py/asmx64.o
                                                  build/py/emitnx64.o
asm_x64_shl_r64_cl                                build/py/asmx64.o
                                                  build/py/emitnx64.o
asm_x64_start_pass                                build/py/asmx64.o
                                                  build/py/emitnx64.o
asm_x64_sub_r64_r64                               build/py/asmx64.o
                                                  build/py/emitnx64.o
asm_x64_test_r8_with_r8                           build/py/asmx64.o
                                                  build/py/emitnx64.o
asm_x64_xor_r64_r64                               build/py/asmx64.o
                                                  build/py/emitnx64.o
asprintf                                          /lib/x86_64-linux-gnu/libc.so.6
asprintf@@GLIBC_2.2.5                             /lib/x86_64-linux-gnu/libc.so.6
asprintf@GLIBC_2.2.5                              /lib/x86_64-linux-gnu/libc.so.6
atan                                              /usr/lib/gcc/x86_64-linux-gnu/4.8/../../../x86_64-linux-gnu/libm.so
                                                  build/py/modmath.o
atan2                                             /usr/lib/gcc/x86_64-linux-gnu/4.8/../../../x86_64-linux-gnu/libm.so
                                                  build/py/modcmath.o
                                                  build/py/modmath.o
                                                  build/py/objcomplex.o
atan2@@GLIBC_2.2.5                                /usr/lib/gcc/x86_64-linux-gnu/4.8/../../../x86_64-linux-gnu/libm.so
atan2@GLIBC_2.2.5                                 /usr/lib/gcc/x86_64-linux-gnu/4.8/../../../x86_64-linux-gnu/libm.so
atan2f                                            /usr/lib/gcc/x86_64-linux-gnu/4.8/../../../x86_64-linux-gnu/libm.so
atan2f@@GLIBC_2.2.5                               /usr/lib/gcc/x86_64-linux-gnu/4.8/../../../x86_64-linux-gnu/libm.so
atan2f@GLIBC_2.2.5                                /usr/lib/gcc/x86_64-linux-gnu/4.8/../../../x86_64-linux-gnu/libm.so
atan2l                                            /usr/lib/gcc/x86_64-linux-gnu/4.8/../../../x86_64-linux-gnu/libm.so
atan2l@@GLIBC_2.2.5                               /usr/lib/gcc/x86_64-linux-gnu/4.8/../../../x86_64-linux-gnu/libm.so
atan2l@GLIBC_2.2.5                                /usr/lib/gcc/x86_64-linux-gnu/4.8/../../../x86_64-linux-gnu/libm.so
atan@@GLIBC_2.2.5                                 /usr/lib/gcc/x86_64-linux-gnu/4.8/../../../x86_64-linux-gnu/libm.so
atan@GLIBC_2.2.5                                  /usr/lib/gcc/x86_64-linux-gnu/4.8/../../../x86_64-linux-gnu/libm.so
atanf                                             /usr/lib/gcc/x86_64-linux-gnu/4.8/../../../x86_64-linux-gnu/libm.so
atanf@@GLIBC_2.2.5                                /usr/lib/gcc/x86_64-linux-gnu/4.8/../../../x86_64-linux-gnu/libm.so
atanf@GLIBC_2.2.5                                 /usr/lib/gcc/x86_64-linux-gnu/4.8/../../../x86_64-linux-gnu/libm.so
atanh                                             /usr/lib/gcc/x86_64-linux-gnu/4.8/../../../x86_64-linux-gnu/libm.so
                                                  build/py/modmath.o
atanh@@GLIBC_2.2.5                                /usr/lib/gcc/x86_64-linux-gnu/4.8/../../../x86_64-linux-gnu/libm.so
atanh@GLIBC_2.2.5                                 /usr/lib/gcc/x86_64-linux-gnu/4.8/../../../x86_64-linux-gnu/libm.so
atanhf                                            /usr/lib/gcc/x86_64-linux-gnu/4.8/../../../x86_64-linux-gnu/libm.so
atanhf@@GLIBC_2.2.5                               /usr/lib/gcc/x86_64-linux-gnu/4.8/../../../x86_64-linux-gnu/libm.so
atanhf@GLIBC_2.2.5                                /usr/lib/gcc/x86_64-linux-gnu/4.8/../../../x86_64-linux-gnu/libm.so
atanhl                                            /usr/lib/gcc/x86_64-linux-gnu/4.8/../../../x86_64-linux-gnu/libm.so
atanhl@@GLIBC_2.2.5                               /usr/lib/gcc/x86_64-linux-gnu/4.8/../../../x86_64-linux-gnu/libm.so
atanhl@GLIBC_2.2.5                                /usr/lib/gcc/x86_64-linux-gnu/4.8/../../../x86_64-linux-gnu/libm.so
atanl                                             /usr/lib/gcc/x86_64-linux-gnu/4.8/../../../x86_64-linux-gnu/libm.so
atanl@@GLIBC_2.2.5                                /usr/lib/gcc/x86_64-linux-gnu/4.8/../../../x86_64-linux-gnu/libm.so
atanl@GLIBC_2.2.5                                 /usr/lib/gcc/x86_64-linux-gnu/4.8/../../../x86_64-linux-gnu/libm.so
backtrace                                         /lib/x86_64-linux-gnu/libc.so.6
backtrace@@GLIBC_2.2.5                            /lib/x86_64-linux-gnu/libc.so.6
backtrace@GLIBC_2.2.5                             /lib/x86_64-linux-gnu/libc.so.6
backtrace_symbols                                 /lib/x86_64-linux-gnu/libc.so.6
backtrace_symbols@@GLIBC_2.2.5                    /lib/x86_64-linux-gnu/libc.so.6
backtrace_symbols@GLIBC_2.2.5                     /lib/x86_64-linux-gnu/libc.so.6
backtrace_symbols_fd                              /lib/x86_64-linux-gnu/libc.so.6
backtrace_symbols_fd@@GLIBC_2.2.5                 /lib/x86_64-linux-gnu/libc.so.6
backtrace_symbols_fd@GLIBC_2.2.5                  /lib/x86_64-linux-gnu/libc.so.6
bcmp                                              /lib/x86_64-linux-gnu/libc.so.6
bcmp@@GLIBC_2.2.5                                 /lib/x86_64-linux-gnu/libc.so.6
bcmp@GLIBC_2.2.5                                  /lib/x86_64-linux-gnu/libc.so.6
bdflush                                           /lib/x86_64-linux-gnu/libc.so.6
bdflush@@GLIBC_2.2.5                              /lib/x86_64-linux-gnu/libc.so.6
bdflush@GLIBC_2.2.5                               /lib/x86_64-linux-gnu/libc.so.6
bind                                              /lib/x86_64-linux-gnu/libc.so.6
                                                  build/modsocket.o
bind@@GLIBC_2.2.5                                 /lib/x86_64-linux-gnu/libc.so.6
bind@GLIBC_2.2.5                                  /lib/x86_64-linux-gnu/libc.so.6
bind_textdomain_codeset                           /lib/x86_64-linux-gnu/libc.so.6
bind_textdomain_codeset@@GLIBC_2.2.5              /lib/x86_64-linux-gnu/libc.so.6
bind_textdomain_codeset@GLIBC_2.2.5               /lib/x86_64-linux-gnu/libc.so.6
bindtextdomain                                    /lib/x86_64-linux-gnu/libc.so.6
bindtextdomain@@GLIBC_2.2.5                       /lib/x86_64-linux-gnu/libc.so.6
bindtextdomain@GLIBC_2.2.5                        /lib/x86_64-linux-gnu/libc.so.6
bound_meth_type                                   build/py/objboundmeth.o
brk                                               /lib/x86_64-linux-gnu/libc.so.6
brk@@GLIBC_2.2.5                                  /lib/x86_64-linux-gnu/libc.so.6
brk@GLIBC_2.2.5                                   /lib/x86_64-linux-gnu/libc.so.6
bsd_signal                                        /lib/x86_64-linux-gnu/libc.so.6
bsd_signal@@GLIBC_2.2.5                           /lib/x86_64-linux-gnu/libc.so.6
bsd_signal@GLIBC_2.2.5                            /lib/x86_64-linux-gnu/libc.so.6
btowc                                             /lib/x86_64-linux-gnu/libc.so.6
btowc@@GLIBC_2.2.5                                /lib/x86_64-linux-gnu/libc.so.6
btowc@GLIBC_2.2.5                                 /lib/x86_64-linux-gnu/libc.so.6
bytes_decode_obj                                  build/py/objstr.o
bzero                                             /lib/x86_64-linux-gnu/libc.so.6
bzero@@GLIBC_2.2.5                                /lib/x86_64-linux-gnu/libc.so.6
bzero@GLIBC_2.2.5                                 /lib/x86_64-linux-gnu/libc.so.6
c32rtomb                                          /lib/x86_64-linux-gnu/libc.so.6
c32rtomb@@GLIBC_2.16                              /lib/x86_64-linux-gnu/libc.so.6
c32rtomb@GLIBC_2.16                               /lib/x86_64-linux-gnu/libc.so.6
cabs                                              /usr/lib/gcc/x86_64-linux-gnu/4.8/../../../x86_64-linux-gnu/libm.so
cabs@@GLIBC_2.2.5                                 /usr/lib/gcc/x86_64-linux-gnu/4.8/../../../x86_64-linux-gnu/libm.so
cabs@GLIBC_2.2.5                                  /usr/lib/gcc/x86_64-linux-gnu/4.8/../../../x86_64-linux-gnu/libm.so
cabsf                                             /usr/lib/gcc/x86_64-linux-gnu/4.8/../../../x86_64-linux-gnu/libm.so
cabsf@@GLIBC_2.2.5                                /usr/lib/gcc/x86_64-linux-gnu/4.8/../../../x86_64-linux-gnu/libm.so
cabsf@GLIBC_2.2.5                                 /usr/lib/gcc/x86_64-linux-gnu/4.8/../../../x86_64-linux-gnu/libm.so
cabsl                                             /usr/lib/gcc/x86_64-linux-gnu/4.8/../../../x86_64-linux-gnu/libm.so
cabsl@@GLIBC_2.2.5                                /usr/lib/gcc/x86_64-linux-gnu/4.8/../../../x86_64-linux-gnu/libm.so
cabsl@GLIBC_2.2.5                                 /usr/lib/gcc/x86_64-linux-gnu/4.8/../../../x86_64-linux-gnu/libm.so
cacos                                             /usr/lib/gcc/x86_64-linux-gnu/4.8/../../../x86_64-linux-gnu/libm.so
cacos@@GLIBC_2.2.5                                /usr/lib/gcc/x86_64-linux-gnu/4.8/../../../x86_64-linux-gnu/libm.so
cacos@GLIBC_2.2.5                                 /usr/lib/gcc/x86_64-linux-gnu/4.8/../../../x86_64-linux-gnu/libm.so
cacosf                                            /usr/lib/gcc/x86_64-linux-gnu/4.8/../../../x86_64-linux-gnu/libm.so
cacosf@@GLIBC_2.2.5                               /usr/lib/gcc/x86_64-linux-gnu/4.8/../../../x86_64-linux-gnu/libm.so
cacosf@GLIBC_2.2.5                                /usr/lib/gcc/x86_64-linux-gnu/4.8/../../../x86_64-linux-gnu/libm.so
cacosh                                            /usr/lib/gcc/x86_64-linux-gnu/4.8/../../../x86_64-linux-gnu/libm.so
cacosh@@GLIBC_2.2.5                               /usr/lib/gcc/x86_64-linux-gnu/4.8/../../../x86_64-linux-gnu/libm.so
cacosh@GLIBC_2.2.5                                /usr/lib/gcc/x86_64-linux-gnu/4.8/../../../x86_64-linux-gnu/libm.so
cacoshf                                           /usr/lib/gcc/x86_64-linux-gnu/4.8/../../../x86_64-linux-gnu/libm.so
cacoshf@@GLIBC_2.2.5                              /usr/lib/gcc/x86_64-linux-gnu/4.8/../../../x86_64-linux-gnu/libm.so
cacoshf@GLIBC_2.2.5                               /usr/lib/gcc/x86_64-linux-gnu/4.8/../../../x86_64-linux-gnu/libm.so
cacoshl                                           /usr/lib/gcc/x86_64-linux-gnu/4.8/../../../x86_64-linux-gnu/libm.so
cacoshl@@GLIBC_2.2.5                              /usr/lib/gcc/x86_64-linux-gnu/4.8/../../../x86_64-linux-gnu/libm.so
cacoshl@GLIBC_2.2.5                               /usr/lib/gcc/x86_64-linux-gnu/4.8/../../../x86_64-linux-gnu/libm.so
cacosl                                            /usr/lib/gcc/x86_64-linux-gnu/4.8/../../../x86_64-linux-gnu/libm.so
cacosl@@GLIBC_2.2.5                               /usr/lib/gcc/x86_64-linux-gnu/4.8/../../../x86_64-linux-gnu/libm.so
cacosl@GLIBC_2.2.5                                /usr/lib/gcc/x86_64-linux-gnu/4.8/../../../x86_64-linux-gnu/libm.so
calloc                                            /lib/x86_64-linux-gnu/libc.so.6
calloc@@GLIBC_2.2.5                               /lib/x86_64-linux-gnu/libc.so.6
                                                  /lib/x86_64-linux-gnu/ld-linux-x86-64.so.2
calloc@GLIBC_2.2.5                                /lib/x86_64-linux-gnu/libc.so.6
                                                  //lib/x86_64-linux-gnu/libtinfo.so.5
                                                  /usr/lib/gcc/x86_64-linux-gnu/4.8/../../../x86_64-linux-gnu/libdl.so
canonicalize_file_name                            /lib/x86_64-linux-gnu/libc.so.6
canonicalize_file_name@@GLIBC_2.2.5               /lib/x86_64-linux-gnu/libc.so.6
canonicalize_file_name@GLIBC_2.2.5                /lib/x86_64-linux-gnu/libc.so.6
carg                                              /usr/lib/gcc/x86_64-linux-gnu/4.8/../../../x86_64-linux-gnu/libm.so
carg@@GLIBC_2.2.5                                 /usr/lib/gcc/x86_64-linux-gnu/4.8/../../../x86_64-linux-gnu/libm.so
carg@GLIBC_2.2.5                                  /usr/lib/gcc/x86_64-linux-gnu/4.8/../../../x86_64-linux-gnu/libm.so
cargf                                             /usr/lib/gcc/x86_64-linux-gnu/4.8/../../../x86_64-linux-gnu/libm.so
cargf@@GLIBC_2.2.5                                /usr/lib/gcc/x86_64-linux-gnu/4.8/../../../x86_64-linux-gnu/libm.so
cargf@GLIBC_2.2.5                                 /usr/lib/gcc/x86_64-linux-gnu/4.8/../../../x86_64-linux-gnu/libm.so
cargl                                             /usr/lib/gcc/x86_64-linux-gnu/4.8/../../../x86_64-linux-gnu/libm.so
cargl@@GLIBC_2.2.5                                /usr/lib/gcc/x86_64-linux-gnu/4.8/../../../x86_64-linux-gnu/libm.so
cargl@GLIBC_2.2.5                                 /usr/lib/gcc/x86_64-linux-gnu/4.8/../../../x86_64-linux-gnu/libm.so
casin                                             /usr/lib/gcc/x86_64-linux-gnu/4.8/../../../x86_64-linux-gnu/libm.so
casin@@GLIBC_2.2.5                                /usr/lib/gcc/x86_64-linux-gnu/4.8/../../../x86_64-linux-gnu/libm.so
casin@GLIBC_2.2.5                                 /usr/lib/gcc/x86_64-linux-gnu/4.8/../../../x86_64-linux-gnu/libm.so
casinf                                            /usr/lib/gcc/x86_64-linux-gnu/4.8/../../../x86_64-linux-gnu/libm.so
casinf@@GLIBC_2.2.5                               /usr/lib/gcc/x86_64-linux-gnu/4.8/../../../x86_64-linux-gnu/libm.so
casinf@GLIBC_2.2.5                                /usr/lib/gcc/x86_64-linux-gnu/4.8/../../../x86_64-linux-gnu/libm.so
casinh                                            /usr/lib/gcc/x86_64-linux-gnu/4.8/../../../x86_64-linux-gnu/libm.so
casinh@@GLIBC_2.2.5                               /usr/lib/gcc/x86_64-linux-gnu/4.8/../../../x86_64-linux-gnu/libm.so
casinh@GLIBC_2.2.5                                /usr/lib/gcc/x86_64-linux-gnu/4.8/../../../x86_64-linux-gnu/libm.so
casinhf                                           /usr/lib/gcc/x86_64-linux-gnu/4.8/../../../x86_64-linux-gnu/libm.so
casinhf@@GLIBC_2.2.5                              /usr/lib/gcc/x86_64-linux-gnu/4.8/../../../x86_64-linux-gnu/libm.so
casinhf@GLIBC_2.2.5                               /usr/lib/gcc/x86_64-linux-gnu/4.8/../../../x86_64-linux-gnu/libm.so
casinhl                                           /usr/lib/gcc/x86_64-linux-gnu/4.8/../../../x86_64-linux-gnu/libm.so
casinhl@@GLIBC_2.2.5                              /usr/lib/gcc/x86_64-linux-gnu/4.8/../../../x86_64-linux-gnu/libm.so
casinhl@GLIBC_2.2.5                               /usr/lib/gcc/x86_64-linux-gnu/4.8/../../../x86_64-linux-gnu/libm.so
casinl                                            /usr/lib/gcc/x86_64-linux-gnu/4.8/../../../x86_64-linux-gnu/libm.so
casinl@@GLIBC_2.2.5                               /usr/lib/gcc/x86_64-linux-gnu/4.8/../../../x86_64-linux-gnu/libm.so
casinl@GLIBC_2.2.5                                /usr/lib/gcc/x86_64-linux-gnu/4.8/../../../x86_64-linux-gnu/libm.so
catan                                             /usr/lib/gcc/x86_64-linux-gnu/4.8/../../../x86_64-linux-gnu/libm.so
catan@@GLIBC_2.2.5                                /usr/lib/gcc/x86_64-linux-gnu/4.8/../../../x86_64-linux-gnu/libm.so
catan@GLIBC_2.2.5                                 /usr/lib/gcc/x86_64-linux-gnu/4.8/../../../x86_64-linux-gnu/libm.so
catanf                                            /usr/lib/gcc/x86_64-linux-gnu/4.8/../../../x86_64-linux-gnu/libm.so
catanf@@GLIBC_2.2.5                               /usr/lib/gcc/x86_64-linux-gnu/4.8/../../../x86_64-linux-gnu/libm.so
catanf@GLIBC_2.2.5                                /usr/lib/gcc/x86_64-linux-gnu/4.8/../../../x86_64-linux-gnu/libm.so
catanh                                            /usr/lib/gcc/x86_64-linux-gnu/4.8/../../../x86_64-linux-gnu/libm.so
catanh@@GLIBC_2.2.5                               /usr/lib/gcc/x86_64-linux-gnu/4.8/../../../x86_64-linux-gnu/libm.so
catanh@GLIBC_2.2.5                                /usr/lib/gcc/x86_64-linux-gnu/4.8/../../../x86_64-linux-gnu/libm.so
catanhf                                           /usr/lib/gcc/x86_64-linux-gnu/4.8/../../../x86_64-linux-gnu/libm.so
catanhf@@GLIBC_2.2.5                              /usr/lib/gcc/x86_64-linux-gnu/4.8/../../../x86_64-linux-gnu/libm.so
catanhf@GLIBC_2.2.5                               /usr/lib/gcc/x86_64-linux-gnu/4.8/../../../x86_64-linux-gnu/libm.so
catanhl                                           /usr/lib/gcc/x86_64-linux-gnu/4.8/../../../x86_64-linux-gnu/libm.so
catanhl@@GLIBC_2.2.5                              /usr/lib/gcc/x86_64-linux-gnu/4.8/../../../x86_64-linux-gnu/libm.so
catanhl@GLIBC_2.2.5                               /usr/lib/gcc/x86_64-linux-gnu/4.8/../../../x86_64-linux-gnu/libm.so
catanl                                            /usr/lib/gcc/x86_64-linux-gnu/4.8/../../../x86_64-linux-gnu/libm.so
catanl@@GLIBC_2.2.5                               /usr/lib/gcc/x86_64-linux-gnu/4.8/../../../x86_64-linux-gnu/libm.so
catanl@GLIBC_2.2.5                                /usr/lib/gcc/x86_64-linux-gnu/4.8/../../../x86_64-linux-gnu/libm.so
cbrt                                              /usr/lib/gcc/x86_64-linux-gnu/4.8/../../../x86_64-linux-gnu/libm.so
cbrt@@GLIBC_2.2.5                                 /usr/lib/gcc/x86_64-linux-gnu/4.8/../../../x86_64-linux-gnu/libm.so
cbrt@GLIBC_2.2.5                                  /usr/lib/gcc/x86_64-linux-gnu/4.8/../../../x86_64-linux-gnu/libm.so
cbrtf                                             /usr/lib/gcc/x86_64-linux-gnu/4.8/../../../x86_64-linux-gnu/libm.so
cbrtf@@GLIBC_2.2.5                                /usr/lib/gcc/x86_64-linux-gnu/4.8/../../../x86_64-linux-gnu/libm.so
cbrtf@GLIBC_2.2.5                                 /usr/lib/gcc/x86_64-linux-gnu/4.8/../../../x86_64-linux-gnu/libm.so
cbrtl                                             /usr/lib/gcc/x86_64-linux-gnu/4.8/../../../x86_64-linux-gnu/libm.so
cbrtl@@GLIBC_2.2.5                                /usr/lib/gcc/x86_64-linux-gnu/4.8/../../../x86_64-linux-gnu/libm.so
cbrtl@GLIBC_2.2.5                                 /usr/lib/gcc/x86_64-linux-gnu/4.8/../../../x86_64-linux-gnu/libm.so
ccos                                              /usr/lib/gcc/x86_64-linux-gnu/4.8/../../../x86_64-linux-gnu/libm.so
ccos@@GLIBC_2.2.5                                 /usr/lib/gcc/x86_64-linux-gnu/4.8/../../../x86_64-linux-gnu/libm.so
ccos@GLIBC_2.2.5                                  /usr/lib/gcc/x86_64-linux-gnu/4.8/../../../x86_64-linux-gnu/libm.so
ccosf                                             /usr/lib/gcc/x86_64-linux-gnu/4.8/../../../x86_64-linux-gnu/libm.so
ccosf@@GLIBC_2.2.5                                /usr/lib/gcc/x86_64-linux-gnu/4.8/../../../x86_64-linux-gnu/libm.so
ccosf@GLIBC_2.2.5                                 /usr/lib/gcc/x86_64-linux-gnu/4.8/../../../x86_64-linux-gnu/libm.so
ccosh                                             /usr/lib/gcc/x86_64-linux-gnu/4.8/../../../x86_64-linux-gnu/libm.so
ccosh@@GLIBC_2.2.5                                /usr/lib/gcc/x86_64-linux-gnu/4.8/../../../x86_64-linux-gnu/libm.so
ccosh@GLIBC_2.2.5                                 /usr/lib/gcc/x86_64-linux-gnu/4.8/../../../x86_64-linux-gnu/libm.so
ccoshf                                            /usr/lib/gcc/x86_64-linux-gnu/4.8/../../../x86_64-linux-gnu/libm.so
ccoshf@@GLIBC_2.2.5                               /usr/lib/gcc/x86_64-linux-gnu/4.8/../../../x86_64-linux-gnu/libm.so
ccoshf@GLIBC_2.2.5                                /usr/lib/gcc/x86_64-linux-gnu/4.8/../../../x86_64-linux-gnu/libm.so
ccoshl                                            /usr/lib/gcc/x86_64-linux-gnu/4.8/../../../x86_64-linux-gnu/libm.so
ccoshl@@GLIBC_2.2.5                               /usr/lib/gcc/x86_64-linux-gnu/4.8/../../../x86_64-linux-gnu/libm.so
ccoshl@GLIBC_2.2.5                                /usr/lib/gcc/x86_64-linux-gnu/4.8/../../../x86_64-linux-gnu/libm.so
ccosl                                             /usr/lib/gcc/x86_64-linux-gnu/4.8/../../../x86_64-linux-gnu/libm.so
ccosl@@GLIBC_2.2.5                                /usr/lib/gcc/x86_64-linux-gnu/4.8/../../../x86_64-linux-gnu/libm.so
ccosl@GLIBC_2.2.5                                 /usr/lib/gcc/x86_64-linux-gnu/4.8/../../../x86_64-linux-gnu/libm.so
ceil                                              /usr/lib/gcc/x86_64-linux-gnu/4.8/../../../x86_64-linux-gnu/libm.so
                                                  build/py/modmath.o
ceil@@GLIBC_2.2.5                                 /usr/lib/gcc/x86_64-linux-gnu/4.8/../../../x86_64-linux-gnu/libm.so
ceil@GLIBC_2.2.5                                  /usr/lib/gcc/x86_64-linux-gnu/4.8/../../../x86_64-linux-gnu/libm.so
ceilf                                             /usr/lib/gcc/x86_64-linux-gnu/4.8/../../../x86_64-linux-gnu/libm.so
ceilf@@GLIBC_2.2.5                                /usr/lib/gcc/x86_64-linux-gnu/4.8/../../../x86_64-linux-gnu/libm.so
ceilf@GLIBC_2.2.5                                 /usr/lib/gcc/x86_64-linux-gnu/4.8/../../../x86_64-linux-gnu/libm.so
ceill                                             /usr/lib/gcc/x86_64-linux-gnu/4.8/../../../x86_64-linux-gnu/libm.so
ceill@@GLIBC_2.2.5                                /usr/lib/gcc/x86_64-linux-gnu/4.8/../../../x86_64-linux-gnu/libm.so
ceill@GLIBC_2.2.5                                 /usr/lib/gcc/x86_64-linux-gnu/4.8/../../../x86_64-linux-gnu/libm.so
cell_type                                         build/py/objcell.o
cexp                                              /usr/lib/gcc/x86_64-linux-gnu/4.8/../../../x86_64-linux-gnu/libm.so
cexp@@GLIBC_2.2.5                                 /usr/lib/gcc/x86_64-linux-gnu/4.8/../../../x86_64-linux-gnu/libm.so
cexp@GLIBC_2.2.5                                  /usr/lib/gcc/x86_64-linux-gnu/4.8/../../../x86_64-linux-gnu/libm.so
cexpf                                             /usr/lib/gcc/x86_64-linux-gnu/4.8/../../../x86_64-linux-gnu/libm.so
cexpf@@GLIBC_2.2.5                                /usr/lib/gcc/x86_64-linux-gnu/4.8/../../../x86_64-linux-gnu/libm.so
cexpf@GLIBC_2.2.5                                 /usr/lib/gcc/x86_64-linux-gnu/4.8/../../../x86_64-linux-gnu/libm.so
cexpl                                             /usr/lib/gcc/x86_64-linux-gnu/4.8/../../../x86_64-linux-gnu/libm.so
cexpl@@GLIBC_2.2.5                                /usr/lib/gcc/x86_64-linux-gnu/4.8/../../../x86_64-linux-gnu/libm.so
cexpl@GLIBC_2.2.5                                 /usr/lib/gcc/x86_64-linux-gnu/4.8/../../../x86_64-linux-gnu/libm.so
cfgetispeed                                       /lib/x86_64-linux-gnu/libc.so.6
                                                  build/modtermios.o
cfgetispeed@@GLIBC_2.2.5                          /lib/x86_64-linux-gnu/libc.so.6
cfgetispeed@GLIBC_2.2.5                           /lib/x86_64-linux-gnu/libc.so.6
cfgetospeed                                       /lib/x86_64-linux-gnu/libc.so.6
                                                  build/modtermios.o
cfgetospeed@@GLIBC_2.2.5                          /lib/x86_64-linux-gnu/libc.so.6
cfgetospeed@GLIBC_2.2.5                           /lib/x86_64-linux-gnu/libc.so.6
                                                  //lib/x86_64-linux-gnu/libtinfo.so.5
cfree                                             /lib/x86_64-linux-gnu/libc.so.6
cfree@@GLIBC_2.2.5                                /lib/x86_64-linux-gnu/libc.so.6
cfree@GLIBC_2.2.5                                 /lib/x86_64-linux-gnu/libc.so.6
cfsetispeed                                       /lib/x86_64-linux-gnu/libc.so.6
                                                  build/modtermios.o
cfsetispeed@@GLIBC_2.2.5                          /lib/x86_64-linux-gnu/libc.so.6
cfsetispeed@GLIBC_2.2.5                           /lib/x86_64-linux-gnu/libc.so.6
chdir                                             /lib/x86_64-linux-gnu/libc.so.6
chdir@@GLIBC_2.2.5                                /lib/x86_64-linux-gnu/libc.so.6
chdir@GLIBC_2.2.5                                 /lib/x86_64-linux-gnu/libc.so.6
chmod                                             /lib/x86_64-linux-gnu/libc.so.6
chmod@@GLIBC_2.2.5                                /lib/x86_64-linux-gnu/libc.so.6
chmod@GLIBC_2.2.5                                 /lib/x86_64-linux-gnu/libc.so.6
chown                                             /lib/x86_64-linux-gnu/libc.so.6
chown@@GLIBC_2.2.5                                /lib/x86_64-linux-gnu/libc.so.6
chown@GLIBC_2.2.5                                 /lib/x86_64-linux-gnu/libc.so.6
cimag                                             /usr/lib/gcc/x86_64-linux-gnu/4.8/../../../x86_64-linux-gnu/libm.so
cimag@@GLIBC_2.2.5                                /usr/lib/gcc/x86_64-linux-gnu/4.8/../../../x86_64-linux-gnu/libm.so
cimag@GLIBC_2.2.5                                 /usr/lib/gcc/x86_64-linux-gnu/4.8/../../../x86_64-linux-gnu/libm.so
cimagf                                            /usr/lib/gcc/x86_64-linux-gnu/4.8/../../../x86_64-linux-gnu/libm.so
cimagf@@GLIBC_2.2.5                               /usr/lib/gcc/x86_64-linux-gnu/4.8/../../../x86_64-linux-gnu/libm.so
cimagf@GLIBC_2.2.5                                /usr/lib/gcc/x86_64-linux-gnu/4.8/../../../x86_64-linux-gnu/libm.so
cimagl                                            /usr/lib/gcc/x86_64-linux-gnu/4.8/../../../x86_64-linux-gnu/libm.so
cimagl@@GLIBC_2.2.5                               /usr/lib/gcc/x86_64-linux-gnu/4.8/../../../x86_64-linux-gnu/libm.so
cimagl@GLIBC_2.2.5                                /usr/lib/gcc/x86_64-linux-gnu/4.8/../../../x86_64-linux-gnu/libm.so
clcidx                                            build/py/../extmod/moduzlib.o
cleanmarks                                        build/py/../extmod/modure.o
clearenv                                          /lib/x86_64-linux-gnu/libc.so.6
clearenv@@GLIBC_2.2.5                             /lib/x86_64-linux-gnu/libc.so.6
clearenv@GLIBC_2.2.5                              /lib/x86_64-linux-gnu/libc.so.6
clock                                             /lib/x86_64-linux-gnu/libc.so.6
                                                  build/modtime.o
clock@@GLIBC_2.2.5                                /lib/x86_64-linux-gnu/libc.so.6
clock@GLIBC_2.2.5                                 /lib/x86_64-linux-gnu/libc.so.6
clock_getcpuclockid                               /lib/x86_64-linux-gnu/libc.so.6
clock_getcpuclockid@@GLIBC_2.17                   /lib/x86_64-linux-gnu/libc.so.6
clock_getcpuclockid@GLIBC_2.17                    /lib/x86_64-linux-gnu/libc.so.6
clock_getres                                      /lib/x86_64-linux-gnu/libc.so.6
clock_getres@@GLIBC_2.17                          /lib/x86_64-linux-gnu/libc.so.6
clock_getres@GLIBC_2.17                           /lib/x86_64-linux-gnu/libc.so.6
clock_gettime                                     /lib/x86_64-linux-gnu/libc.so.6
clock_gettime@@GLIBC_2.17                         /lib/x86_64-linux-gnu/libc.so.6
clock_gettime@GLIBC_2.17                          /lib/x86_64-linux-gnu/libc.so.6
clock_nanosleep                                   /lib/x86_64-linux-gnu/libc.so.6
clock_nanosleep@@GLIBC_2.17                       /lib/x86_64-linux-gnu/libc.so.6
clock_nanosleep@GLIBC_2.17                        /lib/x86_64-linux-gnu/libc.so.6
clock_settime                                     /lib/x86_64-linux-gnu/libc.so.6
clock_settime@@GLIBC_2.17                         /lib/x86_64-linux-gnu/libc.so.6
clock_settime@GLIBC_2.17                          /lib/x86_64-linux-gnu/libc.so.6
clog                                              /usr/lib/gcc/x86_64-linux-gnu/4.8/../../../x86_64-linux-gnu/libm.so
clog10                                            /usr/lib/gcc/x86_64-linux-gnu/4.8/../../../x86_64-linux-gnu/libm.so
clog10@@GLIBC_2.2.5                               /usr/lib/gcc/x86_64-linux-gnu/4.8/../../../x86_64-linux-gnu/libm.so
clog10@GLIBC_2.2.5                                /usr/lib/gcc/x86_64-linux-gnu/4.8/../../../x86_64-linux-gnu/libm.so
clog10f                                           /usr/lib/gcc/x86_64-linux-gnu/4.8/../../../x86_64-linux-gnu/libm.so
clog10f@@GLIBC_2.2.5                              /usr/lib/gcc/x86_64-linux-gnu/4.8/../../../x86_64-linux-gnu/libm.so
clog10f@GLIBC_2.2.5                               /usr/lib/gcc/x86_64-linux-gnu/4.8/../../../x86_64-linux-gnu/libm.so
clog10l                                           /usr/lib/gcc/x86_64-linux-gnu/4.8/../../../x86_64-linux-gnu/libm.so
clog10l@@GLIBC_2.2.5                              /usr/lib/gcc/x86_64-linux-gnu/4.8/../../../x86_64-linux-gnu/libm.so
clog10l@GLIBC_2.2.5                               /usr/lib/gcc/x86_64-linux-gnu/4.8/../../../x86_64-linux-gnu/libm.so
clog@@GLIBC_2.2.5                                 /usr/lib/gcc/x86_64-linux-gnu/4.8/../../../x86_64-linux-gnu/libm.so
clog@GLIBC_2.2.5                                  /usr/lib/gcc/x86_64-linux-gnu/4.8/../../../x86_64-linux-gnu/libm.so
clogf                                             /usr/lib/gcc/x86_64-linux-gnu/4.8/../../../x86_64-linux-gnu/libm.so
clogf@@GLIBC_2.2.5                                /usr/lib/gcc/x86_64-linux-gnu/4.8/../../../x86_64-linux-gnu/libm.so
clogf@GLIBC_2.2.5                                 /usr/lib/gcc/x86_64-linux-gnu/4.8/../../../x86_64-linux-gnu/libm.so
clogl                                             /usr/lib/gcc/x86_64-linux-gnu/4.8/../../../x86_64-linux-gnu/libm.so
clogl@@GLIBC_2.2.5                                /usr/lib/gcc/x86_64-linux-gnu/4.8/../../../x86_64-linux-gnu/libm.so
clogl@GLIBC_2.2.5                                 /usr/lib/gcc/x86_64-linux-gnu/4.8/../../../x86_64-linux-gnu/libm.so
clone                                             /lib/x86_64-linux-gnu/libc.so.6
clone@@GLIBC_2.2.5                                /lib/x86_64-linux-gnu/libc.so.6
clone@GLIBC_2.2.5                                 /lib/x86_64-linux-gnu/libc.so.6
close                                             /lib/x86_64-linux-gnu/libc.so.6
                                                  build/modsocket.o
                                                  build/file.o
                                                  build/py/lexerunix.o
close@@GLIBC_2.2.5                                /lib/x86_64-linux-gnu/libc.so.6
close@GLIBC_2.2.5                                 /lib/x86_64-linux-gnu/libc.so.6
                                                  /usr/lib/gcc/x86_64-linux-gnu/4.8/../../../x86_64-linux-gnu/libffi.so
                                                  /usr/lib/gcc/x86_64-linux-gnu/4.8/../../../x86_64-linux-gnu/libreadline.so
closedir                                          /lib/x86_64-linux-gnu/libc.so.6
closedir@@GLIBC_2.2.5                             /lib/x86_64-linux-gnu/libc.so.6
closedir@GLIBC_2.2.5                              /lib/x86_64-linux-gnu/libc.so.6
                                                  /usr/lib/gcc/x86_64-linux-gnu/4.8/../../../x86_64-linux-gnu/libreadline.so
closure_type                                      build/py/objclosure.o
conj                                              /usr/lib/gcc/x86_64-linux-gnu/4.8/../../../x86_64-linux-gnu/libm.so
conj@@GLIBC_2.2.5                                 /usr/lib/gcc/x86_64-linux-gnu/4.8/../../../x86_64-linux-gnu/libm.so
conj@GLIBC_2.2.5                                  /usr/lib/gcc/x86_64-linux-gnu/4.8/../../../x86_64-linux-gnu/libm.so
conjf                                             /usr/lib/gcc/x86_64-linux-gnu/4.8/../../../x86_64-linux-gnu/libm.so
conjf@@GLIBC_2.2.5                                /usr/lib/gcc/x86_64-linux-gnu/4.8/../../../x86_64-linux-gnu/libm.so
conjf@GLIBC_2.2.5                                 /usr/lib/gcc/x86_64-linux-gnu/4.8/../../../x86_64-linux-gnu/libm.so
conjl                                             /usr/lib/gcc/x86_64-linux-gnu/4.8/../../../x86_64-linux-gnu/libm.so
conjl@@GLIBC_2.2.5                                /usr/lib/gcc/x86_64-linux-gnu/4.8/../../../x86_64-linux-gnu/libm.so
conjl@GLIBC_2.2.5                                 /usr/lib/gcc/x86_64-linux-gnu/4.8/../../../x86_64-linux-gnu/libm.so
connect                                           /lib/x86_64-linux-gnu/libc.so.6
                                                  build/modsocket.o
connect@@GLIBC_2.2.5                              /lib/x86_64-linux-gnu/libc.so.6
connect@GLIBC_2.2.5                               /lib/x86_64-linux-gnu/libc.so.6
copysign                                          /usr/lib/gcc/x86_64-linux-gnu/4.8/../../../x86_64-linux-gnu/libm.so
copysign@@GLIBC_2.2.5                             /usr/lib/gcc/x86_64-linux-gnu/4.8/../../../x86_64-linux-gnu/libm.so
                                                  /lib/x86_64-linux-gnu/libc.so.6
copysign@GLIBC_2.2.5                              /usr/lib/gcc/x86_64-linux-gnu/4.8/../../../x86_64-linux-gnu/libm.so
copysignf                                         /usr/lib/gcc/x86_64-linux-gnu/4.8/../../../x86_64-linux-gnu/libm.so
copysignf@@GLIBC_2.2.5                            /usr/lib/gcc/x86_64-linux-gnu/4.8/../../../x86_64-linux-gnu/libm.so
                                                  /lib/x86_64-linux-gnu/libc.so.6
copysignf@GLIBC_2.2.5                             /usr/lib/gcc/x86_64-linux-gnu/4.8/../../../x86_64-linux-gnu/libm.so
copysignl                                         /usr/lib/gcc/x86_64-linux-gnu/4.8/../../../x86_64-linux-gnu/libm.so
copysignl@@GLIBC_2.2.5                            /usr/lib/gcc/x86_64-linux-gnu/4.8/../../../x86_64-linux-gnu/libm.so
                                                  /lib/x86_64-linux-gnu/libc.so.6
copysignl@GLIBC_2.2.5                             /usr/lib/gcc/x86_64-linux-gnu/4.8/../../../x86_64-linux-gnu/libm.so
cos                                               /usr/lib/gcc/x86_64-linux-gnu/4.8/../../../x86_64-linux-gnu/libm.so
                                                  build/py/modcmath.o
                                                  build/py/modmath.o
cos@@GLIBC_2.2.5                                  /usr/lib/gcc/x86_64-linux-gnu/4.8/../../../x86_64-linux-gnu/libm.so
cos@GLIBC_2.2.5                                   /usr/lib/gcc/x86_64-linux-gnu/4.8/../../../x86_64-linux-gnu/libm.so
cosf                                              /usr/lib/gcc/x86_64-linux-gnu/4.8/../../../x86_64-linux-gnu/libm.so
cosf@@GLIBC_2.2.5                                 /usr/lib/gcc/x86_64-linux-gnu/4.8/../../../x86_64-linux-gnu/libm.so
cosf@GLIBC_2.2.5                                  /usr/lib/gcc/x86_64-linux-gnu/4.8/../../../x86_64-linux-gnu/libm.so
cosh                                              /usr/lib/gcc/x86_64-linux-gnu/4.8/../../../x86_64-linux-gnu/libm.so
                                                  build/py/modcmath.o
                                                  build/py/modmath.o
cosh@@GLIBC_2.2.5                                 /usr/lib/gcc/x86_64-linux-gnu/4.8/../../../x86_64-linux-gnu/libm.so
cosh@GLIBC_2.2.5                                  /usr/lib/gcc/x86_64-linux-gnu/4.8/../../../x86_64-linux-gnu/libm.so
coshf                                             /usr/lib/gcc/x86_64-linux-gnu/4.8/../../../x86_64-linux-gnu/libm.so
coshf@@GLIBC_2.2.5                                /usr/lib/gcc/x86_64-linux-gnu/4.8/../../../x86_64-linux-gnu/libm.so
coshf@GLIBC_2.2.5                                 /usr/lib/gcc/x86_64-linux-gnu/4.8/../../../x86_64-linux-gnu/libm.so
coshl                                             /usr/lib/gcc/x86_64-linux-gnu/4.8/../../../x86_64-linux-gnu/libm.so
coshl@@GLIBC_2.2.5                                /usr/lib/gcc/x86_64-linux-gnu/4.8/../../../x86_64-linux-gnu/libm.so
coshl@GLIBC_2.2.5                                 /usr/lib/gcc/x86_64-linux-gnu/4.8/../../../x86_64-linux-gnu/libm.so
cosl                                              /usr/lib/gcc/x86_64-linux-gnu/4.8/../../../x86_64-linux-gnu/libm.so
cosl@@GLIBC_2.2.5                                 /usr/lib/gcc/x86_64-linux-gnu/4.8/../../../x86_64-linux-gnu/libm.so
cosl@GLIBC_2.2.5                                  /usr/lib/gcc/x86_64-linux-gnu/4.8/../../../x86_64-linux-gnu/libm.so
cpow                                              /usr/lib/gcc/x86_64-linux-gnu/4.8/../../../x86_64-linux-gnu/libm.so
cpow@@GLIBC_2.2.5                                 /usr/lib/gcc/x86_64-linux-gnu/4.8/../../../x86_64-linux-gnu/libm.so
cpow@GLIBC_2.2.5                                  /usr/lib/gcc/x86_64-linux-gnu/4.8/../../../x86_64-linux-gnu/libm.so
cpowf                                             /usr/lib/gcc/x86_64-linux-gnu/4.8/../../../x86_64-linux-gnu/libm.so
cpowf@@GLIBC_2.2.5                                /usr/lib/gcc/x86_64-linux-gnu/4.8/../../../x86_64-linux-gnu/libm.so
cpowf@GLIBC_2.2.5                                 /usr/lib/gcc/x86_64-linux-gnu/4.8/../../../x86_64-linux-gnu/libm.so
cpowl                                             /usr/lib/gcc/x86_64-linux-gnu/4.8/../../../x86_64-linux-gnu/libm.so
cpowl@@GLIBC_2.2.5                                /usr/lib/gcc/x86_64-linux-gnu/4.8/../../../x86_64-linux-gnu/libm.so
cpowl@GLIBC_2.2.5                                 /usr/lib/gcc/x86_64-linux-gnu/4.8/../../../x86_64-linux-gnu/libm.so
cproj                                             /usr/lib/gcc/x86_64-linux-gnu/4.8/../../../x86_64-linux-gnu/libm.so
cproj@@GLIBC_2.2.5                                /usr/lib/gcc/x86_64-linux-gnu/4.8/../../../x86_64-linux-gnu/libm.so
cproj@GLIBC_2.2.5                                 /usr/lib/gcc/x86_64-linux-gnu/4.8/../../../x86_64-linux-gnu/libm.so
cprojf                                            /usr/lib/gcc/x86_64-linux-gnu/4.8/../../../x86_64-linux-gnu/libm.so
cprojf@@GLIBC_2.2.5                               /usr/lib/gcc/x86_64-linux-gnu/4.8/../../../x86_64-linux-gnu/libm.so
cprojf@GLIBC_2.2.5                                /usr/lib/gcc/x86_64-linux-gnu/4.8/../../../x86_64-linux-gnu/libm.so
cprojl                                            /usr/lib/gcc/x86_64-linux-gnu/4.8/../../../x86_64-linux-gnu/libm.so
cprojl@@GLIBC_2.2.5                               /usr/lib/gcc/x86_64-linux-gnu/4.8/../../../x86_64-linux-gnu/libm.so
cprojl@GLIBC_2.2.5                                /usr/lib/gcc/x86_64-linux-gnu/4.8/../../../x86_64-linux-gnu/libm.so
creal                                             /usr/lib/gcc/x86_64-linux-gnu/4.8/../../../x86_64-linux-gnu/libm.so
creal@@GLIBC_2.2.5                                /usr/lib/gcc/x86_64-linux-gnu/4.8/../../../x86_64-linux-gnu/libm.so
creal@GLIBC_2.2.5                                 /usr/lib/gcc/x86_64-linux-gnu/4.8/../../../x86_64-linux-gnu/libm.so
crealf                                            /usr/lib/gcc/x86_64-linux-gnu/4.8/../../../x86_64-linux-gnu/libm.so
crealf@@GLIBC_2.2.5                               /usr/lib/gcc/x86_64-linux-gnu/4.8/../../../x86_64-linux-gnu/libm.so
crealf@GLIBC_2.2.5                                /usr/lib/gcc/x86_64-linux-gnu/4.8/../../../x86_64-linux-gnu/libm.so
creall                                            /usr/lib/gcc/x86_64-linux-gnu/4.8/../../../x86_64-linux-gnu/libm.so
creall@@GLIBC_2.2.5                               /usr/lib/gcc/x86_64-linux-gnu/4.8/../../../x86_64-linux-gnu/libm.so
creall@GLIBC_2.2.5                                /usr/lib/gcc/x86_64-linux-gnu/4.8/../../../x86_64-linux-gnu/libm.so
creat                                             /lib/x86_64-linux-gnu/libc.so.6
creat64                                           /lib/x86_64-linux-gnu/libc.so.6
creat64@@GLIBC_2.2.5                              /lib/x86_64-linux-gnu/libc.so.6
creat64@GLIBC_2.2.5                               /lib/x86_64-linux-gnu/libc.so.6
creat@@GLIBC_2.2.5                                /lib/x86_64-linux-gnu/libc.so.6
creat@GLIBC_2.2.5                                 /lib/x86_64-linux-gnu/libc.so.6
csin                                              /usr/lib/gcc/x86_64-linux-gnu/4.8/../../../x86_64-linux-gnu/libm.so
csin@@GLIBC_2.2.5                                 /usr/lib/gcc/x86_64-linux-gnu/4.8/../../../x86_64-linux-gnu/libm.so
csin@GLIBC_2.2.5                                  /usr/lib/gcc/x86_64-linux-gnu/4.8/../../../x86_64-linux-gnu/libm.so
csinf                                             /usr/lib/gcc/x86_64-linux-gnu/4.8/../../../x86_64-linux-gnu/libm.so
csinf@@GLIBC_2.2.5                                /usr/lib/gcc/x86_64-linux-gnu/4.8/../../../x86_64-linux-gnu/libm.so
csinf@GLIBC_2.2.5                                 /usr/lib/gcc/x86_64-linux-gnu/4.8/../../../x86_64-linux-gnu/libm.so
csinh                                             /usr/lib/gcc/x86_64-linux-gnu/4.8/../../../x86_64-linux-gnu/libm.so
csinh@@GLIBC_2.2.5                                /usr/lib/gcc/x86_64-linux-gnu/4.8/../../../x86_64-linux-gnu/libm.so
csinh@GLIBC_2.2.5                                 /usr/lib/gcc/x86_64-linux-gnu/4.8/../../../x86_64-linux-gnu/libm.so
csinhf                                            /usr/lib/gcc/x86_64-linux-gnu/4.8/../../../x86_64-linux-gnu/libm.so
csinhf@@GLIBC_2.2.5                               /usr/lib/gcc/x86_64-linux-gnu/4.8/../../../x86_64-linux-gnu/libm.so
csinhf@GLIBC_2.2.5                                /usr/lib/gcc/x86_64-linux-gnu/4.8/../../../x86_64-linux-gnu/libm.so
csinhl                                            /usr/lib/gcc/x86_64-linux-gnu/4.8/../../../x86_64-linux-gnu/libm.so
csinhl@@GLIBC_2.2.5                               /usr/lib/gcc/x86_64-linux-gnu/4.8/../../../x86_64-linux-gnu/libm.so
csinhl@GLIBC_2.2.5                                /usr/lib/gcc/x86_64-linux-gnu/4.8/../../../x86_64-linux-gnu/libm.so
csinl                                             /usr/lib/gcc/x86_64-linux-gnu/4.8/../../../x86_64-linux-gnu/libm.so
csinl@@GLIBC_2.2.5                                /usr/lib/gcc/x86_64-linux-gnu/4.8/../../../x86_64-linux-gnu/libm.so
csinl@GLIBC_2.2.5                                 /usr/lib/gcc/x86_64-linux-gnu/4.8/../../../x86_64-linux-gnu/libm.so
csqrt                                             /usr/lib/gcc/x86_64-linux-gnu/4.8/../../../x86_64-linux-gnu/libm.so
csqrt@@GLIBC_2.2.5                                /usr/lib/gcc/x86_64-linux-gnu/4.8/../../../x86_64-linux-gnu/libm.so
csqrt@GLIBC_2.2.5                                 /usr/lib/gcc/x86_64-linux-gnu/4.8/../../../x86_64-linux-gnu/libm.so
csqrtf                                            /usr/lib/gcc/x86_64-linux-gnu/4.8/../../../x86_64-linux-gnu/libm.so
csqrtf@@GLIBC_2.2.5                               /usr/lib/gcc/x86_64-linux-gnu/4.8/../../../x86_64-linux-gnu/libm.so
csqrtf@GLIBC_2.2.5                                /usr/lib/gcc/x86_64-linux-gnu/4.8/../../../x86_64-linux-gnu/libm.so
csqrtl                                            /usr/lib/gcc/x86_64-linux-gnu/4.8/../../../x86_64-linux-gnu/libm.so
csqrtl@@GLIBC_2.2.5                               /usr/lib/gcc/x86_64-linux-gnu/4.8/../../../x86_64-linux-gnu/libm.so
csqrtl@GLIBC_2.2.5                                /usr/lib/gcc/x86_64-linux-gnu/4.8/../../../x86_64-linux-gnu/libm.so
ctan                                              /usr/lib/gcc/x86_64-linux-gnu/4.8/../../../x86_64-linux-gnu/libm.so
ctan@@GLIBC_2.2.5                                 /usr/lib/gcc/x86_64-linux-gnu/4.8/../../../x86_64-linux-gnu/libm.so
ctan@GLIBC_2.2.5                                  /usr/lib/gcc/x86_64-linux-gnu/4.8/../../../x86_64-linux-gnu/libm.so
ctanf                                             /usr/lib/gcc/x86_64-linux-gnu/4.8/../../../x86_64-linux-gnu/libm.so
ctanf@@GLIBC_2.2.5                                /usr/lib/gcc/x86_64-linux-gnu/4.8/../../../x86_64-linux-gnu/libm.so
ctanf@GLIBC_2.2.5                                 /usr/lib/gcc/x86_64-linux-gnu/4.8/../../../x86_64-linux-gnu/libm.so
ctanh                                             /usr/lib/gcc/x86_64-linux-gnu/4.8/../../../x86_64-linux-gnu/libm.so
ctanh@@GLIBC_2.2.5                                /usr/lib/gcc/x86_64-linux-gnu/4.8/../../../x86_64-linux-gnu/libm.so
ctanh@GLIBC_2.2.5                                 /usr/lib/gcc/x86_64-linux-gnu/4.8/../../../x86_64-linux-gnu/libm.so
ctanhf                                            /usr/lib/gcc/x86_64-linux-gnu/4.8/../../../x86_64-linux-gnu/libm.so
ctanhf@@GLIBC_2.2.5                               /usr/lib/gcc/x86_64-linux-gnu/4.8/../../../x86_64-linux-gnu/libm.so
ctanhf@GLIBC_2.2.5                                /usr/lib/gcc/x86_64-linux-gnu/4.8/../../../x86_64-linux-gnu/libm.so
ctanhl                                            /usr/lib/gcc/x86_64-linux-gnu/4.8/../../../x86_64-linux-gnu/libm.so
ctanhl@@GLIBC_2.2.5                               /usr/lib/gcc/x86_64-linux-gnu/4.8/../../../x86_64-linux-gnu/libm.so
ctanhl@GLIBC_2.2.5                                /usr/lib/gcc/x86_64-linux-gnu/4.8/../../../x86_64-linux-gnu/libm.so
ctanl                                             /usr/lib/gcc/x86_64-linux-gnu/4.8/../../../x86_64-linux-gnu/libm.so
ctanl@@GLIBC_2.2.5                                /usr/lib/gcc/x86_64-linux-gnu/4.8/../../../x86_64-linux-gnu/libm.so
ctanl@GLIBC_2.2.5                                 /usr/lib/gcc/x86_64-linux-gnu/4.8/../../../x86_64-linux-gnu/libm.so
data_start                                        /usr/lib/gcc/x86_64-linux-gnu/4.8/../../../x86_64-linux-gnu/crt1.o
daylight                                          /lib/x86_64-linux-gnu/libc.so.6
daylight@@GLIBC_2.2.5                             /lib/x86_64-linux-gnu/libc.so.6
daylight@GLIBC_2.2.5                              /lib/x86_64-linux-gnu/libc.so.6
dcgettext                                         /lib/x86_64-linux-gnu/libc.so.6
dcgettext@@GLIBC_2.2.5                            /lib/x86_64-linux-gnu/libc.so.6
dcgettext@GLIBC_2.2.5                             /lib/x86_64-linux-gnu/libc.so.6
dcngettext                                        /lib/x86_64-linux-gnu/libc.so.6
dcngettext@@GLIBC_2.2.5                           /lib/x86_64-linux-gnu/libc.so.6
dcngettext@GLIBC_2.2.5                            /lib/x86_64-linux-gnu/libc.so.6
dgettext                                          /lib/x86_64-linux-gnu/libc.so.6
dgettext@@GLIBC_2.2.5                             /lib/x86_64-linux-gnu/libc.so.6
dgettext@GLIBC_2.2.5                              /lib/x86_64-linux-gnu/libc.so.6
dist_base                                         build/py/../extmod/moduzlib.o
dist_bits                                         build/py/../extmod/moduzlib.o
dl_iterate_phdr                                   /lib/x86_64-linux-gnu/libc.so.6
dl_iterate_phdr@@GLIBC_2.2.5                      /lib/x86_64-linux-gnu/libc.so.6
dl_iterate_phdr@GLIBC_2.2.5                       /lib/x86_64-linux-gnu/libc.so.6
dlclose                                           /usr/lib/gcc/x86_64-linux-gnu/4.8/../../../x86_64-linux-gnu/libdl.so
                                                  build/modffi.o
dlclose@@GLIBC_2.2.5                              /usr/lib/gcc/x86_64-linux-gnu/4.8/../../../x86_64-linux-gnu/libdl.so
dlclose@GLIBC_2.2.5                               /usr/lib/gcc/x86_64-linux-gnu/4.8/../../../x86_64-linux-gnu/libdl.so
dlopen                                            /usr/lib/gcc/x86_64-linux-gnu/4.8/../../../x86_64-linux-gnu/libdl.so
                                                  build/modffi.o
dlopen@@GLIBC_2.2.5                               /usr/lib/gcc/x86_64-linux-gnu/4.8/../../../x86_64-linux-gnu/libdl.so
dlopen@GLIBC_2.2.5                                /usr/lib/gcc/x86_64-linux-gnu/4.8/../../../x86_64-linux-gnu/libdl.so
dlsym                                             /usr/lib/gcc/x86_64-linux-gnu/4.8/../../../x86_64-linux-gnu/libdl.so
                                                  build/modffi.o
dlsym@@GLIBC_2.2.5                                /usr/lib/gcc/x86_64-linux-gnu/4.8/../../../x86_64-linux-gnu/libdl.so
dlsym@GLIBC_2.2.5                                 /usr/lib/gcc/x86_64-linux-gnu/4.8/../../../x86_64-linux-gnu/libdl.so
dlvsym                                            /usr/lib/gcc/x86_64-linux-gnu/4.8/../../../x86_64-linux-gnu/libdl.so
dlvsym@@GLIBC_2.2.5                               /usr/lib/gcc/x86_64-linux-gnu/4.8/../../../x86_64-linux-gnu/libdl.so
dlvsym@GLIBC_2.2.5                                /usr/lib/gcc/x86_64-linux-gnu/4.8/../../../x86_64-linux-gnu/libdl.so
dngettext                                         /lib/x86_64-linux-gnu/libc.so.6
dngettext@@GLIBC_2.2.5                            /lib/x86_64-linux-gnu/libc.so.6
dngettext@GLIBC_2.2.5                             /lib/x86_64-linux-gnu/libc.so.6
drem                                              /usr/lib/gcc/x86_64-linux-gnu/4.8/../../../x86_64-linux-gnu/libm.so
drem@@GLIBC_2.2.5                                 /usr/lib/gcc/x86_64-linux-gnu/4.8/../../../x86_64-linux-gnu/libm.so
drem@GLIBC_2.2.5                                  /usr/lib/gcc/x86_64-linux-gnu/4.8/../../../x86_64-linux-gnu/libm.so
dremf                                             /usr/lib/gcc/x86_64-linux-gnu/4.8/../../../x86_64-linux-gnu/libm.so
dremf@@GLIBC_2.2.5                                /usr/lib/gcc/x86_64-linux-gnu/4.8/../../../x86_64-linux-gnu/libm.so
dremf@GLIBC_2.2.5                                 /usr/lib/gcc/x86_64-linux-gnu/4.8/../../../x86_64-linux-gnu/libm.so
dreml                                             /usr/lib/gcc/x86_64-linux-gnu/4.8/../../../x86_64-linux-gnu/libm.so
dreml@@GLIBC_2.2.5                                /usr/lib/gcc/x86_64-linux-gnu/4.8/../../../x86_64-linux-gnu/libm.so
dreml@GLIBC_2.2.5                                 /usr/lib/gcc/x86_64-linux-gnu/4.8/../../../x86_64-linux-gnu/libm.so
dup                                               /lib/x86_64-linux-gnu/libc.so.6
dup2                                              /lib/x86_64-linux-gnu/libc.so.6
dup2@@GLIBC_2.2.5                                 /lib/x86_64-linux-gnu/libc.so.6
dup2@GLIBC_2.2.5                                  /lib/x86_64-linux-gnu/libc.so.6
dup3                                              /lib/x86_64-linux-gnu/libc.so.6
dup3@@GLIBC_2.9                                   /lib/x86_64-linux-gnu/libc.so.6
dup3@GLIBC_2.9                                    /lib/x86_64-linux-gnu/libc.so.6
dup@@GLIBC_2.2.5                                  /lib/x86_64-linux-gnu/libc.so.6
dup@GLIBC_2.2.5                                   /lib/x86_64-linux-gnu/libc.so.6
duplocale                                         /lib/x86_64-linux-gnu/libc.so.6
duplocale@@GLIBC_2.3                              /lib/x86_64-linux-gnu/libc.so.6
duplocale@GLIBC_2.3                               /lib/x86_64-linux-gnu/libc.so.6
eaccess                                           /lib/x86_64-linux-gnu/libc.so.6
eaccess@@GLIBC_2.4                                /lib/x86_64-linux-gnu/libc.so.6
eaccess@GLIBC_2.4                                 /lib/x86_64-linux-gnu/libc.so.6
emit_bc_free                                      build/py/emitbc.o
                                                  build/py/compile.o
emit_bc_method_table                              build/py/emitbc.o
                                                  build/py/compile.o
emit_bc_new                                       build/py/emitbc.o
                                                  build/py/compile.o
emit_common_delete_id                             build/py/emitcommon.o
                                                  build/py/emitnx64.o
                                                  build/py/emitbc.o
emit_common_load_id                               build/py/emitcommon.o
                                                  build/py/emitnx64.o
                                                  build/py/emitbc.o
emit_common_store_id                              build/py/emitcommon.o
                                                  build/py/emitnx64.o
                                                  build/py/emitbc.o
emit_native_x64_free                              build/py/emitnx64.o
                                                  build/py/compile.o
emit_native_x64_method_table                      build/py/emitnx64.o
                                                  build/py/compile.o
emit_native_x64_new                               build/py/emitnx64.o
                                                  build/py/compile.o
emit_pass1_free                                   build/py/emitpass1.o
                                                  build/py/compile.o
emit_pass1_method_table                           build/py/emitpass1.o
                                                  build/py/compile.o
emit_pass1_new                                    build/py/emitpass1.o
                                                  build/py/compile.o
endmntent                                         /lib/x86_64-linux-gnu/libc.so.6
endmntent@@GLIBC_2.2.5                            /lib/x86_64-linux-gnu/libc.so.6
endmntent@GLIBC_2.2.5                             /lib/x86_64-linux-gnu/libc.so.6
                                                  /usr/lib/gcc/x86_64-linux-gnu/4.8/../../../x86_64-linux-gnu/libffi.so
endutent                                          /lib/x86_64-linux-gnu/libc.so.6
endutent@@GLIBC_2.2.5                             /lib/x86_64-linux-gnu/libc.so.6
endutent@GLIBC_2.2.5                              /lib/x86_64-linux-gnu/libc.so.6
environ                                           /lib/x86_64-linux-gnu/libc.so.6
environ@@GLIBC_2.2.5                              /lib/x86_64-linux-gnu/libc.so.6
environ@GLIBC_2.2.5                               /lib/x86_64-linux-gnu/libc.so.6
                                                  /usr/lib/gcc/x86_64-linux-gnu/4.8/../../../x86_64-linux-gnu/libdl.so
erand48_r                                         /lib/x86_64-linux-gnu/libc.so.6
erand48_r@@GLIBC_2.2.5                            /lib/x86_64-linux-gnu/libc.so.6
erand48_r@GLIBC_2.2.5                             /lib/x86_64-linux-gnu/libc.so.6
erf                                               /usr/lib/gcc/x86_64-linux-gnu/4.8/../../../x86_64-linux-gnu/libm.so
                                                  build/py/modmath.o
erf@@GLIBC_2.2.5                                  /usr/lib/gcc/x86_64-linux-gnu/4.8/../../../x86_64-linux-gnu/libm.so
erf@GLIBC_2.2.5                                   /usr/lib/gcc/x86_64-linux-gnu/4.8/../../../x86_64-linux-gnu/libm.so
erfc                                              /usr/lib/gcc/x86_64-linux-gnu/4.8/../../../x86_64-linux-gnu/libm.so
                                                  build/py/modmath.o
erfc@@GLIBC_2.2.5                                 /usr/lib/gcc/x86_64-linux-gnu/4.8/../../../x86_64-linux-gnu/libm.so
erfc@GLIBC_2.2.5                                  /usr/lib/gcc/x86_64-linux-gnu/4.8/../../../x86_64-linux-gnu/libm.so
erfcf                                             /usr/lib/gcc/x86_64-linux-gnu/4.8/../../../x86_64-linux-gnu/libm.so
erfcf@@GLIBC_2.2.5                                /usr/lib/gcc/x86_64-linux-gnu/4.8/../../../x86_64-linux-gnu/libm.so
erfcf@GLIBC_2.2.5                                 /usr/lib/gcc/x86_64-linux-gnu/4.8/../../../x86_64-linux-gnu/libm.so
erfcl                                             /usr/lib/gcc/x86_64-linux-gnu/4.8/../../../x86_64-linux-gnu/libm.so
erfcl@@GLIBC_2.2.5                                /usr/lib/gcc/x86_64-linux-gnu/4.8/../../../x86_64-linux-gnu/libm.so
erfcl@GLIBC_2.2.5                                 /usr/lib/gcc/x86_64-linux-gnu/4.8/../../../x86_64-linux-gnu/libm.so
erff                                              /usr/lib/gcc/x86_64-linux-gnu/4.8/../../../x86_64-linux-gnu/libm.so
erff@@GLIBC_2.2.5                                 /usr/lib/gcc/x86_64-linux-gnu/4.8/../../../x86_64-linux-gnu/libm.so
erff@GLIBC_2.2.5                                  /usr/lib/gcc/x86_64-linux-gnu/4.8/../../../x86_64-linux-gnu/libm.so
erfl                                              /usr/lib/gcc/x86_64-linux-gnu/4.8/../../../x86_64-linux-gnu/libm.so
erfl@@GLIBC_2.2.5                                 /usr/lib/gcc/x86_64-linux-gnu/4.8/../../../x86_64-linux-gnu/libm.so
erfl@GLIBC_2.2.5                                  /usr/lib/gcc/x86_64-linux-gnu/4.8/../../../x86_64-linux-gnu/libm.so
error                                             /lib/x86_64-linux-gnu/libc.so.6
error@@GLIBC_2.2.5                                /lib/x86_64-linux-gnu/libc.so.6
error@GLIBC_2.2.5                                 /lib/x86_64-linux-gnu/libc.so.6
error_at_line                                     /lib/x86_64-linux-gnu/libc.so.6
error_at_line@@GLIBC_2.2.5                        /lib/x86_64-linux-gnu/libc.so.6
error_at_line@GLIBC_2.2.5                         /lib/x86_64-linux-gnu/libc.so.6
euidaccess                                        /lib/x86_64-linux-gnu/libc.so.6
euidaccess@@GLIBC_2.2.5                           /lib/x86_64-linux-gnu/libc.so.6
euidaccess@GLIBC_2.2.5                            /lib/x86_64-linux-gnu/libc.so.6
execve                                            /lib/x86_64-linux-gnu/libc.so.6
execve@@GLIBC_2.2.5                               /lib/x86_64-linux-gnu/libc.so.6
execve@GLIBC_2.2.5                                /lib/x86_64-linux-gnu/libc.so.6
execvpe                                           /lib/x86_64-linux-gnu/libc.so.6
execvpe@@GLIBC_2.11                               /lib/x86_64-linux-gnu/libc.so.6
execvpe@GLIBC_2.11                                /lib/x86_64-linux-gnu/libc.so.6
exit                                              /lib/x86_64-linux-gnu/libc.so.6
                                                  build/main.o
exit@@GLIBC_2.2.5                                 /lib/x86_64-linux-gnu/libc.so.6
exit@GLIBC_2.2.5                                  /lib/x86_64-linux-gnu/libc.so.6
                                                  //lib/x86_64-linux-gnu/libtinfo.so.5
                                                  /usr/lib/gcc/x86_64-linux-gnu/4.8/../../../x86_64-linux-gnu/libreadline.so
exp                                               /usr/lib/gcc/x86_64-linux-gnu/4.8/../../../x86_64-linux-gnu/libm.so
                                                  build/py/modcmath.o
                                                  build/py/modmath.o
                                                  build/py/objcomplex.o
exp10                                             /usr/lib/gcc/x86_64-linux-gnu/4.8/../../../x86_64-linux-gnu/libm.so
exp10@@GLIBC_2.2.5                                /usr/lib/gcc/x86_64-linux-gnu/4.8/../../../x86_64-linux-gnu/libm.so
exp10@GLIBC_2.2.5                                 /usr/lib/gcc/x86_64-linux-gnu/4.8/../../../x86_64-linux-gnu/libm.so
exp10f                                            /usr/lib/gcc/x86_64-linux-gnu/4.8/../../../x86_64-linux-gnu/libm.so
exp10f@@GLIBC_2.2.5                               /usr/lib/gcc/x86_64-linux-gnu/4.8/../../../x86_64-linux-gnu/libm.so
exp10f@GLIBC_2.2.5                                /usr/lib/gcc/x86_64-linux-gnu/4.8/../../../x86_64-linux-gnu/libm.so
exp10l                                            /usr/lib/gcc/x86_64-linux-gnu/4.8/../../../x86_64-linux-gnu/libm.so
exp10l@@GLIBC_2.2.5                               /usr/lib/gcc/x86_64-linux-gnu/4.8/../../../x86_64-linux-gnu/libm.so
exp10l@GLIBC_2.2.5                                /usr/lib/gcc/x86_64-linux-gnu/4.8/../../../x86_64-linux-gnu/libm.so
exp2                                              /usr/lib/gcc/x86_64-linux-gnu/4.8/../../../x86_64-linux-gnu/libm.so
exp2@@GLIBC_2.2.5                                 /usr/lib/gcc/x86_64-linux-gnu/4.8/../../../x86_64-linux-gnu/libm.so
exp2@GLIBC_2.2.5                                  /usr/lib/gcc/x86_64-linux-gnu/4.8/../../../x86_64-linux-gnu/libm.so
exp2f                                             /usr/lib/gcc/x86_64-linux-gnu/4.8/../../../x86_64-linux-gnu/libm.so
exp2f@@GLIBC_2.2.5                                /usr/lib/gcc/x86_64-linux-gnu/4.8/../../../x86_64-linux-gnu/libm.so
exp2f@GLIBC_2.2.5                                 /usr/lib/gcc/x86_64-linux-gnu/4.8/../../../x86_64-linux-gnu/libm.so
exp2l                                             /usr/lib/gcc/x86_64-linux-gnu/4.8/../../../x86_64-linux-gnu/libm.so
exp2l@@GLIBC_2.2.5                                /usr/lib/gcc/x86_64-linux-gnu/4.8/../../../x86_64-linux-gnu/libm.so
exp2l@GLIBC_2.2.5                                 /usr/lib/gcc/x86_64-linux-gnu/4.8/../../../x86_64-linux-gnu/libm.so
exp@@GLIBC_2.2.5                                  /usr/lib/gcc/x86_64-linux-gnu/4.8/../../../x86_64-linux-gnu/libm.so
exp@GLIBC_2.2.5                                   /usr/lib/gcc/x86_64-linux-gnu/4.8/../../../x86_64-linux-gnu/libm.so
expf                                              /usr/lib/gcc/x86_64-linux-gnu/4.8/../../../x86_64-linux-gnu/libm.so
expf@@GLIBC_2.2.5                                 /usr/lib/gcc/x86_64-linux-gnu/4.8/../../../x86_64-linux-gnu/libm.so
expf@GLIBC_2.2.5                                  /usr/lib/gcc/x86_64-linux-gnu/4.8/../../../x86_64-linux-gnu/libm.so
expl                                              /usr/lib/gcc/x86_64-linux-gnu/4.8/../../../x86_64-linux-gnu/libm.so
expl@@GLIBC_2.2.5                                 /usr/lib/gcc/x86_64-linux-gnu/4.8/../../../x86_64-linux-gnu/libm.so
expl@GLIBC_2.2.5                                  /usr/lib/gcc/x86_64-linux-gnu/4.8/../../../x86_64-linux-gnu/libm.so
expm1                                             /usr/lib/gcc/x86_64-linux-gnu/4.8/../../../x86_64-linux-gnu/libm.so
                                                  build/py/modmath.o
expm1@@GLIBC_2.2.5                                /usr/lib/gcc/x86_64-linux-gnu/4.8/../../../x86_64-linux-gnu/libm.so
expm1@GLIBC_2.2.5                                 /usr/lib/gcc/x86_64-linux-gnu/4.8/../../../x86_64-linux-gnu/libm.so
expm1f                                            /usr/lib/gcc/x86_64-linux-gnu/4.8/../../../x86_64-linux-gnu/libm.so
expm1f@@GLIBC_2.2.5                               /usr/lib/gcc/x86_64-linux-gnu/4.8/../../../x86_64-linux-gnu/libm.so
expm1f@GLIBC_2.2.5                                /usr/lib/gcc/x86_64-linux-gnu/4.8/../../../x86_64-linux-gnu/libm.so
expm1l                                            /usr/lib/gcc/x86_64-linux-gnu/4.8/../../../x86_64-linux-gnu/libm.so
expm1l@@GLIBC_2.2.5                               /usr/lib/gcc/x86_64-linux-gnu/4.8/../../../x86_64-linux-gnu/libm.so
expm1l@GLIBC_2.2.5                                /usr/lib/gcc/x86_64-linux-gnu/4.8/../../../x86_64-linux-gnu/libm.so
fabs                                              /usr/lib/gcc/x86_64-linux-gnu/4.8/../../../x86_64-linux-gnu/libm.so
fabs@@GLIBC_2.2.5                                 /usr/lib/gcc/x86_64-linux-gnu/4.8/../../../x86_64-linux-gnu/libm.so
fabs@GLIBC_2.2.5                                  /usr/lib/gcc/x86_64-linux-gnu/4.8/../../../x86_64-linux-gnu/libm.so
fabsf                                             /usr/lib/gcc/x86_64-linux-gnu/4.8/../../../x86_64-linux-gnu/libm.so
fabsf@@GLIBC_2.2.5                                /usr/lib/gcc/x86_64-linux-gnu/4.8/../../../x86_64-linux-gnu/libm.so
fabsf@GLIBC_2.2.5                                 /usr/lib/gcc/x86_64-linux-gnu/4.8/../../../x86_64-linux-gnu/libm.so
fabsl                                             /usr/lib/gcc/x86_64-linux-gnu/4.8/../../../x86_64-linux-gnu/libm.so
fabsl@@GLIBC_2.2.5                                /usr/lib/gcc/x86_64-linux-gnu/4.8/../../../x86_64-linux-gnu/libm.so
fabsl@GLIBC_2.2.5                                 /usr/lib/gcc/x86_64-linux-gnu/4.8/../../../x86_64-linux-gnu/libm.so
fchdir                                            /lib/x86_64-linux-gnu/libc.so.6
fchdir@@GLIBC_2.2.5                               /lib/x86_64-linux-gnu/libc.so.6
fchdir@GLIBC_2.2.5                                /lib/x86_64-linux-gnu/libc.so.6
fchmod                                            /lib/x86_64-linux-gnu/libc.so.6
fchmod@@GLIBC_2.2.5                               /lib/x86_64-linux-gnu/libc.so.6
fchmod@GLIBC_2.2.5                                /lib/x86_64-linux-gnu/libc.so.6
fchown                                            /lib/x86_64-linux-gnu/libc.so.6
fchown@@GLIBC_2.2.5                               /lib/x86_64-linux-gnu/libc.so.6
fchown@GLIBC_2.2.5                                /lib/x86_64-linux-gnu/libc.so.6
fcloseall                                         /lib/x86_64-linux-gnu/libc.so.6
fcloseall@@GLIBC_2.2.5                            /lib/x86_64-linux-gnu/libc.so.6
fcloseall@GLIBC_2.2.5                             /lib/x86_64-linux-gnu/libc.so.6
fcntl                                             /lib/x86_64-linux-gnu/libc.so.6
                                                  build/modsocket.o
fcntl@@GLIBC_2.2.5                                /lib/x86_64-linux-gnu/libc.so.6
fcntl@GLIBC_2.2.5                                 /lib/x86_64-linux-gnu/libc.so.6
                                                  /usr/lib/gcc/x86_64-linux-gnu/4.8/../../../x86_64-linux-gnu/libreadline.so
fdim                                              /usr/lib/gcc/x86_64-linux-gnu/4.8/../../../x86_64-linux-gnu/libm.so
fdim@@GLIBC_2.2.5                                 /usr/lib/gcc/x86_64-linux-gnu/4.8/../../../x86_64-linux-gnu/libm.so
fdim@GLIBC_2.2.5                                  /usr/lib/gcc/x86_64-linux-gnu/4.8/../../../x86_64-linux-gnu/libm.so
fdimf                                             /usr/lib/gcc/x86_64-linux-gnu/4.8/../../../x86_64-linux-gnu/libm.so
fdimf@@GLIBC_2.2.5                                /usr/lib/gcc/x86_64-linux-gnu/4.8/../../../x86_64-linux-gnu/libm.so
fdimf@GLIBC_2.2.5                                 /usr/lib/gcc/x86_64-linux-gnu/4.8/../../../x86_64-linux-gnu/libm.so
fdiml                                             /usr/lib/gcc/x86_64-linux-gnu/4.8/../../../x86_64-linux-gnu/libm.so
fdiml@@GLIBC_2.2.5                                /usr/lib/gcc/x86_64-linux-gnu/4.8/../../../x86_64-linux-gnu/libm.so
fdiml@GLIBC_2.2.5                                 /usr/lib/gcc/x86_64-linux-gnu/4.8/../../../x86_64-linux-gnu/libm.so
fdopendir                                         /lib/x86_64-linux-gnu/libc.so.6
fdopendir@@GLIBC_2.4                              /lib/x86_64-linux-gnu/libc.so.6
fdopendir@GLIBC_2.4                               /lib/x86_64-linux-gnu/libc.so.6
feof                                              /lib/x86_64-linux-gnu/libc.so.6
feof@@GLIBC_2.2.5                                 /lib/x86_64-linux-gnu/libc.so.6
feof@GLIBC_2.2.5                                  /lib/x86_64-linux-gnu/libc.so.6
ferror                                            /lib/x86_64-linux-gnu/libc.so.6
ferror@@GLIBC_2.2.5                               /lib/x86_64-linux-gnu/libc.so.6
ferror@GLIBC_2.2.5                                /lib/x86_64-linux-gnu/libc.so.6
ffi_call                                          /usr/lib/gcc/x86_64-linux-gnu/4.8/../../../x86_64-linux-gnu/libffi.so
                                                  build/modffi.o
ffi_closure_alloc                                 /usr/lib/gcc/x86_64-linux-gnu/4.8/../../../x86_64-linux-gnu/libffi.so
                                                  build/modffi.o
ffi_prep_cif                                      /usr/lib/gcc/x86_64-linux-gnu/4.8/../../../x86_64-linux-gnu/libffi.so
                                                  build/modffi.o
ffi_prep_closure_loc                              /usr/lib/gcc/x86_64-linux-gnu/4.8/../../../x86_64-linux-gnu/libffi.so
                                                  build/modffi.o
ffi_type_double                                   /usr/lib/gcc/x86_64-linux-gnu/4.8/../../../x86_64-linux-gnu/libffi.so
                                                  build/modffi.o
ffi_type_float                                    /usr/lib/gcc/x86_64-linux-gnu/4.8/../../../x86_64-linux-gnu/libffi.so
                                                  build/modffi.o
ffi_type_pointer                                  /usr/lib/gcc/x86_64-linux-gnu/4.8/../../../x86_64-linux-gnu/libffi.so
                                                  build/modffi.o
ffi_type_sint16                                   /usr/lib/gcc/x86_64-linux-gnu/4.8/../../../x86_64-linux-gnu/libffi.so
                                                  build/modffi.o
ffi_type_sint32                                   /usr/lib/gcc/x86_64-linux-gnu/4.8/../../../x86_64-linux-gnu/libffi.so
                                                  build/modffi.o
ffi_type_sint64                                   /usr/lib/gcc/x86_64-linux-gnu/4.8/../../../x86_64-linux-gnu/libffi.so
                                                  build/modffi.o
ffi_type_sint8                                    /usr/lib/gcc/x86_64-linux-gnu/4.8/../../../x86_64-linux-gnu/libffi.so
                                                  build/modffi.o
ffi_type_uint16                                   /usr/lib/gcc/x86_64-linux-gnu/4.8/../../../x86_64-linux-gnu/libffi.so
                                                  build/modffi.o
ffi_type_uint32                                   /usr/lib/gcc/x86_64-linux-gnu/4.8/../../../x86_64-linux-gnu/libffi.so
                                                  build/modffi.o
ffi_type_uint64                                   /usr/lib/gcc/x86_64-linux-gnu/4.8/../../../x86_64-linux-gnu/libffi.so
                                                  build/modffi.o
ffi_type_uint8                                    /usr/lib/gcc/x86_64-linux-gnu/4.8/../../../x86_64-linux-gnu/libffi.so
                                                  build/modffi.o
ffi_type_void                                     /usr/lib/gcc/x86_64-linux-gnu/4.8/../../../x86_64-linux-gnu/libffi.so
                                                  build/modffi.o
ffimod_addr_obj                                   build/modffi.o
ffimod_func_obj                                   build/modffi.o
ffimod_var_obj                                    build/modffi.o
ffivar_get_obj                                    build/modffi.o
ffivar_set_obj                                    build/modffi.o
fflush                                            /lib/x86_64-linux-gnu/libc.so.6
fflush@@GLIBC_2.2.5                               /lib/x86_64-linux-gnu/libc.so.6
fflush@GLIBC_2.2.5                                /lib/x86_64-linux-gnu/libc.so.6
                                                  /usr/lib/gcc/x86_64-linux-gnu/4.8/../../../x86_64-linux-gnu/libreadline.so
ffsl                                              /lib/x86_64-linux-gnu/libc.so.6
ffsl@@GLIBC_2.2.5                                 /lib/x86_64-linux-gnu/libc.so.6
ffsl@GLIBC_2.2.5                                  /lib/x86_64-linux-gnu/libc.so.6
fgetc                                             /lib/x86_64-linux-gnu/libc.so.6
fgetc@@GLIBC_2.2.5                                /lib/x86_64-linux-gnu/libc.so.6
fgetc@GLIBC_2.2.5                                 /lib/x86_64-linux-gnu/libc.so.6
fgetc_unlocked                                    /lib/x86_64-linux-gnu/libc.so.6
fgetc_unlocked@@GLIBC_2.2.5                       /lib/x86_64-linux-gnu/libc.so.6
fgetc_unlocked@GLIBC_2.2.5                        /lib/x86_64-linux-gnu/libc.so.6
fgetgrent_r                                       /lib/x86_64-linux-gnu/libc.so.6
fgetgrent_r@@GLIBC_2.2.5                          /lib/x86_64-linux-gnu/libc.so.6
fgetgrent_r@GLIBC_2.2.5                           /lib/x86_64-linux-gnu/libc.so.6
fgetpwent_r                                       /lib/x86_64-linux-gnu/libc.so.6
fgetpwent_r@@GLIBC_2.2.5                          /lib/x86_64-linux-gnu/libc.so.6
fgetpwent_r@GLIBC_2.2.5                           /lib/x86_64-linux-gnu/libc.so.6
fgets                                             /lib/x86_64-linux-gnu/libc.so.6
fgets@@GLIBC_2.2.5                                /lib/x86_64-linux-gnu/libc.so.6
fgets@GLIBC_2.2.5                                 /lib/x86_64-linux-gnu/libc.so.6
fgetsgent_r                                       /lib/x86_64-linux-gnu/libc.so.6
fgetsgent_r@@GLIBC_2.10                           /lib/x86_64-linux-gnu/libc.so.6
fgetsgent_r@GLIBC_2.10                            /lib/x86_64-linux-gnu/libc.so.6
fgetspent_r                                       /lib/x86_64-linux-gnu/libc.so.6
fgetspent_r@@GLIBC_2.2.5                          /lib/x86_64-linux-gnu/libc.so.6
fgetspent_r@GLIBC_2.2.5                           /lib/x86_64-linux-gnu/libc.so.6
fgetwc                                            /lib/x86_64-linux-gnu/libc.so.6
fgetwc@@GLIBC_2.2.5                               /lib/x86_64-linux-gnu/libc.so.6
fgetwc@GLIBC_2.2.5                                /lib/x86_64-linux-gnu/libc.so.6
fgetwc_unlocked                                   /lib/x86_64-linux-gnu/libc.so.6
fgetwc_unlocked@@GLIBC_2.2.5                      /lib/x86_64-linux-gnu/libc.so.6
fgetwc_unlocked@GLIBC_2.2.5                       /lib/x86_64-linux-gnu/libc.so.6
fileno_unlocked                                   /lib/x86_64-linux-gnu/libc.so.6
fileno_unlocked@@GLIBC_2.2.5                      /lib/x86_64-linux-gnu/libc.so.6
fileno_unlocked@GLIBC_2.2.5                       /lib/x86_64-linux-gnu/libc.so.6
finite                                            /usr/lib/gcc/x86_64-linux-gnu/4.8/../../../x86_64-linux-gnu/libm.so
finite@@GLIBC_2.2.5                               /usr/lib/gcc/x86_64-linux-gnu/4.8/../../../x86_64-linux-gnu/libm.so
                                                  /lib/x86_64-linux-gnu/libc.so.6
finite@GLIBC_2.2.5                                /usr/lib/gcc/x86_64-linux-gnu/4.8/../../../x86_64-linux-gnu/libm.so
finitef                                           /usr/lib/gcc/x86_64-linux-gnu/4.8/../../../x86_64-linux-gnu/libm.so
finitef@@GLIBC_2.2.5                              /usr/lib/gcc/x86_64-linux-gnu/4.8/../../../x86_64-linux-gnu/libm.so
                                                  /lib/x86_64-linux-gnu/libc.so.6
finitef@GLIBC_2.2.5                               /usr/lib/gcc/x86_64-linux-gnu/4.8/../../../x86_64-linux-gnu/libm.so
finitel                                           /usr/lib/gcc/x86_64-linux-gnu/4.8/../../../x86_64-linux-gnu/libm.so
finitel@@GLIBC_2.2.5                              /usr/lib/gcc/x86_64-linux-gnu/4.8/../../../x86_64-linux-gnu/libm.so
                                                  /lib/x86_64-linux-gnu/libc.so.6
finitel@GLIBC_2.2.5                               /usr/lib/gcc/x86_64-linux-gnu/4.8/../../../x86_64-linux-gnu/libm.so
flock                                             /lib/x86_64-linux-gnu/libc.so.6
flock@@GLIBC_2.2.5                                /lib/x86_64-linux-gnu/libc.so.6
flock@GLIBC_2.2.5                                 /lib/x86_64-linux-gnu/libc.so.6
flockfile                                         /lib/x86_64-linux-gnu/libc.so.6
flockfile@@GLIBC_2.2.5                            /lib/x86_64-linux-gnu/libc.so.6
flockfile@GLIBC_2.2.5                             /lib/x86_64-linux-gnu/libc.so.6
floor                                             /usr/lib/gcc/x86_64-linux-gnu/4.8/../../../x86_64-linux-gnu/libm.so
                                                  build/py/modmath.o
                                                  build/py/objfloat.o
floor@@GLIBC_2.2.5                                /usr/lib/gcc/x86_64-linux-gnu/4.8/../../../x86_64-linux-gnu/libm.so
floor@GLIBC_2.2.5                                 /usr/lib/gcc/x86_64-linux-gnu/4.8/../../../x86_64-linux-gnu/libm.so
floorf                                            /usr/lib/gcc/x86_64-linux-gnu/4.8/../../../x86_64-linux-gnu/libm.so
floorf@@GLIBC_2.2.5                               /usr/lib/gcc/x86_64-linux-gnu/4.8/../../../x86_64-linux-gnu/libm.so
floorf@GLIBC_2.2.5                                /usr/lib/gcc/x86_64-linux-gnu/4.8/../../../x86_64-linux-gnu/libm.so
floorl                                            /usr/lib/gcc/x86_64-linux-gnu/4.8/../../../x86_64-linux-gnu/libm.so
floorl@@GLIBC_2.2.5                               /usr/lib/gcc/x86_64-linux-gnu/4.8/../../../x86_64-linux-gnu/libm.so
floorl@GLIBC_2.2.5                                /usr/lib/gcc/x86_64-linux-gnu/4.8/../../../x86_64-linux-gnu/libm.so
fma                                               /usr/lib/gcc/x86_64-linux-gnu/4.8/../../../x86_64-linux-gnu/libm.so
fma@@GLIBC_2.2.5                                  /usr/lib/gcc/x86_64-linux-gnu/4.8/../../../x86_64-linux-gnu/libm.so
fma@GLIBC_2.2.5                                   /usr/lib/gcc/x86_64-linux-gnu/4.8/../../../x86_64-linux-gnu/libm.so
fmaf                                              /usr/lib/gcc/x86_64-linux-gnu/4.8/../../../x86_64-linux-gnu/libm.so
fmaf@@GLIBC_2.2.5                                 /usr/lib/gcc/x86_64-linux-gnu/4.8/../../../x86_64-linux-gnu/libm.so
fmaf@GLIBC_2.2.5                                  /usr/lib/gcc/x86_64-linux-gnu/4.8/../../../x86_64-linux-gnu/libm.so
fmal                                              /usr/lib/gcc/x86_64-linux-gnu/4.8/../../../x86_64-linux-gnu/libm.so
fmal@@GLIBC_2.2.5                                 /usr/lib/gcc/x86_64-linux-gnu/4.8/../../../x86_64-linux-gnu/libm.so
fmal@GLIBC_2.2.5                                  /usr/lib/gcc/x86_64-linux-gnu/4.8/../../../x86_64-linux-gnu/libm.so
fmax                                              /usr/lib/gcc/x86_64-linux-gnu/4.8/../../../x86_64-linux-gnu/libm.so
fmax@@GLIBC_2.2.5                                 /usr/lib/gcc/x86_64-linux-gnu/4.8/../../../x86_64-linux-gnu/libm.so
fmax@GLIBC_2.2.5                                  /usr/lib/gcc/x86_64-linux-gnu/4.8/../../../x86_64-linux-gnu/libm.so
fmaxf                                             /usr/lib/gcc/x86_64-linux-gnu/4.8/../../../x86_64-linux-gnu/libm.so
fmaxf@@GLIBC_2.2.5                                /usr/lib/gcc/x86_64-linux-gnu/4.8/../../../x86_64-linux-gnu/libm.so
fmaxf@GLIBC_2.2.5                                 /usr/lib/gcc/x86_64-linux-gnu/4.8/../../../x86_64-linux-gnu/libm.so
fmaxl                                             /usr/lib/gcc/x86_64-linux-gnu/4.8/../../../x86_64-linux-gnu/libm.so
fmaxl@@GLIBC_2.2.5                                /usr/lib/gcc/x86_64-linux-gnu/4.8/../../../x86_64-linux-gnu/libm.so
fmaxl@GLIBC_2.2.5                                 /usr/lib/gcc/x86_64-linux-gnu/4.8/../../../x86_64-linux-gnu/libm.so
fmin                                              /usr/lib/gcc/x86_64-linux-gnu/4.8/../../../x86_64-linux-gnu/libm.so
fmin@@GLIBC_2.2.5                                 /usr/lib/gcc/x86_64-linux-gnu/4.8/../../../x86_64-linux-gnu/libm.so
fmin@GLIBC_2.2.5                                  /usr/lib/gcc/x86_64-linux-gnu/4.8/../../../x86_64-linux-gnu/libm.so
fminf                                             /usr/lib/gcc/x86_64-linux-gnu/4.8/../../../x86_64-linux-gnu/libm.so
fminf@@GLIBC_2.2.5                                /usr/lib/gcc/x86_64-linux-gnu/4.8/../../../x86_64-linux-gnu/libm.so
fminf@GLIBC_2.2.5                                 /usr/lib/gcc/x86_64-linux-gnu/4.8/../../../x86_64-linux-gnu/libm.so
fminl                                             /usr/lib/gcc/x86_64-linux-gnu/4.8/../../../x86_64-linux-gnu/libm.so
fminl@@GLIBC_2.2.5                                /usr/lib/gcc/x86_64-linux-gnu/4.8/../../../x86_64-linux-gnu/libm.so
fminl@GLIBC_2.2.5                                 /usr/lib/gcc/x86_64-linux-gnu/4.8/../../../x86_64-linux-gnu/libm.so
fmod                                              /usr/lib/gcc/x86_64-linux-gnu/4.8/../../../x86_64-linux-gnu/libm.so
                                                  build/py/modmath.o
                                                  build/py/objfloat.o
fmod@@GLIBC_2.2.5                                 /usr/lib/gcc/x86_64-linux-gnu/4.8/../../../x86_64-linux-gnu/libm.so
fmod@GLIBC_2.2.5                                  /usr/lib/gcc/x86_64-linux-gnu/4.8/../../../x86_64-linux-gnu/libm.so
fmodf                                             /usr/lib/gcc/x86_64-linux-gnu/4.8/../../../x86_64-linux-gnu/libm.so
fmodf@@GLIBC_2.2.5                                /usr/lib/gcc/x86_64-linux-gnu/4.8/../../../x86_64-linux-gnu/libm.so
fmodf@GLIBC_2.2.5                                 /usr/lib/gcc/x86_64-linux-gnu/4.8/../../../x86_64-linux-gnu/libm.so
fmodl                                             /usr/lib/gcc/x86_64-linux-gnu/4.8/../../../x86_64-linux-gnu/libm.so
fmodl@@GLIBC_2.2.5                                /usr/lib/gcc/x86_64-linux-gnu/4.8/../../../x86_64-linux-gnu/libm.so
fmodl@GLIBC_2.2.5                                 /usr/lib/gcc/x86_64-linux-gnu/4.8/../../../x86_64-linux-gnu/libm.so
fopen64                                           /lib/x86_64-linux-gnu/libc.so.6
fopen64@@GLIBC_2.2.5                              /lib/x86_64-linux-gnu/libc.so.6
fopen64@GLIBC_2.2.5                               /lib/x86_64-linux-gnu/libc.so.6
fork                                              /lib/x86_64-linux-gnu/libc.so.6
fork@@GLIBC_2.2.5                                 /lib/x86_64-linux-gnu/libc.so.6
fork@GLIBC_2.2.5                                  /lib/x86_64-linux-gnu/libc.so.6
fpathconf                                         /lib/x86_64-linux-gnu/libc.so.6
fpathconf@@GLIBC_2.2.5                            /lib/x86_64-linux-gnu/libc.so.6
fpathconf@GLIBC_2.2.5                             /lib/x86_64-linux-gnu/libc.so.6
fputs                                             /lib/x86_64-linux-gnu/libc.so.6
fputs@@GLIBC_2.2.5                                /lib/x86_64-linux-gnu/libc.so.6
fputs@GLIBC_2.2.5                                 /lib/x86_64-linux-gnu/libc.so.6
                                                  /usr/lib/gcc/x86_64-linux-gnu/4.8/../../../x86_64-linux-gnu/libm.so
                                                  /usr/lib/gcc/x86_64-linux-gnu/4.8/../../../x86_64-linux-gnu/libreadline.so
fread                                             /lib/x86_64-linux-gnu/libc.so.6
fread@@GLIBC_2.2.5                                /lib/x86_64-linux-gnu/libc.so.6
fread@GLIBC_2.2.5                                 /lib/x86_64-linux-gnu/libc.so.6
                                                  //lib/x86_64-linux-gnu/libtinfo.so.5
free                                              /lib/x86_64-linux-gnu/libc.so.6
                                                  build/input.o
                                                  build/main.o
free@@GLIBC_2.2.5                                 /lib/x86_64-linux-gnu/libc.so.6
                                                  /lib/x86_64-linux-gnu/ld-linux-x86-64.so.2
free@GLIBC_2.2.5                                  /lib/x86_64-linux-gnu/libc.so.6
                                                  //lib/x86_64-linux-gnu/libtinfo.so.5
                                                  /usr/lib/gcc/x86_64-linux-gnu/4.8/../../../x86_64-linux-gnu/libffi.so
                                                  /usr/lib/gcc/x86_64-linux-gnu/4.8/../../../x86_64-linux-gnu/libdl.so
                                                  /usr/lib/gcc/x86_64-linux-gnu/4.8/../../../x86_64-linux-gnu/libreadline.so
freeaddrinfo                                      /lib/x86_64-linux-gnu/libc.so.6
                                                  build/modsocket.o
freeaddrinfo@@GLIBC_2.2.5                         /lib/x86_64-linux-gnu/libc.so.6
freeaddrinfo@GLIBC_2.2.5                          /lib/x86_64-linux-gnu/libc.so.6
freelocale                                        /lib/x86_64-linux-gnu/libc.so.6
freelocale@@GLIBC_2.3                             /lib/x86_64-linux-gnu/libc.so.6
freelocale@GLIBC_2.3                              /lib/x86_64-linux-gnu/libc.so.6
frexp                                             /usr/lib/gcc/x86_64-linux-gnu/4.8/../../../x86_64-linux-gnu/libm.so
                                                  build/py/modmath.o
frexp@@GLIBC_2.2.5                                /usr/lib/gcc/x86_64-linux-gnu/4.8/../../../x86_64-linux-gnu/libm.so
                                                  /lib/x86_64-linux-gnu/libc.so.6
frexp@GLIBC_2.2.5                                 /usr/lib/gcc/x86_64-linux-gnu/4.8/../../../x86_64-linux-gnu/libm.so
frexpf                                            /usr/lib/gcc/x86_64-linux-gnu/4.8/../../../x86_64-linux-gnu/libm.so
frexpf@@GLIBC_2.2.5                               /usr/lib/gcc/x86_64-linux-gnu/4.8/../../../x86_64-linux-gnu/libm.so
                                                  /lib/x86_64-linux-gnu/libc.so.6
frexpf@GLIBC_2.2.5                                /usr/lib/gcc/x86_64-linux-gnu/4.8/../../../x86_64-linux-gnu/libm.so
frexpl                                            /usr/lib/gcc/x86_64-linux-gnu/4.8/../../../x86_64-linux-gnu/libm.so
frexpl@@GLIBC_2.2.5                               /usr/lib/gcc/x86_64-linux-gnu/4.8/../../../x86_64-linux-gnu/libm.so
                                                  /lib/x86_64-linux-gnu/libc.so.6
frexpl@GLIBC_2.2.5                                /usr/lib/gcc/x86_64-linux-gnu/4.8/../../../x86_64-linux-gnu/libm.so
fseeko64                                          /lib/x86_64-linux-gnu/libc.so.6
fseeko64@@GLIBC_2.2.5                             /lib/x86_64-linux-gnu/libc.so.6
fseeko64@GLIBC_2.2.5                              /lib/x86_64-linux-gnu/libc.so.6
fstatfs                                           /lib/x86_64-linux-gnu/libc.so.6
fstatfs64                                         /lib/x86_64-linux-gnu/libc.so.6
fstatfs64@@GLIBC_2.2.5                            /lib/x86_64-linux-gnu/libc.so.6
fstatfs64@GLIBC_2.2.5                             /lib/x86_64-linux-gnu/libc.so.6
fstatfs@@GLIBC_2.2.5                              /lib/x86_64-linux-gnu/libc.so.6
fstatfs@GLIBC_2.2.5                               /lib/x86_64-linux-gnu/libc.so.6
fstatvfs64                                        /lib/x86_64-linux-gnu/libc.so.6
fstatvfs64@@GLIBC_2.2.5                           /lib/x86_64-linux-gnu/libc.so.6
fstatvfs64@GLIBC_2.2.5                            /lib/x86_64-linux-gnu/libc.so.6
fsync                                             /lib/x86_64-linux-gnu/libc.so.6
                                                  build/file.o
fsync@@GLIBC_2.2.5                                /lib/x86_64-linux-gnu/libc.so.6
fsync@GLIBC_2.2.5                                 /lib/x86_64-linux-gnu/libc.so.6
ftell                                             /lib/x86_64-linux-gnu/libc.so.6
ftell@@GLIBC_2.2.5                                /lib/x86_64-linux-gnu/libc.so.6
ftell@GLIBC_2.2.5                                 /lib/x86_64-linux-gnu/libc.so.6
ftello64                                          /lib/x86_64-linux-gnu/libc.so.6
ftello64@@GLIBC_2.2.5                             /lib/x86_64-linux-gnu/libc.so.6
ftello64@GLIBC_2.2.5                              /lib/x86_64-linux-gnu/libc.so.6
ftruncate                                         /lib/x86_64-linux-gnu/libc.so.6
ftruncate64                                       /lib/x86_64-linux-gnu/libc.so.6
ftruncate64@@GLIBC_2.2.5                          /lib/x86_64-linux-gnu/libc.so.6
ftruncate64@GLIBC_2.2.5                           /lib/x86_64-linux-gnu/libc.so.6
ftruncate@@GLIBC_2.2.5                            /lib/x86_64-linux-gnu/libc.so.6
ftruncate@GLIBC_2.2.5                             /lib/x86_64-linux-gnu/libc.so.6
                                                  /usr/lib/gcc/x86_64-linux-gnu/4.8/../../../x86_64-linux-gnu/libffi.so
ftrylockfile                                      /lib/x86_64-linux-gnu/libc.so.6
ftrylockfile@@GLIBC_2.2.5                         /lib/x86_64-linux-gnu/libc.so.6
ftrylockfile@GLIBC_2.2.5                          /lib/x86_64-linux-gnu/libc.so.6
ftw64                                             /lib/x86_64-linux-gnu/libc.so.6
ftw64@@GLIBC_2.2.5                                /lib/x86_64-linux-gnu/libc.so.6
ftw64@GLIBC_2.2.5                                 /lib/x86_64-linux-gnu/libc.so.6
funlockfile                                       /lib/x86_64-linux-gnu/libc.so.6
funlockfile@@GLIBC_2.2.5                          /lib/x86_64-linux-gnu/libc.so.6
funlockfile@GLIBC_2.2.5                           /lib/x86_64-linux-gnu/libc.so.6
futimes                                           /lib/x86_64-linux-gnu/libc.so.6
futimes@@GLIBC_2.3                                /lib/x86_64-linux-gnu/libc.so.6
futimes@GLIBC_2.3                                 /lib/x86_64-linux-gnu/libc.so.6
fwprintf                                          /lib/x86_64-linux-gnu/libc.so.6
fwprintf@@GLIBC_2.2.5                             /lib/x86_64-linux-gnu/libc.so.6
fwprintf@GLIBC_2.2.5                              /lib/x86_64-linux-gnu/libc.so.6
fwrite                                            /lib/x86_64-linux-gnu/libc.so.6
fwrite@@GLIBC_2.2.5                               /lib/x86_64-linux-gnu/libc.so.6
fwrite@GLIBC_2.2.5                                /lib/x86_64-linux-gnu/libc.so.6
                                                  //lib/x86_64-linux-gnu/libtinfo.so.5
                                                  /usr/lib/gcc/x86_64-linux-gnu/4.8/../../../x86_64-linux-gnu/libm.so
                                                  /usr/lib/gcc/x86_64-linux-gnu/4.8/../../../x86_64-linux-gnu/libreadline.so
gamma                                             /usr/lib/gcc/x86_64-linux-gnu/4.8/../../../x86_64-linux-gnu/libm.so
gamma@@GLIBC_2.2.5                                /usr/lib/gcc/x86_64-linux-gnu/4.8/../../../x86_64-linux-gnu/libm.so
gamma@GLIBC_2.2.5                                 /usr/lib/gcc/x86_64-linux-gnu/4.8/../../../x86_64-linux-gnu/libm.so
gammaf                                            /usr/lib/gcc/x86_64-linux-gnu/4.8/../../../x86_64-linux-gnu/libm.so
gammaf@@GLIBC_2.2.5                               /usr/lib/gcc/x86_64-linux-gnu/4.8/../../../x86_64-linux-gnu/libm.so
gammaf@GLIBC_2.2.5                                /usr/lib/gcc/x86_64-linux-gnu/4.8/../../../x86_64-linux-gnu/libm.so
gammal                                            /usr/lib/gcc/x86_64-linux-gnu/4.8/../../../x86_64-linux-gnu/libm.so
gammal@@GLIBC_2.2.5                               /usr/lib/gcc/x86_64-linux-gnu/4.8/../../../x86_64-linux-gnu/libm.so
gammal@GLIBC_2.2.5                                /usr/lib/gcc/x86_64-linux-gnu/4.8/../../../x86_64-linux-gnu/libm.so
gc_alloc                                          build/py/gc.o
                                                  build/py/malloc.o
gc_collect                                        build/gccollect.o
                                                  build/py/modgc.o
                                                  build/py/gc.o
gc_collect_end                                    build/py/gc.o
                                                  build/gccollect.o
gc_collect_obj                                    build/py/modgc.o
gc_collect_root                                   build/py/gc.o
                                                  build/alloc.o
                                                  build/gccollect.o
gc_collect_start                                  build/py/gc.o
                                                  build/gccollect.o
gc_disable_obj                                    build/py/modgc.o
gc_dump_alloc_table                               build/py/gc.o
                                                  build/py/modmicropython.o
gc_dump_info                                      build/py/gc.o
                                                  build/py/modmicropython.o
gc_enable_obj                                     build/py/modgc.o
gc_free                                           build/py/gc.o
                                                  build/py/malloc.o
gc_info                                           build/py/gc.o
                                                  build/py/modgc.o
gc_init                                           build/py/gc.o
                                                  build/main.o
gc_is_locked                                      build/py/gc.o
                                                  build/py/runtime.o
gc_isenabled_obj                                  build/py/modgc.o
gc_lock                                           build/py/gc.o
gc_mem_alloc_obj                                  build/py/modgc.o
gc_mem_free_obj                                   build/py/modgc.o
gc_nbytes                                         build/py/gc.o
                                                  build/py/qstr.o
gc_realloc                                        build/py/gc.o
                                                  build/py/malloc.o
gc_unlock                                         build/py/gc.o
get_avphys_pages                                  /lib/x86_64-linux-gnu/libc.so.6
get_avphys_pages@@GLIBC_2.2.5                     /lib/x86_64-linux-gnu/libc.so.6
get_avphys_pages@GLIBC_2.2.5                      /lib/x86_64-linux-gnu/libc.so.6
get_nprocs                                        /lib/x86_64-linux-gnu/libc.so.6
get_nprocs@@GLIBC_2.2.5                           /lib/x86_64-linux-gnu/libc.so.6
get_nprocs@GLIBC_2.2.5                            /lib/x86_64-linux-gnu/libc.so.6
get_nprocs_conf                                   /lib/x86_64-linux-gnu/libc.so.6
get_nprocs_conf@@GLIBC_2.2.5                      /lib/x86_64-linux-gnu/libc.so.6
get_nprocs_conf@GLIBC_2.2.5                       /lib/x86_64-linux-gnu/libc.so.6
get_phys_pages                                    /lib/x86_64-linux-gnu/libc.so.6
get_phys_pages@@GLIBC_2.2.5                       /lib/x86_64-linux-gnu/libc.so.6
get_phys_pages@GLIBC_2.2.5                        /lib/x86_64-linux-gnu/libc.so.6
getaddrinfo                                       /lib/x86_64-linux-gnu/libc.so.6
                                                  build/modsocket.o
getaddrinfo@@GLIBC_2.2.5                          /lib/x86_64-linux-gnu/libc.so.6
getaddrinfo@GLIBC_2.2.5                           /lib/x86_64-linux-gnu/libc.so.6
getauxval                                         /lib/x86_64-linux-gnu/libc.so.6
getauxval@@GLIBC_2.16                             /lib/x86_64-linux-gnu/libc.so.6
getauxval@GLIBC_2.16                              /lib/x86_64-linux-gnu/libc.so.6
getc                                              /lib/x86_64-linux-gnu/libc.so.6
getc@@GLIBC_2.2.5                                 /lib/x86_64-linux-gnu/libc.so.6
getc@GLIBC_2.2.5                                  /lib/x86_64-linux-gnu/libc.so.6
getc_unlocked                                     /lib/x86_64-linux-gnu/libc.so.6
getc_unlocked@@GLIBC_2.2.5                        /lib/x86_64-linux-gnu/libc.so.6
getc_unlocked@GLIBC_2.2.5                         /lib/x86_64-linux-gnu/libc.so.6
getcontext                                        /lib/x86_64-linux-gnu/libc.so.6
getcontext@@GLIBC_2.2.5                           /lib/x86_64-linux-gnu/libc.so.6
getcontext@GLIBC_2.2.5                            /lib/x86_64-linux-gnu/libc.so.6
getcwd                                            /lib/x86_64-linux-gnu/libc.so.6
getcwd@@GLIBC_2.2.5                               /lib/x86_64-linux-gnu/libc.so.6
getcwd@GLIBC_2.2.5                                /lib/x86_64-linux-gnu/libc.so.6
getdate_r                                         /lib/x86_64-linux-gnu/libc.so.6
getdate_r@@GLIBC_2.2.5                            /lib/x86_64-linux-gnu/libc.so.6
getdate_r@GLIBC_2.2.5                             /lib/x86_64-linux-gnu/libc.so.6
getdelim                                          /lib/x86_64-linux-gnu/libc.so.6
getdelim@@GLIBC_2.2.5                             /lib/x86_64-linux-gnu/libc.so.6
getdelim@GLIBC_2.2.5                              /lib/x86_64-linux-gnu/libc.so.6
getdirentries64                                   /lib/x86_64-linux-gnu/libc.so.6
getdirentries64@@GLIBC_2.2.5                      /lib/x86_64-linux-gnu/libc.so.6
getdirentries64@GLIBC_2.2.5                       /lib/x86_64-linux-gnu/libc.so.6
getdtablesize                                     /lib/x86_64-linux-gnu/libc.so.6
getdtablesize@@GLIBC_2.2.5                        /lib/x86_64-linux-gnu/libc.so.6
getdtablesize@GLIBC_2.2.5                         /lib/x86_64-linux-gnu/libc.so.6
getegid                                           /lib/x86_64-linux-gnu/libc.so.6
getegid@@GLIBC_2.2.5                              /lib/x86_64-linux-gnu/libc.so.6
getegid@GLIBC_2.2.5                               /lib/x86_64-linux-gnu/libc.so.6
getenv                                            /lib/x86_64-linux-gnu/libc.so.6
                                                  build/main.o
getenv@@GLIBC_2.2.5                               /lib/x86_64-linux-gnu/libc.so.6
getenv@GLIBC_2.2.5                                /lib/x86_64-linux-gnu/libc.so.6
                                                  //lib/x86_64-linux-gnu/libtinfo.so.5
                                                  /usr/lib/gcc/x86_64-linux-gnu/4.8/../../../x86_64-linux-gnu/libffi.so
                                                  /usr/lib/gcc/x86_64-linux-gnu/4.8/../../../x86_64-linux-gnu/libreadline.so
geteuid                                           /lib/x86_64-linux-gnu/libc.so.6
geteuid@@GLIBC_2.2.5                              /lib/x86_64-linux-gnu/libc.so.6
geteuid@GLIBC_2.2.5                               /lib/x86_64-linux-gnu/libc.so.6
getgid                                            /lib/x86_64-linux-gnu/libc.so.6
getgid@@GLIBC_2.2.5                               /lib/x86_64-linux-gnu/libc.so.6
getgid@GLIBC_2.2.5                                /lib/x86_64-linux-gnu/libc.so.6
getgroups                                         /lib/x86_64-linux-gnu/libc.so.6
getgroups@@GLIBC_2.2.5                            /lib/x86_64-linux-gnu/libc.so.6
getgroups@GLIBC_2.2.5                             /lib/x86_64-linux-gnu/libc.so.6
gethostname                                       /lib/x86_64-linux-gnu/libc.so.6
gethostname@@GLIBC_2.2.5                          /lib/x86_64-linux-gnu/libc.so.6
gethostname@GLIBC_2.2.5                           /lib/x86_64-linux-gnu/libc.so.6
getitimer                                         /lib/x86_64-linux-gnu/libc.so.6
getitimer@@GLIBC_2.2.5                            /lib/x86_64-linux-gnu/libc.so.6
getitimer@GLIBC_2.2.5                             /lib/x86_64-linux-gnu/libc.so.6
getline                                           /lib/x86_64-linux-gnu/libc.so.6
getline@@GLIBC_2.2.5                              /lib/x86_64-linux-gnu/libc.so.6
getline@GLIBC_2.2.5                               /lib/x86_64-linux-gnu/libc.so.6
getmntent_r                                       /lib/x86_64-linux-gnu/libc.so.6
getmntent_r@@GLIBC_2.2.5                          /lib/x86_64-linux-gnu/libc.so.6
getmntent_r@GLIBC_2.2.5                           /lib/x86_64-linux-gnu/libc.so.6
                                                  /usr/lib/gcc/x86_64-linux-gnu/4.8/../../../x86_64-linux-gnu/libffi.so
getnetgrent_r                                     /lib/x86_64-linux-gnu/libc.so.6
getnetgrent_r@@GLIBC_2.2.5                        /lib/x86_64-linux-gnu/libc.so.6
getnetgrent_r@GLIBC_2.2.5                         /lib/x86_64-linux-gnu/libc.so.6
getpagesize                                       /lib/x86_64-linux-gnu/libc.so.6
getpagesize@@GLIBC_2.2.5                          /lib/x86_64-linux-gnu/libc.so.6
getpagesize@GLIBC_2.2.5                           /lib/x86_64-linux-gnu/libc.so.6
getpeername                                       /lib/x86_64-linux-gnu/libc.so.6
getpeername@@GLIBC_2.2.5                          /lib/x86_64-linux-gnu/libc.so.6
getpeername@GLIBC_2.2.5                           /lib/x86_64-linux-gnu/libc.so.6
getpgid                                           /lib/x86_64-linux-gnu/libc.so.6
getpgid@@GLIBC_2.2.5                              /lib/x86_64-linux-gnu/libc.so.6
getpgid@GLIBC_2.2.5                               /lib/x86_64-linux-gnu/libc.so.6
getppid                                           /lib/x86_64-linux-gnu/libc.so.6
getppid@@GLIBC_2.2.5                              /lib/x86_64-linux-gnu/libc.so.6
getppid@GLIBC_2.2.5                               /lib/x86_64-linux-gnu/libc.so.6
getpt                                             /lib/x86_64-linux-gnu/libc.so.6
getpt@@GLIBC_2.2.5                                /lib/x86_64-linux-gnu/libc.so.6
getpt@GLIBC_2.2.5                                 /lib/x86_64-linux-gnu/libc.so.6
getpw                                             /lib/x86_64-linux-gnu/libc.so.6
getpw@@GLIBC_2.2.5                                /lib/x86_64-linux-gnu/libc.so.6
getpw@GLIBC_2.2.5                                 /lib/x86_64-linux-gnu/libc.so.6
getrlimit                                         /lib/x86_64-linux-gnu/libc.so.6
getrlimit64                                       /lib/x86_64-linux-gnu/libc.so.6
getrlimit64@@GLIBC_2.2.5                          /lib/x86_64-linux-gnu/libc.so.6
getrlimit64@GLIBC_2.2.5                           /lib/x86_64-linux-gnu/libc.so.6
getrlimit@@GLIBC_2.2.5                            /lib/x86_64-linux-gnu/libc.so.6
getrlimit@GLIBC_2.2.5                             /lib/x86_64-linux-gnu/libc.so.6
getrusage                                         /lib/x86_64-linux-gnu/libc.so.6
getrusage@@GLIBC_2.2.5                            /lib/x86_64-linux-gnu/libc.so.6
getrusage@GLIBC_2.2.5                             /lib/x86_64-linux-gnu/libc.so.6
gets                                              /lib/x86_64-linux-gnu/libc.so.6
gets@@GLIBC_2.2.5                                 /lib/x86_64-linux-gnu/libc.so.6
gets@GLIBC_2.2.5                                  /lib/x86_64-linux-gnu/libc.so.6
getsockname                                       /lib/x86_64-linux-gnu/libc.so.6
getsockname@@GLIBC_2.2.5                          /lib/x86_64-linux-gnu/libc.so.6
getsockname@GLIBC_2.2.5                           /lib/x86_64-linux-gnu/libc.so.6
getsockopt                                        /lib/x86_64-linux-gnu/libc.so.6
getsockopt@@GLIBC_2.2.5                           /lib/x86_64-linux-gnu/libc.so.6
getsockopt@GLIBC_2.2.5                            /lib/x86_64-linux-gnu/libc.so.6
gettext                                           /lib/x86_64-linux-gnu/libc.so.6
gettext@@GLIBC_2.2.5                              /lib/x86_64-linux-gnu/libc.so.6
gettext@GLIBC_2.2.5                               /lib/x86_64-linux-gnu/libc.so.6
gettimeofday                                      /lib/x86_64-linux-gnu/libc.so.6
                                                  build/modtime.o
gettimeofday@@GLIBC_2.2.5                         /lib/x86_64-linux-gnu/libc.so.6
gettimeofday@GLIBC_2.2.5                          /lib/x86_64-linux-gnu/libc.so.6
                                                  //lib/x86_64-linux-gnu/libtinfo.so.5
getuid                                            /lib/x86_64-linux-gnu/libc.so.6
getuid@@GLIBC_2.2.5                               /lib/x86_64-linux-gnu/libc.so.6
getuid@GLIBC_2.2.5                                /lib/x86_64-linux-gnu/libc.so.6
                                                  /usr/lib/gcc/x86_64-linux-gnu/4.8/../../../x86_64-linux-gnu/libreadline.so
getutent                                          /lib/x86_64-linux-gnu/libc.so.6
getutent@@GLIBC_2.2.5                             /lib/x86_64-linux-gnu/libc.so.6
getutent@GLIBC_2.2.5                              /lib/x86_64-linux-gnu/libc.so.6
getutent_r                                        /lib/x86_64-linux-gnu/libc.so.6
getutent_r@@GLIBC_2.2.5                           /lib/x86_64-linux-gnu/libc.so.6
getutent_r@GLIBC_2.2.5                            /lib/x86_64-linux-gnu/libc.so.6
getutid                                           /lib/x86_64-linux-gnu/libc.so.6
getutid@@GLIBC_2.2.5                              /lib/x86_64-linux-gnu/libc.so.6
getutid@GLIBC_2.2.5                               /lib/x86_64-linux-gnu/libc.so.6
getutid_r                                         /lib/x86_64-linux-gnu/libc.so.6
getutid_r@@GLIBC_2.2.5                            /lib/x86_64-linux-gnu/libc.so.6
getutid_r@GLIBC_2.2.5                             /lib/x86_64-linux-gnu/libc.so.6
getutline                                         /lib/x86_64-linux-gnu/libc.so.6
getutline@@GLIBC_2.2.5                            /lib/x86_64-linux-gnu/libc.so.6
getutline@GLIBC_2.2.5                             /lib/x86_64-linux-gnu/libc.so.6
getutline_r                                       /lib/x86_64-linux-gnu/libc.so.6
getutline_r@@GLIBC_2.2.5                          /lib/x86_64-linux-gnu/libc.so.6
getutline_r@GLIBC_2.2.5                           /lib/x86_64-linux-gnu/libc.so.6
getwc                                             /lib/x86_64-linux-gnu/libc.so.6
getwc@@GLIBC_2.2.5                                /lib/x86_64-linux-gnu/libc.so.6
getwc@GLIBC_2.2.5                                 /lib/x86_64-linux-gnu/libc.so.6
getwc_unlocked                                    /lib/x86_64-linux-gnu/libc.so.6
getwc_unlocked@@GLIBC_2.2.5                       /lib/x86_64-linux-gnu/libc.so.6
getwc_unlocked@GLIBC_2.2.5                        /lib/x86_64-linux-gnu/libc.so.6
glob64                                            /lib/x86_64-linux-gnu/libc.so.6
glob64@@GLIBC_2.2.5                               /lib/x86_64-linux-gnu/libc.so.6
glob64@GLIBC_2.2.5                                /lib/x86_64-linux-gnu/libc.so.6
glob_pattern_p                                    /lib/x86_64-linux-gnu/libc.so.6
glob_pattern_p@@GLIBC_2.2.5                       /lib/x86_64-linux-gnu/libc.so.6
glob_pattern_p@GLIBC_2.2.5                        /lib/x86_64-linux-gnu/libc.so.6
globfree64                                        /lib/x86_64-linux-gnu/libc.so.6
globfree64@@GLIBC_2.2.5                           /lib/x86_64-linux-gnu/libc.so.6
globfree64@GLIBC_2.2.5                            /lib/x86_64-linux-gnu/libc.so.6
gmtime_r                                          /lib/x86_64-linux-gnu/libc.so.6
gmtime_r@@GLIBC_2.2.5                             /lib/x86_64-linux-gnu/libc.so.6
gmtime_r@GLIBC_2.2.5                              /lib/x86_64-linux-gnu/libc.so.6
gnu_get_libc_release                              /lib/x86_64-linux-gnu/libc.so.6
gnu_get_libc_release@@GLIBC_2.2.5                 /lib/x86_64-linux-gnu/libc.so.6
gnu_get_libc_release@GLIBC_2.2.5                  /lib/x86_64-linux-gnu/libc.so.6
gnu_get_libc_version                              /lib/x86_64-linux-gnu/libc.so.6
gnu_get_libc_version@@GLIBC_2.2.5                 /lib/x86_64-linux-gnu/libc.so.6
gnu_get_libc_version@GLIBC_2.2.5                  /lib/x86_64-linux-gnu/libc.so.6
group_member                                      /lib/x86_64-linux-gnu/libc.so.6
group_member@@GLIBC_2.2.5                         /lib/x86_64-linux-gnu/libc.so.6
group_member@GLIBC_2.2.5                          /lib/x86_64-linux-gnu/libc.so.6
gsignal                                           /lib/x86_64-linux-gnu/libc.so.6
gsignal@@GLIBC_2.2.5                              /lib/x86_64-linux-gnu/libc.so.6
gsignal@GLIBC_2.2.5                               /lib/x86_64-linux-gnu/libc.so.6
hash_digest_obj                                   build/py/../extmod/moduhashlib.o
hash_hexdigest_obj                                build/py/../extmod/moduhashlib.o
hash_update_obj                                   build/py/../extmod/moduhashlib.o
hasmntopt                                         /lib/x86_64-linux-gnu/libc.so.6
hasmntopt@@GLIBC_2.2.5                            /lib/x86_64-linux-gnu/libc.so.6
hasmntopt@GLIBC_2.2.5                             /lib/x86_64-linux-gnu/libc.so.6
                                                  /usr/lib/gcc/x86_64-linux-gnu/4.8/../../../x86_64-linux-gnu/libffi.so
hdestroy                                          /lib/x86_64-linux-gnu/libc.so.6
hdestroy@@GLIBC_2.2.5                             /lib/x86_64-linux-gnu/libc.so.6
hdestroy@GLIBC_2.2.5                              /lib/x86_64-linux-gnu/libc.so.6
heap_size                                         build/main.o
hypot                                             /usr/lib/gcc/x86_64-linux-gnu/4.8/../../../x86_64-linux-gnu/libm.so
hypot@@GLIBC_2.2.5                                /usr/lib/gcc/x86_64-linux-gnu/4.8/../../../x86_64-linux-gnu/libm.so
hypot@GLIBC_2.2.5                                 /usr/lib/gcc/x86_64-linux-gnu/4.8/../../../x86_64-linux-gnu/libm.so
hypotf                                            /usr/lib/gcc/x86_64-linux-gnu/4.8/../../../x86_64-linux-gnu/libm.so
hypotf@@GLIBC_2.2.5                               /usr/lib/gcc/x86_64-linux-gnu/4.8/../../../x86_64-linux-gnu/libm.so
hypotf@GLIBC_2.2.5                                /usr/lib/gcc/x86_64-linux-gnu/4.8/../../../x86_64-linux-gnu/libm.so
hypotl                                            /usr/lib/gcc/x86_64-linux-gnu/4.8/../../../x86_64-linux-gnu/libm.so
hypotl@@GLIBC_2.2.5                               /usr/lib/gcc/x86_64-linux-gnu/4.8/../../../x86_64-linux-gnu/libm.so
hypotl@GLIBC_2.2.5                                /usr/lib/gcc/x86_64-linux-gnu/4.8/../../../x86_64-linux-gnu/libm.so
ilogb                                             /usr/lib/gcc/x86_64-linux-gnu/4.8/../../../x86_64-linux-gnu/libm.so
ilogb@@GLIBC_2.2.5                                /usr/lib/gcc/x86_64-linux-gnu/4.8/../../../x86_64-linux-gnu/libm.so
ilogb@GLIBC_2.2.5                                 /usr/lib/gcc/x86_64-linux-gnu/4.8/../../../x86_64-linux-gnu/libm.so
ilogbf                                            /usr/lib/gcc/x86_64-linux-gnu/4.8/../../../x86_64-linux-gnu/libm.so
ilogbf@@GLIBC_2.2.5                               /usr/lib/gcc/x86_64-linux-gnu/4.8/../../../x86_64-linux-gnu/libm.so
ilogbf@GLIBC_2.2.5                                /usr/lib/gcc/x86_64-linux-gnu/4.8/../../../x86_64-linux-gnu/libm.so
ilogbl                                            /usr/lib/gcc/x86_64-linux-gnu/4.8/../../../x86_64-linux-gnu/libm.so
ilogbl@@GLIBC_2.2.5                               /usr/lib/gcc/x86_64-linux-gnu/4.8/../../../x86_64-linux-gnu/libm.so
ilogbl@GLIBC_2.2.5                                /usr/lib/gcc/x86_64-linux-gnu/4.8/../../../x86_64-linux-gnu/libm.so
imaxabs                                           /lib/x86_64-linux-gnu/libc.so.6
imaxabs@@GLIBC_2.2.5                              /lib/x86_64-linux-gnu/libc.so.6
imaxabs@GLIBC_2.2.5                               /lib/x86_64-linux-gnu/libc.so.6
imaxdiv                                           /lib/x86_64-linux-gnu/libc.so.6
imaxdiv@@GLIBC_2.2.5                              /lib/x86_64-linux-gnu/libc.so.6
imaxdiv@GLIBC_2.2.5                               /lib/x86_64-linux-gnu/libc.so.6
index                                             /lib/x86_64-linux-gnu/libc.so.6
index@@GLIBC_2.2.5                                /lib/x86_64-linux-gnu/libc.so.6
index@GLIBC_2.2.5                                 /lib/x86_64-linux-gnu/libc.so.6
inet_aton                                         /lib/x86_64-linux-gnu/libc.so.6
inet_aton@@GLIBC_2.2.5                            /lib/x86_64-linux-gnu/libc.so.6
inet_aton@GLIBC_2.2.5                             /lib/x86_64-linux-gnu/libc.so.6
initstate                                         /lib/x86_64-linux-gnu/libc.so.6
initstate@@GLIBC_2.2.5                            /lib/x86_64-linux-gnu/libc.so.6
initstate@GLIBC_2.2.5                             /lib/x86_64-linux-gnu/libc.so.6
initstate_r                                       /lib/x86_64-linux-gnu/libc.so.6
initstate_r@@GLIBC_2.2.5                          /lib/x86_64-linux-gnu/libc.so.6
initstate_r@GLIBC_2.2.5                           /lib/x86_64-linux-gnu/libc.so.6
instance_make_new                                 build/py/objtype.o
                                                  build/py/objobject.o
ioctl                                             /lib/x86_64-linux-gnu/libc.so.6
ioctl@@GLIBC_2.2.5                                /lib/x86_64-linux-gnu/libc.so.6
ioctl@GLIBC_2.2.5                                 /lib/x86_64-linux-gnu/libc.so.6
                                                  //lib/x86_64-linux-gnu/libtinfo.so.5
                                                  /usr/lib/gcc/x86_64-linux-gnu/4.8/../../../x86_64-linux-gnu/libreadline.so
isalnum_l                                         /lib/x86_64-linux-gnu/libc.so.6
isalnum_l@@GLIBC_2.3                              /lib/x86_64-linux-gnu/libc.so.6
isalnum_l@GLIBC_2.3                               /lib/x86_64-linux-gnu/libc.so.6
isalpha_l                                         /lib/x86_64-linux-gnu/libc.so.6
isalpha_l@@GLIBC_2.3                              /lib/x86_64-linux-gnu/libc.so.6
isalpha_l@GLIBC_2.3                               /lib/x86_64-linux-gnu/libc.so.6
isatty                                            /lib/x86_64-linux-gnu/libc.so.6
isatty@@GLIBC_2.2.5                               /lib/x86_64-linux-gnu/libc.so.6
isatty@GLIBC_2.2.5                                /lib/x86_64-linux-gnu/libc.so.6
                                                  //lib/x86_64-linux-gnu/libtinfo.so.5
isblank_l                                         /lib/x86_64-linux-gnu/libc.so.6
isblank_l@@GLIBC_2.3                              /lib/x86_64-linux-gnu/libc.so.6
isblank_l@GLIBC_2.3                               /lib/x86_64-linux-gnu/libc.so.6
iscntrl_l                                         /lib/x86_64-linux-gnu/libc.so.6
iscntrl_l@@GLIBC_2.3                              /lib/x86_64-linux-gnu/libc.so.6
iscntrl_l@GLIBC_2.3                               /lib/x86_64-linux-gnu/libc.so.6
isctype                                           /lib/x86_64-linux-gnu/libc.so.6
isctype@@GLIBC_2.3                                /lib/x86_64-linux-gnu/libc.so.6
isctype@GLIBC_2.3                                 /lib/x86_64-linux-gnu/libc.so.6
isdigit_l                                         /lib/x86_64-linux-gnu/libc.so.6
isdigit_l@@GLIBC_2.3                              /lib/x86_64-linux-gnu/libc.so.6
isdigit_l@GLIBC_2.3                               /lib/x86_64-linux-gnu/libc.so.6
isgraph_l                                         /lib/x86_64-linux-gnu/libc.so.6
isgraph_l@@GLIBC_2.3                              /lib/x86_64-linux-gnu/libc.so.6
isgraph_l@GLIBC_2.3                               /lib/x86_64-linux-gnu/libc.so.6
isinf                                             /lib/x86_64-linux-gnu/libc.so.6
isinf@@GLIBC_2.2.5                                /lib/x86_64-linux-gnu/libc.so.6
isinf@GLIBC_2.2.5                                 /lib/x86_64-linux-gnu/libc.so.6
isinff                                            /lib/x86_64-linux-gnu/libc.so.6
isinff@@GLIBC_2.2.5                               /lib/x86_64-linux-gnu/libc.so.6
isinff@GLIBC_2.2.5                                /lib/x86_64-linux-gnu/libc.so.6
isinfl                                            /lib/x86_64-linux-gnu/libc.so.6
isinfl@@GLIBC_2.2.5                               /lib/x86_64-linux-gnu/libc.so.6
isinfl@GLIBC_2.2.5                                /lib/x86_64-linux-gnu/libc.so.6
islower_l                                         /lib/x86_64-linux-gnu/libc.so.6
islower_l@@GLIBC_2.3                              /lib/x86_64-linux-gnu/libc.so.6
islower_l@GLIBC_2.3                               /lib/x86_64-linux-gnu/libc.so.6
isnan                                             /lib/x86_64-linux-gnu/libc.so.6
isnan@@GLIBC_2.2.5                                /lib/x86_64-linux-gnu/libc.so.6
isnan@GLIBC_2.2.5                                 /lib/x86_64-linux-gnu/libc.so.6
isnanf                                            /lib/x86_64-linux-gnu/libc.so.6
isnanf@@GLIBC_2.2.5                               /lib/x86_64-linux-gnu/libc.so.6
isnanf@GLIBC_2.2.5                                /lib/x86_64-linux-gnu/libc.so.6
isnanl                                            /lib/x86_64-linux-gnu/libc.so.6
isnanl@@GLIBC_2.2.5                               /lib/x86_64-linux-gnu/libc.so.6
isnanl@GLIBC_2.2.5                                /lib/x86_64-linux-gnu/libc.so.6
isprint_l                                         /lib/x86_64-linux-gnu/libc.so.6
isprint_l@@GLIBC_2.3                              /lib/x86_64-linux-gnu/libc.so.6
isprint_l@GLIBC_2.3                               /lib/x86_64-linux-gnu/libc.so.6
ispunct_l                                         /lib/x86_64-linux-gnu/libc.so.6
ispunct_l@@GLIBC_2.3                              /lib/x86_64-linux-gnu/libc.so.6
ispunct_l@GLIBC_2.3                               /lib/x86_64-linux-gnu/libc.so.6
isspace_l                                         /lib/x86_64-linux-gnu/libc.so.6
isspace_l@@GLIBC_2.3                              /lib/x86_64-linux-gnu/libc.so.6
isspace_l@GLIBC_2.3                               /lib/x86_64-linux-gnu/libc.so.6
isupper_l                                         /lib/x86_64-linux-gnu/libc.so.6
isupper_l@@GLIBC_2.3                              /lib/x86_64-linux-gnu/libc.so.6
isupper_l@GLIBC_2.3                               /lib/x86_64-linux-gnu/libc.so.6
iswalnum                                          /lib/x86_64-linux-gnu/libc.so.6
iswalnum@@GLIBC_2.2.5                             /lib/x86_64-linux-gnu/libc.so.6
iswalnum@GLIBC_2.2.5                              /lib/x86_64-linux-gnu/libc.so.6
                                                  /usr/lib/gcc/x86_64-linux-gnu/4.8/../../../x86_64-linux-gnu/libreadline.so
iswalnum_l                                        /lib/x86_64-linux-gnu/libc.so.6
iswalnum_l@@GLIBC_2.3                             /lib/x86_64-linux-gnu/libc.so.6
iswalnum_l@GLIBC_2.3                              /lib/x86_64-linux-gnu/libc.so.6
iswalpha                                          /lib/x86_64-linux-gnu/libc.so.6
iswalpha@@GLIBC_2.2.5                             /lib/x86_64-linux-gnu/libc.so.6
iswalpha@GLIBC_2.2.5                              /lib/x86_64-linux-gnu/libc.so.6
iswalpha_l                                        /lib/x86_64-linux-gnu/libc.so.6
iswalpha_l@@GLIBC_2.3                             /lib/x86_64-linux-gnu/libc.so.6
iswalpha_l@GLIBC_2.3                              /lib/x86_64-linux-gnu/libc.so.6
iswblank                                          /lib/x86_64-linux-gnu/libc.so.6
iswblank@@GLIBC_2.2.5                             /lib/x86_64-linux-gnu/libc.so.6
iswblank@GLIBC_2.2.5                              /lib/x86_64-linux-gnu/libc.so.6
iswblank_l                                        /lib/x86_64-linux-gnu/libc.so.6
iswblank_l@@GLIBC_2.3                             /lib/x86_64-linux-gnu/libc.so.6
iswblank_l@GLIBC_2.3                              /lib/x86_64-linux-gnu/libc.so.6
iswcntrl                                          /lib/x86_64-linux-gnu/libc.so.6
iswcntrl@@GLIBC_2.2.5                             /lib/x86_64-linux-gnu/libc.so.6
iswcntrl@GLIBC_2.2.5                              /lib/x86_64-linux-gnu/libc.so.6
iswcntrl_l                                        /lib/x86_64-linux-gnu/libc.so.6
iswcntrl_l@@GLIBC_2.3                             /lib/x86_64-linux-gnu/libc.so.6
iswcntrl_l@GLIBC_2.3                              /lib/x86_64-linux-gnu/libc.so.6
iswctype                                          /lib/x86_64-linux-gnu/libc.so.6
iswctype@@GLIBC_2.2.5                             /lib/x86_64-linux-gnu/libc.so.6
iswctype@GLIBC_2.2.5                              /lib/x86_64-linux-gnu/libc.so.6
iswctype_l                                        /lib/x86_64-linux-gnu/libc.so.6
iswctype_l@@GLIBC_2.3                             /lib/x86_64-linux-gnu/libc.so.6
iswctype_l@GLIBC_2.3                              /lib/x86_64-linux-gnu/libc.so.6
iswdigit                                          /lib/x86_64-linux-gnu/libc.so.6
iswdigit@@GLIBC_2.2.5                             /lib/x86_64-linux-gnu/libc.so.6
iswdigit@GLIBC_2.2.5                              /lib/x86_64-linux-gnu/libc.so.6
iswdigit_l                                        /lib/x86_64-linux-gnu/libc.so.6
iswdigit_l@@GLIBC_2.3                             /lib/x86_64-linux-gnu/libc.so.6
iswdigit_l@GLIBC_2.3                              /lib/x86_64-linux-gnu/libc.so.6
iswgraph                                          /lib/x86_64-linux-gnu/libc.so.6
iswgraph@@GLIBC_2.2.5                             /lib/x86_64-linux-gnu/libc.so.6
iswgraph@GLIBC_2.2.5                              /lib/x86_64-linux-gnu/libc.so.6
iswgraph_l                                        /lib/x86_64-linux-gnu/libc.so.6
iswgraph_l@@GLIBC_2.3                             /lib/x86_64-linux-gnu/libc.so.6
iswgraph_l@GLIBC_2.3                              /lib/x86_64-linux-gnu/libc.so.6
iswlower                                          /lib/x86_64-linux-gnu/libc.so.6
iswlower@@GLIBC_2.2.5                             /lib/x86_64-linux-gnu/libc.so.6
iswlower@GLIBC_2.2.5                              /lib/x86_64-linux-gnu/libc.so.6
                                                  /usr/lib/gcc/x86_64-linux-gnu/4.8/../../../x86_64-linux-gnu/libreadline.so
iswlower_l                                        /lib/x86_64-linux-gnu/libc.so.6
iswlower_l@@GLIBC_2.3                             /lib/x86_64-linux-gnu/libc.so.6
iswlower_l@GLIBC_2.3                              /lib/x86_64-linux-gnu/libc.so.6
iswprint                                          /lib/x86_64-linux-gnu/libc.so.6
iswprint@@GLIBC_2.2.5                             /lib/x86_64-linux-gnu/libc.so.6
iswprint@GLIBC_2.2.5                              /lib/x86_64-linux-gnu/libc.so.6
iswprint_l                                        /lib/x86_64-linux-gnu/libc.so.6
iswprint_l@@GLIBC_2.3                             /lib/x86_64-linux-gnu/libc.so.6
iswprint_l@GLIBC_2.3                              /lib/x86_64-linux-gnu/libc.so.6
iswpunct                                          /lib/x86_64-linux-gnu/libc.so.6
iswpunct@@GLIBC_2.2.5                             /lib/x86_64-linux-gnu/libc.so.6
iswpunct@GLIBC_2.2.5                              /lib/x86_64-linux-gnu/libc.so.6
iswpunct_l                                        /lib/x86_64-linux-gnu/libc.so.6
iswpunct_l@@GLIBC_2.3                             /lib/x86_64-linux-gnu/libc.so.6
iswpunct_l@GLIBC_2.3                              /lib/x86_64-linux-gnu/libc.so.6
iswspace                                          /lib/x86_64-linux-gnu/libc.so.6
iswspace@@GLIBC_2.2.5                             /lib/x86_64-linux-gnu/libc.so.6
iswspace@GLIBC_2.2.5                              /lib/x86_64-linux-gnu/libc.so.6
iswspace_l                                        /lib/x86_64-linux-gnu/libc.so.6
iswspace_l@@GLIBC_2.3                             /lib/x86_64-linux-gnu/libc.so.6
iswspace_l@GLIBC_2.3                              /lib/x86_64-linux-gnu/libc.so.6
iswupper                                          /lib/x86_64-linux-gnu/libc.so.6
iswupper@@GLIBC_2.2.5                             /lib/x86_64-linux-gnu/libc.so.6
iswupper@GLIBC_2.2.5                              /lib/x86_64-linux-gnu/libc.so.6
                                                  /usr/lib/gcc/x86_64-linux-gnu/4.8/../../../x86_64-linux-gnu/libreadline.so
iswupper_l                                        /lib/x86_64-linux-gnu/libc.so.6
iswupper_l@@GLIBC_2.3                             /lib/x86_64-linux-gnu/libc.so.6
iswupper_l@GLIBC_2.3                              /lib/x86_64-linux-gnu/libc.so.6
iswxdigit                                         /lib/x86_64-linux-gnu/libc.so.6
iswxdigit@@GLIBC_2.2.5                            /lib/x86_64-linux-gnu/libc.so.6
iswxdigit@GLIBC_2.2.5                             /lib/x86_64-linux-gnu/libc.so.6
iswxdigit_l                                       /lib/x86_64-linux-gnu/libc.so.6
iswxdigit_l@@GLIBC_2.3                            /lib/x86_64-linux-gnu/libc.so.6
iswxdigit_l@GLIBC_2.3                             /lib/x86_64-linux-gnu/libc.so.6
isxdigit_l                                        /lib/x86_64-linux-gnu/libc.so.6
isxdigit_l@@GLIBC_2.3                             /lib/x86_64-linux-gnu/libc.so.6
isxdigit_l@GLIBC_2.3                              /lib/x86_64-linux-gnu/libc.so.6
j0l                                               /usr/lib/gcc/x86_64-linux-gnu/4.8/../../../x86_64-linux-gnu/libm.so
j0l@@GLIBC_2.2.5                                  /usr/lib/gcc/x86_64-linux-gnu/4.8/../../../x86_64-linux-gnu/libm.so
j0l@GLIBC_2.2.5                                   /usr/lib/gcc/x86_64-linux-gnu/4.8/../../../x86_64-linux-gnu/libm.so
j1l                                               /usr/lib/gcc/x86_64-linux-gnu/4.8/../../../x86_64-linux-gnu/libm.so
j1l@@GLIBC_2.2.5                                  /usr/lib/gcc/x86_64-linux-gnu/4.8/../../../x86_64-linux-gnu/libm.so
j1l@GLIBC_2.2.5                                   /usr/lib/gcc/x86_64-linux-gnu/4.8/../../../x86_64-linux-gnu/libm.so
jnl                                               /usr/lib/gcc/x86_64-linux-gnu/4.8/../../../x86_64-linux-gnu/libm.so
jnl@@GLIBC_2.2.5                                  /usr/lib/gcc/x86_64-linux-gnu/4.8/../../../x86_64-linux-gnu/libm.so
jnl@GLIBC_2.2.5                                   /usr/lib/gcc/x86_64-linux-gnu/4.8/../../../x86_64-linux-gnu/libm.so
jrand48_r                                         /lib/x86_64-linux-gnu/libc.so.6
jrand48_r@@GLIBC_2.2.5                            /lib/x86_64-linux-gnu/libc.so.6
jrand48_r@GLIBC_2.2.5                             /lib/x86_64-linux-gnu/libc.so.6
kill                                              /lib/x86_64-linux-gnu/libc.so.6
kill@@GLIBC_2.2.5                                 /lib/x86_64-linux-gnu/libc.so.6
kill@GLIBC_2.2.5                                  /lib/x86_64-linux-gnu/libc.so.6
                                                  /usr/lib/gcc/x86_64-linux-gnu/4.8/../../../x86_64-linux-gnu/libreadline.so
lchown                                            /lib/x86_64-linux-gnu/libc.so.6
lchown@@GLIBC_2.2.5                               /lib/x86_64-linux-gnu/libc.so.6
lchown@GLIBC_2.2.5                                /lib/x86_64-linux-gnu/libc.so.6
lckpwdf                                           /lib/x86_64-linux-gnu/libc.so.6
lckpwdf@@GLIBC_2.2.5                              /lib/x86_64-linux-gnu/libc.so.6
lckpwdf@GLIBC_2.2.5                               /lib/x86_64-linux-gnu/libc.so.6
lcong48_r                                         /lib/x86_64-linux-gnu/libc.so.6
lcong48_r@@GLIBC_2.2.5                            /lib/x86_64-linux-gnu/libc.so.6
lcong48_r@GLIBC_2.2.5                             /lib/x86_64-linux-gnu/libc.so.6
ldexp                                             /usr/lib/gcc/x86_64-linux-gnu/4.8/../../../x86_64-linux-gnu/libm.so
                                                  build/py/modmath.o
ldexp@@GLIBC_2.2.5                                /usr/lib/gcc/x86_64-linux-gnu/4.8/../../../x86_64-linux-gnu/libm.so
                                                  /lib/x86_64-linux-gnu/libc.so.6
ldexp@GLIBC_2.2.5                                 /usr/lib/gcc/x86_64-linux-gnu/4.8/../../../x86_64-linux-gnu/libm.so
ldexpf                                            /usr/lib/gcc/x86_64-linux-gnu/4.8/../../../x86_64-linux-gnu/libm.so
ldexpf@@GLIBC_2.2.5                               /usr/lib/gcc/x86_64-linux-gnu/4.8/../../../x86_64-linux-gnu/libm.so
                                                  /lib/x86_64-linux-gnu/libc.so.6
ldexpf@GLIBC_2.2.5                                /usr/lib/gcc/x86_64-linux-gnu/4.8/../../../x86_64-linux-gnu/libm.so
ldexpl                                            /usr/lib/gcc/x86_64-linux-gnu/4.8/../../../x86_64-linux-gnu/libm.so
ldexpl@@GLIBC_2.2.5                               /usr/lib/gcc/x86_64-linux-gnu/4.8/../../../x86_64-linux-gnu/libm.so
                                                  /lib/x86_64-linux-gnu/libc.so.6
ldexpl@GLIBC_2.2.5                                /usr/lib/gcc/x86_64-linux-gnu/4.8/../../../x86_64-linux-gnu/libm.so
length_base                                       build/py/../extmod/moduzlib.o
length_bits                                       build/py/../extmod/moduzlib.o
lgamma                                            /usr/lib/gcc/x86_64-linux-gnu/4.8/../../../x86_64-linux-gnu/libm.so
                                                  build/py/modmath.o
lgamma@@GLIBC_2.2.5                               /usr/lib/gcc/x86_64-linux-gnu/4.8/../../../x86_64-linux-gnu/libm.so
lgamma@GLIBC_2.2.5                                /usr/lib/gcc/x86_64-linux-gnu/4.8/../../../x86_64-linux-gnu/libm.so
lgamma_r                                          /usr/lib/gcc/x86_64-linux-gnu/4.8/../../../x86_64-linux-gnu/libm.so
lgamma_r@@GLIBC_2.2.5                             /usr/lib/gcc/x86_64-linux-gnu/4.8/../../../x86_64-linux-gnu/libm.so
lgamma_r@GLIBC_2.2.5                              /usr/lib/gcc/x86_64-linux-gnu/4.8/../../../x86_64-linux-gnu/libm.so
lgammaf                                           /usr/lib/gcc/x86_64-linux-gnu/4.8/../../../x86_64-linux-gnu/libm.so
lgammaf@@GLIBC_2.2.5                              /usr/lib/gcc/x86_64-linux-gnu/4.8/../../../x86_64-linux-gnu/libm.so
lgammaf@GLIBC_2.2.5                               /usr/lib/gcc/x86_64-linux-gnu/4.8/../../../x86_64-linux-gnu/libm.so
lgammaf_r                                         /usr/lib/gcc/x86_64-linux-gnu/4.8/../../../x86_64-linux-gnu/libm.so
lgammaf_r@@GLIBC_2.2.5                            /usr/lib/gcc/x86_64-linux-gnu/4.8/../../../x86_64-linux-gnu/libm.so
lgammaf_r@GLIBC_2.2.5                             /usr/lib/gcc/x86_64-linux-gnu/4.8/../../../x86_64-linux-gnu/libm.so
lgammal                                           /usr/lib/gcc/x86_64-linux-gnu/4.8/../../../x86_64-linux-gnu/libm.so
lgammal@@GLIBC_2.2.5                              /usr/lib/gcc/x86_64-linux-gnu/4.8/../../../x86_64-linux-gnu/libm.so
lgammal@GLIBC_2.2.5                               /usr/lib/gcc/x86_64-linux-gnu/4.8/../../../x86_64-linux-gnu/libm.so
lgammal_r                                         /usr/lib/gcc/x86_64-linux-gnu/4.8/../../../x86_64-linux-gnu/libm.so
lgammal_r@@GLIBC_2.2.5                            /usr/lib/gcc/x86_64-linux-gnu/4.8/../../../x86_64-linux-gnu/libm.so
lgammal_r@GLIBC_2.2.5                             /usr/lib/gcc/x86_64-linux-gnu/4.8/../../../x86_64-linux-gnu/libm.so
link                                              /lib/x86_64-linux-gnu/libc.so.6
link@@GLIBC_2.2.5                                 /lib/x86_64-linux-gnu/libc.so.6
link@GLIBC_2.2.5                                  /lib/x86_64-linux-gnu/libc.so.6
listen                                            /lib/x86_64-linux-gnu/libc.so.6
                                                  build/modsocket.o
listen@@GLIBC_2.2.5                               /lib/x86_64-linux-gnu/libc.so.6
listen@GLIBC_2.2.5                                /lib/x86_64-linux-gnu/libc.so.6
llrint                                            /usr/lib/gcc/x86_64-linux-gnu/4.8/../../../x86_64-linux-gnu/libm.so
llrint@@GLIBC_2.2.5                               /usr/lib/gcc/x86_64-linux-gnu/4.8/../../../x86_64-linux-gnu/libm.so
llrint@GLIBC_2.2.5                                /usr/lib/gcc/x86_64-linux-gnu/4.8/../../../x86_64-linux-gnu/libm.so
llrintf                                           /usr/lib/gcc/x86_64-linux-gnu/4.8/../../../x86_64-linux-gnu/libm.so
llrintf@@GLIBC_2.2.5                              /usr/lib/gcc/x86_64-linux-gnu/4.8/../../../x86_64-linux-gnu/libm.so
llrintf@GLIBC_2.2.5                               /usr/lib/gcc/x86_64-linux-gnu/4.8/../../../x86_64-linux-gnu/libm.so
llrintl                                           /usr/lib/gcc/x86_64-linux-gnu/4.8/../../../x86_64-linux-gnu/libm.so
llrintl@@GLIBC_2.2.5                              /usr/lib/gcc/x86_64-linux-gnu/4.8/../../../x86_64-linux-gnu/libm.so
llrintl@GLIBC_2.2.5                               /usr/lib/gcc/x86_64-linux-gnu/4.8/../../../x86_64-linux-gnu/libm.so
llround                                           /usr/lib/gcc/x86_64-linux-gnu/4.8/../../../x86_64-linux-gnu/libm.so
llround@@GLIBC_2.2.5                              /usr/lib/gcc/x86_64-linux-gnu/4.8/../../../x86_64-linux-gnu/libm.so
llround@GLIBC_2.2.5                               /usr/lib/gcc/x86_64-linux-gnu/4.8/../../../x86_64-linux-gnu/libm.so
llroundf                                          /usr/lib/gcc/x86_64-linux-gnu/4.8/../../../x86_64-linux-gnu/libm.so
llroundf@@GLIBC_2.2.5                             /usr/lib/gcc/x86_64-linux-gnu/4.8/../../../x86_64-linux-gnu/libm.so
llroundf@GLIBC_2.2.5                              /usr/lib/gcc/x86_64-linux-gnu/4.8/../../../x86_64-linux-gnu/libm.so
llroundl                                          /usr/lib/gcc/x86_64-linux-gnu/4.8/../../../x86_64-linux-gnu/libm.so
llroundl@@GLIBC_2.2.5                             /usr/lib/gcc/x86_64-linux-gnu/4.8/../../../x86_64-linux-gnu/libm.so
llroundl@GLIBC_2.2.5                              /usr/lib/gcc/x86_64-linux-gnu/4.8/../../../x86_64-linux-gnu/libm.so
llseek                                            /lib/x86_64-linux-gnu/libc.so.6
llseek@@GLIBC_2.2.5                               /lib/x86_64-linux-gnu/libc.so.6
llseek@GLIBC_2.2.5                                /lib/x86_64-linux-gnu/libc.so.6
localtime_r                                       /lib/x86_64-linux-gnu/libc.so.6
localtime_r@@GLIBC_2.2.5                          /lib/x86_64-linux-gnu/libc.so.6
localtime_r@GLIBC_2.2.5                           /lib/x86_64-linux-gnu/libc.so.6
lockf64                                           /lib/x86_64-linux-gnu/libc.so.6
lockf64@@GLIBC_2.2.5                              /lib/x86_64-linux-gnu/libc.so.6
lockf64@GLIBC_2.2.5                               /lib/x86_64-linux-gnu/libc.so.6
log                                               /usr/lib/gcc/x86_64-linux-gnu/4.8/../../../x86_64-linux-gnu/libm.so
                                                  build/py/modcmath.o
                                                  build/py/modmath.o
                                                  build/py/objcomplex.o
log10                                             /usr/lib/gcc/x86_64-linux-gnu/4.8/../../../x86_64-linux-gnu/libm.so
                                                  build/py/modcmath.o
                                                  build/py/modmath.o
log10@@GLIBC_2.2.5                                /usr/lib/gcc/x86_64-linux-gnu/4.8/../../../x86_64-linux-gnu/libm.so
log10@GLIBC_2.2.5                                 /usr/lib/gcc/x86_64-linux-gnu/4.8/../../../x86_64-linux-gnu/libm.so
log10f                                            /usr/lib/gcc/x86_64-linux-gnu/4.8/../../../x86_64-linux-gnu/libm.so
log10f@@GLIBC_2.2.5                               /usr/lib/gcc/x86_64-linux-gnu/4.8/../../../x86_64-linux-gnu/libm.so
log10f@GLIBC_2.2.5                                /usr/lib/gcc/x86_64-linux-gnu/4.8/../../../x86_64-linux-gnu/libm.so
log10l                                            /usr/lib/gcc/x86_64-linux-gnu/4.8/../../../x86_64-linux-gnu/libm.so
log10l@@GLIBC_2.2.5                               /usr/lib/gcc/x86_64-linux-gnu/4.8/../../../x86_64-linux-gnu/libm.so
log10l@GLIBC_2.2.5                                /usr/lib/gcc/x86_64-linux-gnu/4.8/../../../x86_64-linux-gnu/libm.so
log1p                                             /usr/lib/gcc/x86_64-linux-gnu/4.8/../../../x86_64-linux-gnu/libm.so
log1p@@GLIBC_2.2.5                                /usr/lib/gcc/x86_64-linux-gnu/4.8/../../../x86_64-linux-gnu/libm.so
log1p@GLIBC_2.2.5                                 /usr/lib/gcc/x86_64-linux-gnu/4.8/../../../x86_64-linux-gnu/libm.so
log1pf                                            /usr/lib/gcc/x86_64-linux-gnu/4.8/../../../x86_64-linux-gnu/libm.so
log1pf@@GLIBC_2.2.5                               /usr/lib/gcc/x86_64-linux-gnu/4.8/../../../x86_64-linux-gnu/libm.so
log1pf@GLIBC_2.2.5                                /usr/lib/gcc/x86_64-linux-gnu/4.8/../../../x86_64-linux-gnu/libm.so
log1pl                                            /usr/lib/gcc/x86_64-linux-gnu/4.8/../../../x86_64-linux-gnu/libm.so
log1pl@@GLIBC_2.2.5                               /usr/lib/gcc/x86_64-linux-gnu/4.8/../../../x86_64-linux-gnu/libm.so
log1pl@GLIBC_2.2.5                                /usr/lib/gcc/x86_64-linux-gnu/4.8/../../../x86_64-linux-gnu/libm.so
log2                                              /usr/lib/gcc/x86_64-linux-gnu/4.8/../../../x86_64-linux-gnu/libm.so
                                                  build/py/modmath.o
log2@@GLIBC_2.2.5                                 /usr/lib/gcc/x86_64-linux-gnu/4.8/../../../x86_64-linux-gnu/libm.so
log2@GLIBC_2.2.5                                  /usr/lib/gcc/x86_64-linux-gnu/4.8/../../../x86_64-linux-gnu/libm.so
log2f                                             /usr/lib/gcc/x86_64-linux-gnu/4.8/../../../x86_64-linux-gnu/libm.so
log2f@@GLIBC_2.2.5                                /usr/lib/gcc/x86_64-linux-gnu/4.8/../../../x86_64-linux-gnu/libm.so
log2f@GLIBC_2.2.5                                 /usr/lib/gcc/x86_64-linux-gnu/4.8/../../../x86_64-linux-gnu/libm.so
log2l                                             /usr/lib/gcc/x86_64-linux-gnu/4.8/../../../x86_64-linux-gnu/libm.so
log2l@@GLIBC_2.2.5                                /usr/lib/gcc/x86_64-linux-gnu/4.8/../../../x86_64-linux-gnu/libm.so
log2l@GLIBC_2.2.5                                 /usr/lib/gcc/x86_64-linux-gnu/4.8/../../../x86_64-linux-gnu/libm.so
log@@GLIBC_2.2.5                                  /usr/lib/gcc/x86_64-linux-gnu/4.8/../../../x86_64-linux-gnu/libm.so
log@GLIBC_2.2.5                                   /usr/lib/gcc/x86_64-linux-gnu/4.8/../../../x86_64-linux-gnu/libm.so
logb                                              /usr/lib/gcc/x86_64-linux-gnu/4.8/../../../x86_64-linux-gnu/libm.so
logb@@GLIBC_2.2.5                                 /usr/lib/gcc/x86_64-linux-gnu/4.8/../../../x86_64-linux-gnu/libm.so
logb@GLIBC_2.2.5                                  /usr/lib/gcc/x86_64-linux-gnu/4.8/../../../x86_64-linux-gnu/libm.so
logbf                                             /usr/lib/gcc/x86_64-linux-gnu/4.8/../../../x86_64-linux-gnu/libm.so
logbf@@GLIBC_2.2.5                                /usr/lib/gcc/x86_64-linux-gnu/4.8/../../../x86_64-linux-gnu/libm.so
logbf@GLIBC_2.2.5                                 /usr/lib/gcc/x86_64-linux-gnu/4.8/../../../x86_64-linux-gnu/libm.so
logbl                                             /usr/lib/gcc/x86_64-linux-gnu/4.8/../../../x86_64-linux-gnu/libm.so
logbl@@GLIBC_2.2.5                                /usr/lib/gcc/x86_64-linux-gnu/4.8/../../../x86_64-linux-gnu/libm.so
logbl@GLIBC_2.2.5                                 /usr/lib/gcc/x86_64-linux-gnu/4.8/../../../x86_64-linux-gnu/libm.so
logf                                              /usr/lib/gcc/x86_64-linux-gnu/4.8/../../../x86_64-linux-gnu/libm.so
logf@@GLIBC_2.2.5                                 /usr/lib/gcc/x86_64-linux-gnu/4.8/../../../x86_64-linux-gnu/libm.so
logf@GLIBC_2.2.5                                  /usr/lib/gcc/x86_64-linux-gnu/4.8/../../../x86_64-linux-gnu/libm.so
logl                                              /usr/lib/gcc/x86_64-linux-gnu/4.8/../../../x86_64-linux-gnu/libm.so
logl@@GLIBC_2.2.5                                 /usr/lib/gcc/x86_64-linux-gnu/4.8/../../../x86_64-linux-gnu/libm.so
logl@GLIBC_2.2.5                                  /usr/lib/gcc/x86_64-linux-gnu/4.8/../../../x86_64-linux-gnu/libm.so
longjmp                                           /lib/x86_64-linux-gnu/libc.so.6
longjmp@@GLIBC_2.2.5                              /lib/x86_64-linux-gnu/libc.so.6
longjmp@GLIBC_2.2.5                               /lib/x86_64-linux-gnu/libc.so.6
lrint                                             /usr/lib/gcc/x86_64-linux-gnu/4.8/../../../x86_64-linux-gnu/libm.so
lrint@@GLIBC_2.2.5                                /usr/lib/gcc/x86_64-linux-gnu/4.8/../../../x86_64-linux-gnu/libm.so
lrint@GLIBC_2.2.5                                 /usr/lib/gcc/x86_64-linux-gnu/4.8/../../../x86_64-linux-gnu/libm.so
lrintf                                            /usr/lib/gcc/x86_64-linux-gnu/4.8/../../../x86_64-linux-gnu/libm.so
lrintf@@GLIBC_2.2.5                               /usr/lib/gcc/x86_64-linux-gnu/4.8/../../../x86_64-linux-gnu/libm.so
lrintf@GLIBC_2.2.5                                /usr/lib/gcc/x86_64-linux-gnu/4.8/../../../x86_64-linux-gnu/libm.so
lrintl                                            /usr/lib/gcc/x86_64-linux-gnu/4.8/../../../x86_64-linux-gnu/libm.so
lrintl@@GLIBC_2.2.5                               /usr/lib/gcc/x86_64-linux-gnu/4.8/../../../x86_64-linux-gnu/libm.so
lrintl@GLIBC_2.2.5                                /usr/lib/gcc/x86_64-linux-gnu/4.8/../../../x86_64-linux-gnu/libm.so
lround                                            /usr/lib/gcc/x86_64-linux-gnu/4.8/../../../x86_64-linux-gnu/libm.so
                                                  build/modtime.o
lround@@GLIBC_2.2.5                               /usr/lib/gcc/x86_64-linux-gnu/4.8/../../../x86_64-linux-gnu/libm.so
lround@GLIBC_2.2.5                                /usr/lib/gcc/x86_64-linux-gnu/4.8/../../../x86_64-linux-gnu/libm.so
lroundf                                           /usr/lib/gcc/x86_64-linux-gnu/4.8/../../../x86_64-linux-gnu/libm.so
lroundf@@GLIBC_2.2.5                              /usr/lib/gcc/x86_64-linux-gnu/4.8/../../../x86_64-linux-gnu/libm.so
lroundf@GLIBC_2.2.5                               /usr/lib/gcc/x86_64-linux-gnu/4.8/../../../x86_64-linux-gnu/libm.so
lroundl                                           /usr/lib/gcc/x86_64-linux-gnu/4.8/../../../x86_64-linux-gnu/libm.so
lroundl@@GLIBC_2.2.5                              /usr/lib/gcc/x86_64-linux-gnu/4.8/../../../x86_64-linux-gnu/libm.so
lroundl@GLIBC_2.2.5                               /usr/lib/gcc/x86_64-linux-gnu/4.8/../../../x86_64-linux-gnu/libm.so
lseek                                             /lib/x86_64-linux-gnu/libc.so.6
                                                  build/file.o
lseek64                                           /lib/x86_64-linux-gnu/libc.so.6
lseek64@@GLIBC_2.2.5                              /lib/x86_64-linux-gnu/libc.so.6
lseek64@GLIBC_2.2.5                               /lib/x86_64-linux-gnu/libc.so.6
lseek@@GLIBC_2.2.5                                /lib/x86_64-linux-gnu/libc.so.6
lseek@GLIBC_2.2.5                                 /lib/x86_64-linux-gnu/libc.so.6
m_free                                            build/py/malloc.o
                                                  build/modsocket.o
                                                  build/alloc.o
                                                  build/py/../extmod/moduzlib.o
                                                  build/py/../extmod/modure.o
                                                  build/py/pfenv.o
                                                  build/py/objtype.o
                                                  build/py/objtuple.o
                                                  build/py/objset.o
                                                  build/py/objmap.o
                                                  build/py/objint.o
                                                  build/py/objfun.o
                                                  build/py/objclosure.o
                                                  build/py/objboundmeth.o
                                                  build/py/map.o
                                                  build/py/runtime.o
                                                  build/py/emitnx64.o
                                                  build/py/asmx64.o
                                                  build/py/emitbc.o
                                                  build/py/emitpass1.o
                                                  build/py/compile.o
                                                  build/py/scope.o
                                                  build/py/parse.o
                                                  build/py/lexerunix.o
                                                  build/py/lexerstr.o
                                                  build/py/lexer.o
                                                  build/py/mpz.o
                                                  build/py/vstr.o
                                                  build/py/qstr.o
m_get_current_bytes_allocated                     build/py/malloc.o
                                                  build/py/modmicropython.o
m_get_peak_bytes_allocated                        build/py/malloc.o
                                                  build/py/modmicropython.o
m_get_total_bytes_allocated                       build/py/malloc.o
                                                  build/py/modmicropython.o
m_malloc                                          build/py/malloc.o
                                                  build/modffi.o
                                                  build/modsocket.o
                                                  build/alloc.o
                                                  build/file.o
                                                  build/py/../extmod/moduhashlib.o
                                                  build/py/../extmod/moduzlib.o
                                                  build/py/../extmod/modure.o
                                                  build/py/../extmod/moductypes.o
                                                  build/py/builtinevex.o
                                                  build/py/objzip.o
                                                  build/py/objtype.o
                                                  build/py/objtuple.o
                                                  build/py/objstringio.o
                                                  build/py/objstrunicode.o
                                                  build/py/objstr.o
                                                  build/py/objslice.o
                                                  build/py/objset.o
                                                  build/py/objreversed.o
                                                  build/py/objrange.o
                                                  build/py/objnamedtuple.o
                                                  build/py/objproperty.o
                                                  build/py/objobject.o
                                                  build/py/objmodule.o
                                                  build/py/objmap.o
                                                  build/py/objlist.o
                                                  build/py/objint_mpz.o
                                                  build/py/objint.o
                                                  build/py/objgetitemiter.o
                                                  build/py/objgenerator.o
                                                  build/py/objfun.o
                                                  build/py/objfloat.o
                                                  build/py/objfilter.o
                                                  build/py/objenumerate.o
                                                  build/py/objdict.o
                                                  build/py/objcomplex.o
                                                  build/py/objclosure.o
                                                  build/py/objcell.o
                                                  build/py/objboundmeth.o
                                                  build/py/objarray.o
                                                  build/py/map.o
                                                  build/py/runtime.o
                                                  build/py/emitnx64.o
                                                  build/py/asmx64.o
                                                  build/py/emitbc.o
                                                  build/py/emitpass1.o
                                                  build/py/scope.o
                                                  build/py/parse.o
                                                  build/py/mpz.o
                                                  build/py/vstr.o
                                                  build/py/qstr.o
m_malloc0                                         build/py/malloc.o
                                                  build/py/objtype.o
                                                  build/py/objarray.o
                                                  build/py/map.o
                                                  build/py/emitglue.o
                                                  build/py/emitnx64.o
                                                  build/py/asmx64.o
                                                  build/py/emitbc.o
                                                  build/py/compile.o
                                                  build/py/scope.o
m_malloc_fail                                     build/py/runtime.o
                                                  build/py/malloc.o
m_malloc_maybe                                    build/py/malloc.o
                                                  build/py/objexcept.o
                                                  build/py/parse.o
                                                  build/py/lexerunix.o
                                                  build/py/lexerstr.o
                                                  build/py/lexer.o
m_malloc_with_finaliser                           build/py/malloc.o
m_realloc                                         build/py/malloc.o
                                                  build/py/../extmod/moduzlib.o
                                                  build/py/objtuple.o
                                                  build/py/objstr.o
                                                  build/py/objlist.o
                                                  build/py/objarray.o
                                                  build/py/runtime.o
                                                  build/py/emitnx64.o
                                                  build/py/scope.o
                                                  build/py/lexer.o
                                                  build/py/mpz.o
                                                  build/py/vstr.o
m_realloc_maybe                                   build/py/malloc.o
                                                  build/py/objexcept.o
                                                  build/py/parse.o
madvise                                           /lib/x86_64-linux-gnu/libc.so.6
madvise@@GLIBC_2.2.5                              /lib/x86_64-linux-gnu/libc.so.6
madvise@GLIBC_2.2.5                               /lib/x86_64-linux-gnu/libc.so.6
main                                              build/main.o
                                                  /usr/lib/gcc/x86_64-linux-gnu/4.8/../../../x86_64-linux-gnu/crt1.o
makecontext                                       /lib/x86_64-linux-gnu/libc.so.6
makecontext@@GLIBC_2.2.5                          /lib/x86_64-linux-gnu/libc.so.6
makecontext@GLIBC_2.2.5                           /lib/x86_64-linux-gnu/libc.so.6
mallinfo                                          /lib/x86_64-linux-gnu/libc.so.6
mallinfo@@GLIBC_2.2.5                             /lib/x86_64-linux-gnu/libc.so.6
mallinfo@GLIBC_2.2.5                              /lib/x86_64-linux-gnu/libc.so.6
malloc                                            /lib/x86_64-linux-gnu/libc.so.6
                                                  build/main.o
malloc@@GLIBC_2.2.5                               /lib/x86_64-linux-gnu/libc.so.6
                                                  /lib/x86_64-linux-gnu/ld-linux-x86-64.so.2
malloc@GLIBC_2.2.5                                /lib/x86_64-linux-gnu/libc.so.6
                                                  //lib/x86_64-linux-gnu/libtinfo.so.5
                                                  /usr/lib/gcc/x86_64-linux-gnu/4.8/../../../x86_64-linux-gnu/libreadline.so
malloc_get_state                                  /lib/x86_64-linux-gnu/libc.so.6
malloc_get_state@@GLIBC_2.2.5                     /lib/x86_64-linux-gnu/libc.so.6
malloc_get_state@GLIBC_2.2.5                      /lib/x86_64-linux-gnu/libc.so.6
malloc_set_state                                  /lib/x86_64-linux-gnu/libc.so.6
malloc_set_state@@GLIBC_2.2.5                     /lib/x86_64-linux-gnu/libc.so.6
malloc_set_state@GLIBC_2.2.5                      /lib/x86_64-linux-gnu/libc.so.6
malloc_stats                                      /lib/x86_64-linux-gnu/libc.so.6
malloc_stats@@GLIBC_2.2.5                         /lib/x86_64-linux-gnu/libc.so.6
malloc_stats@GLIBC_2.2.5                          /lib/x86_64-linux-gnu/libc.so.6
malloc_trim                                       /lib/x86_64-linux-gnu/libc.so.6
malloc_trim@@GLIBC_2.2.5                          /lib/x86_64-linux-gnu/libc.so.6
malloc_trim@GLIBC_2.2.5                           /lib/x86_64-linux-gnu/libc.so.6
malloc_usable_size                                /lib/x86_64-linux-gnu/libc.so.6
malloc_usable_size@@GLIBC_2.2.5                   /lib/x86_64-linux-gnu/libc.so.6
malloc_usable_size@GLIBC_2.2.5                    /lib/x86_64-linux-gnu/libc.so.6
mallopt                                           /lib/x86_64-linux-gnu/libc.so.6
mallopt@@GLIBC_2.2.5                              /lib/x86_64-linux-gnu/libc.so.6
mallopt@GLIBC_2.2.5                               /lib/x86_64-linux-gnu/libc.so.6
match_group_obj                                   build/py/../extmod/modure.o
matherr                                           /usr/lib/gcc/x86_64-linux-gnu/4.8/../../../x86_64-linux-gnu/libm.so
matherr@@GLIBC_2.2.5                              /usr/lib/gcc/x86_64-linux-gnu/4.8/../../../x86_64-linux-gnu/libm.so
matherr@GLIBC_2.2.5                               /usr/lib/gcc/x86_64-linux-gnu/4.8/../../../x86_64-linux-gnu/libm.so
mbrlen                                            /lib/x86_64-linux-gnu/libc.so.6
mbrlen@@GLIBC_2.2.5                               /lib/x86_64-linux-gnu/libc.so.6
mbrlen@GLIBC_2.2.5                                /lib/x86_64-linux-gnu/libc.so.6
mbrtoc32                                          /lib/x86_64-linux-gnu/libc.so.6
mbrtoc32@@GLIBC_2.16                              /lib/x86_64-linux-gnu/libc.so.6
mbrtoc32@GLIBC_2.16                               /lib/x86_64-linux-gnu/libc.so.6
mbrtowc                                           /lib/x86_64-linux-gnu/libc.so.6
mbrtowc@@GLIBC_2.2.5                              /lib/x86_64-linux-gnu/libc.so.6
mbrtowc@GLIBC_2.2.5                               /lib/x86_64-linux-gnu/libc.so.6
                                                  /usr/lib/gcc/x86_64-linux-gnu/4.8/../../../x86_64-linux-gnu/libreadline.so
mbsinit                                           /lib/x86_64-linux-gnu/libc.so.6
mbsinit@@GLIBC_2.2.5                              /lib/x86_64-linux-gnu/libc.so.6
mbsinit@GLIBC_2.2.5                               /lib/x86_64-linux-gnu/libc.so.6
mbsnrtowcs                                        /lib/x86_64-linux-gnu/libc.so.6
mbsnrtowcs@@GLIBC_2.2.5                           /lib/x86_64-linux-gnu/libc.so.6
mbsnrtowcs@GLIBC_2.2.5                            /lib/x86_64-linux-gnu/libc.so.6
mbsrtowcs                                         /lib/x86_64-linux-gnu/libc.so.6
mbsrtowcs@@GLIBC_2.2.5                            /lib/x86_64-linux-gnu/libc.so.6
mbsrtowcs@GLIBC_2.2.5                             /lib/x86_64-linux-gnu/libc.so.6
mcount                                            /lib/x86_64-linux-gnu/libc.so.6
mcount@@GLIBC_2.2.5                               /lib/x86_64-linux-gnu/libc.so.6
mcount@GLIBC_2.2.5                                /lib/x86_64-linux-gnu/libc.so.6
memalign                                          /lib/x86_64-linux-gnu/libc.so.6
memalign@@GLIBC_2.2.5                             /lib/x86_64-linux-gnu/libc.so.6
memalign@GLIBC_2.2.5                              /lib/x86_64-linux-gnu/libc.so.6
memccpy                                           /lib/x86_64-linux-gnu/libc.so.6
memccpy@@GLIBC_2.2.5                              /lib/x86_64-linux-gnu/libc.so.6
memccpy@GLIBC_2.2.5                               /lib/x86_64-linux-gnu/libc.so.6
memcmp                                            /lib/x86_64-linux-gnu/libc.so.6
                                                  build/py/sequence.o
                                                  build/py/objstr.o
                                                  build/py/qstr.o
memcmp@@GLIBC_2.2.5                               /lib/x86_64-linux-gnu/libc.so.6
memcmp@GLIBC_2.2.5                                /lib/x86_64-linux-gnu/libc.so.6
                                                  /usr/lib/gcc/x86_64-linux-gnu/4.8/../../../x86_64-linux-gnu/libreadline.so
memcpy                                            /lib/x86_64-linux-gnu/libc.so.6
                                                  build/py/gc.o
memcpy@@GLIBC_2.14                                /lib/x86_64-linux-gnu/libc.so.6
memcpy@GLIBC_2.14                                 /lib/x86_64-linux-gnu/libc.so.6
                                                  //lib/x86_64-linux-gnu/libtinfo.so.5
                                                  /usr/lib/gcc/x86_64-linux-gnu/4.8/../../../x86_64-linux-gnu/libffi.so
                                                  /usr/lib/gcc/x86_64-linux-gnu/4.8/../../../x86_64-linux-gnu/libreadline.so
memmove                                           /lib/x86_64-linux-gnu/libc.so.6
                                                  build/py/../extmod/modure.o
                                                  build/py/objstr.o
                                                  build/py/objlist.o
                                                  build/py/objarray.o
                                                  build/py/vstr.o
memmove@@GLIBC_2.2.5                              /lib/x86_64-linux-gnu/libc.so.6
memmove@GLIBC_2.2.5                               /lib/x86_64-linux-gnu/libc.so.6
                                                  /usr/lib/gcc/x86_64-linux-gnu/4.8/../../../x86_64-linux-gnu/libm.so
                                                  /usr/lib/gcc/x86_64-linux-gnu/4.8/../../../x86_64-linux-gnu/libreadline.so
mempcpy                                           /lib/x86_64-linux-gnu/libc.so.6
mempcpy@@GLIBC_2.2.5                              /lib/x86_64-linux-gnu/libc.so.6
mempcpy@GLIBC_2.2.5                               /lib/x86_64-linux-gnu/libc.so.6
memset                                            /lib/x86_64-linux-gnu/libc.so.6
                                                  build/py/gc.o
memset@@GLIBC_2.2.5                               /lib/x86_64-linux-gnu/libc.so.6
memset@GLIBC_2.2.5                                /lib/x86_64-linux-gnu/libc.so.6
                                                  //lib/x86_64-linux-gnu/libtinfo.so.5
                                                  /usr/lib/gcc/x86_64-linux-gnu/4.8/../../../x86_64-linux-gnu/libm.so
                                                  /usr/lib/gcc/x86_64-linux-gnu/4.8/../../../x86_64-linux-gnu/libreadline.so
mkdir                                             /lib/x86_64-linux-gnu/libc.so.6
mkdir@@GLIBC_2.2.5                                /lib/x86_64-linux-gnu/libc.so.6
mkdir@GLIBC_2.2.5                                 /lib/x86_64-linux-gnu/libc.so.6
mkostemp64                                        /lib/x86_64-linux-gnu/libc.so.6
mkostemp64@@GLIBC_2.7                             /lib/x86_64-linux-gnu/libc.so.6
mkostemp64@GLIBC_2.7                              /lib/x86_64-linux-gnu/libc.so.6
mkostemps64                                       /lib/x86_64-linux-gnu/libc.so.6
mkostemps64@@GLIBC_2.11                           /lib/x86_64-linux-gnu/libc.so.6
mkostemps64@GLIBC_2.11                            /lib/x86_64-linux-gnu/libc.so.6
mkstemp64                                         /lib/x86_64-linux-gnu/libc.so.6
mkstemp64@@GLIBC_2.2.5                            /lib/x86_64-linux-gnu/libc.so.6
mkstemp64@GLIBC_2.2.5                             /lib/x86_64-linux-gnu/libc.so.6
mkstemps64                                        /lib/x86_64-linux-gnu/libc.so.6
mkstemps64@@GLIBC_2.11                            /lib/x86_64-linux-gnu/libc.so.6
mkstemps64@GLIBC_2.11                             /lib/x86_64-linux-gnu/libc.so.6
mktemp                                            /lib/x86_64-linux-gnu/libc.so.6
mktemp@@GLIBC_2.2.5                               /lib/x86_64-linux-gnu/libc.so.6
mktemp@GLIBC_2.2.5                                /lib/x86_64-linux-gnu/libc.so.6
mmap                                              /lib/x86_64-linux-gnu/libc.so.6
                                                  build/alloc.o
mmap64                                            /lib/x86_64-linux-gnu/libc.so.6
mmap64@@GLIBC_2.2.5                               /lib/x86_64-linux-gnu/libc.so.6
mmap64@GLIBC_2.2.5                                /lib/x86_64-linux-gnu/libc.so.6
mmap@@GLIBC_2.2.5                                 /lib/x86_64-linux-gnu/libc.so.6
mmap@GLIBC_2.2.5                                  /lib/x86_64-linux-gnu/libc.so.6
                                                  /usr/lib/gcc/x86_64-linux-gnu/4.8/../../../x86_64-linux-gnu/libffi.so
mod_binascii_hexlify_obj                          build/py/../extmod/modubinascii.o
mod_ffi_as_bytearray_obj                          build/modffi.o
mod_ffi_callback_obj                              build/modffi.o
mod_ffi_func_obj                                  build/modffi.o
mod_ffi_open_obj                                  build/modffi.o
mod_re_compile_obj                                build/py/../extmod/modure.o
mod_re_match_obj                                  build/py/../extmod/modure.o
mod_re_search_obj                                 build/py/../extmod/modure.o
modf                                              /usr/lib/gcc/x86_64-linux-gnu/4.8/../../../x86_64-linux-gnu/libm.so
                                                  build/modtime.o
                                                  build/py/modmath.o
modf@@GLIBC_2.2.5                                 /usr/lib/gcc/x86_64-linux-gnu/4.8/../../../x86_64-linux-gnu/libm.so
                                                  /lib/x86_64-linux-gnu/libc.so.6
modf@GLIBC_2.2.5                                  /usr/lib/gcc/x86_64-linux-gnu/4.8/../../../x86_64-linux-gnu/libm.so
modff                                             /usr/lib/gcc/x86_64-linux-gnu/4.8/../../../x86_64-linux-gnu/libm.so
modff@@GLIBC_2.2.5                                /usr/lib/gcc/x86_64-linux-gnu/4.8/../../../x86_64-linux-gnu/libm.so
                                                  /lib/x86_64-linux-gnu/libc.so.6
modff@GLIBC_2.2.5                                 /usr/lib/gcc/x86_64-linux-gnu/4.8/../../../x86_64-linux-gnu/libm.so
modfl                                             /usr/lib/gcc/x86_64-linux-gnu/4.8/../../../x86_64-linux-gnu/libm.so
modfl@@GLIBC_2.2.5                                /usr/lib/gcc/x86_64-linux-gnu/4.8/../../../x86_64-linux-gnu/libm.so
                                                  /lib/x86_64-linux-gnu/libc.so.6
modfl@GLIBC_2.2.5                                 /usr/lib/gcc/x86_64-linux-gnu/4.8/../../../x86_64-linux-gnu/libm.so
modify_ldt                                        /lib/x86_64-linux-gnu/libc.so.6
modify_ldt@@GLIBC_2.2.5                           /lib/x86_64-linux-gnu/libc.so.6
modify_ldt@GLIBC_2.2.5                            /lib/x86_64-linux-gnu/libc.so.6
moncontrol                                        /lib/x86_64-linux-gnu/libc.so.6
moncontrol@@GLIBC_2.2.5                           /lib/x86_64-linux-gnu/libc.so.6
moncontrol@GLIBC_2.2.5                            /lib/x86_64-linux-gnu/libc.so.6
monstartup                                        /lib/x86_64-linux-gnu/libc.so.6
monstartup@@GLIBC_2.2.5                           /lib/x86_64-linux-gnu/libc.so.6
monstartup@GLIBC_2.2.5                            /lib/x86_64-linux-gnu/libc.so.6
mount                                             /lib/x86_64-linux-gnu/libc.so.6
mount@@GLIBC_2.2.5                                /lib/x86_64-linux-gnu/libc.so.6
mount@GLIBC_2.2.5                                 /lib/x86_64-linux-gnu/libc.so.6
mp_arg_check_num                                  build/py/argcheck.o
                                                  build/py/../extmod/moduhashlib.o
                                                  build/py/objzip.o
                                                  build/py/objtype.o
                                                  build/py/objtuple.o
                                                  build/py/objstr.o
                                                  build/py/objset.o
                                                  build/py/objreversed.o
                                                  build/py/objrange.o
                                                  build/py/objproperty.o
                                                  build/py/objobject.o
                                                  build/py/objmap.o
                                                  build/py/objlist.o
                                                  build/py/objint.o
                                                  build/py/objfun.o
                                                  build/py/objfloat.o
                                                  build/py/objfilter.o
                                                  build/py/objexcept.o
                                                  build/py/objdict.o
                                                  build/py/objcomplex.o
                                                  build/py/objbool.o
                                                  build/py/objarray.o
mp_arg_error_unimpl_kw                            build/py/argcheck.o
                                                  build/py/objstr.o
mp_arg_parse_all                                  build/py/argcheck.o
                                                  build/file.o
                                                  build/py/objlist.o
mp_arg_parse_all_kw_array                         build/py/argcheck.o
                                                  build/file.o
                                                  build/py/objenumerate.o
mp_binary_get_int                                 build/py/binary.o
                                                  build/py/../extmod/moductypes.o
mp_binary_get_size                                build/py/binary.o
                                                  build/py/modstruct.o
                                                  build/py/objarray.o
mp_binary_get_val                                 build/py/binary.o
                                                  build/py/modstruct.o
mp_binary_get_val_array                           build/py/binary.o
                                                  build/modffi.o
                                                  build/py/objarray.o
mp_binary_op                                      build/py/runtime.o
                                                  build/py/../extmod/moduheapq.o
                                                  build/py/vm.o
                                                  build/py/modbuiltins.o
                                                  build/py/sequence.o
                                                  build/py/objtype.o
                                                  build/py/objlist.o
                                                  build/py/objint.o
                                                  build/py/objbool.o
                                                  build/py/nativeglue.o
mp_binary_op_method_name                          build/py/objtype.o
                                                  build/py/showbc.o
                                                  build/py/runtime.o
mp_binary_set_int                                 build/py/binary.o
                                                  build/py/../extmod/moductypes.o
mp_binary_set_val                                 build/py/binary.o
                                                  build/py/../extmod/moductypes.o
                                                  build/py/modstruct.o
mp_binary_set_val_array                           build/py/binary.o
                                                  build/modffi.o
                                                  build/py/objarray.o
mp_binary_set_val_array_from_int                  build/py/binary.o
mp_builtin___build_class___obj                    build/py/modbuiltins.o
                                                  build/py/runtime.o
mp_builtin___import__                             build/py/builtinimport.o
                                                  build/main.o
                                                  build/py/runtime.o
mp_builtin___import___obj                         build/py/builtinimport.o
                                                  build/py/modbuiltins.o
mp_builtin___repl_print___obj                     build/py/modbuiltins.o
mp_builtin_abs_obj                                build/py/modbuiltins.o
mp_builtin_all_obj                                build/py/modbuiltins.o
mp_builtin_any_obj                                build/py/modbuiltins.o
mp_builtin_bin_obj                                build/py/modbuiltins.o
mp_builtin_callable_obj                           build/py/modbuiltins.o
mp_builtin_chr_obj                                build/py/modbuiltins.o
mp_builtin_compile_obj                            build/py/builtinevex.o
                                                  build/py/modbuiltins.o
mp_builtin_dir_obj                                build/py/modbuiltins.o
mp_builtin_divmod_obj                             build/py/modbuiltins.o
mp_builtin_eval_obj                               build/py/builtinevex.o
                                                  build/py/modbuiltins.o
mp_builtin_exec_obj                               build/py/builtinevex.o
                                                  build/py/modbuiltins.o
mp_builtin_getattr_obj                            build/py/modbuiltins.o
mp_builtin_globals_obj                            build/py/modbuiltins.o
mp_builtin_hasattr_obj                            build/py/modbuiltins.o
mp_builtin_hash_obj                               build/py/modbuiltins.o
mp_builtin_hex_obj                                build/py/modbuiltins.o
mp_builtin_id_obj                                 build/py/modbuiltins.o
mp_builtin_input_obj                              build/input.o
                                                  build/py/modbuiltins.o
mp_builtin_isinstance_obj                         build/py/objtype.o
                                                  build/py/modbuiltins.o
mp_builtin_issubclass_obj                         build/py/objtype.o
                                                  build/py/modbuiltins.o
mp_builtin_iter_obj                               build/py/modbuiltins.o
mp_builtin_len_obj                                build/py/modbuiltins.o
mp_builtin_locals_obj                             build/py/modbuiltins.o
mp_builtin_max_obj                                build/py/modbuiltins.o
mp_builtin_min_obj                                build/py/modbuiltins.o
mp_builtin_next_obj                               build/py/modbuiltins.o
                                                  build/py/runtime.o
mp_builtin_oct_obj                                build/py/modbuiltins.o
mp_builtin_open                                   build/file.o
                                                  build/modsocket.o
mp_builtin_open_obj                               build/file.o
                                                  build/py/modio.o
                                                  build/py/modbuiltins.o
mp_builtin_ord_obj                                build/py/modbuiltins.o
mp_builtin_pow_obj                                build/py/modbuiltins.o
mp_builtin_print_obj                              build/py/modbuiltins.o
mp_builtin_repr_obj                               build/py/modbuiltins.o
mp_builtin_round_obj                              build/py/modbuiltins.o
mp_builtin_setattr_obj                            build/py/modbuiltins.o
mp_builtin_sorted_obj                             build/py/modbuiltins.o
mp_builtin_sum_obj                                build/py/modbuiltins.o
mp_bytecode_print                                 build/py/showbc.o
                                                  build/py/emitglue.o
mp_bytecode_print2                                build/py/showbc.o
mp_bytecode_print_str                             build/py/showbc.o
mp_call_function_0                                build/py/runtime.o
                                                  build/main.o
                                                  build/py/modbuiltins.o
                                                  build/py/builtinevex.o
mp_call_function_1                                build/py/runtime.o
                                                  build/py/modbuiltins.o
                                                  build/py/objtype.o
                                                  build/py/objlist.o
mp_call_function_2                                build/py/runtime.o
mp_call_function_n_kw                             build/py/runtime.o
                                                  build/modffi.o
                                                  build/py/vm.o
                                                  build/py/modbuiltins.o
                                                  build/py/objtype.o
                                                  build/py/objmap.o
                                                  build/py/objfilter.o
                                                  build/py/objclosure.o
                                                  build/py/objboundmeth.o
                                                  build/py/nativeglue.o
mp_call_method_n_kw                               build/py/runtime.o
                                                  build/py/vm.o
                                                  build/py/objtype.o
                                                  build/py/objreversed.o
                                                  build/py/objgetitemiter.o
                                                  build/py/obj.o
                                                  build/py/nativeglue.o
                                                  build/py/gc.o
mp_call_method_n_kw_var                           build/py/runtime.o
                                                  build/py/vm.o
mp_classify_fp_as_int                             build/py/objint.o
                                                  build/py/objint_mpz.o
mp_compile                                        build/py/compile.o
                                                  build/main.o
                                                  build/py/runtime.o
mp_const_GeneratorExit_obj                        build/py/objexcept.o
                                                  build/py/vm.o
                                                  build/py/objgenerator.o
mp_const_MemoryError_obj                          build/py/objexcept.o
                                                  build/py/vm.o
mp_const_ellipsis_obj                             build/py/objslice.o
                                                  build/py/vm.o
                                                  build/py/modbuiltins.o
                                                  build/py/emitnx64.o
mp_const_empty_bytes_obj                          build/py/objstr.o
mp_const_empty_map                                build/py/map.o
mp_const_empty_tuple_obj                          build/py/objtuple.o
                                                  build/py/bc.o
                                                  build/py/objexcept.o
mp_const_false_obj                                build/py/objbool.o
                                                  build/main.o
                                                  build/py/../extmod/moduheapq.o
                                                  build/py/../extmod/modujson.o
                                                  build/py/vm.o
                                                  build/py/modmath.o
                                                  build/py/modgc.o
                                                  build/py/modbuiltins.o
                                                  build/py/builtinimport.o
                                                  build/py/objtype.o
                                                  build/py/objtuple.o
                                                  build/py/objstrunicode.o
                                                  build/py/objstr.o
                                                  build/py/objset.o
                                                  build/py/objrange.o
                                                  build/py/objnone.o
                                                  build/py/objlist.o
                                                  build/py/objint_mpz.o
                                                  build/py/objint.o
                                                  build/py/objfloat.o
                                                  build/py/objdict.o
                                                  build/py/objcomplex.o
                                                  build/py/objarray.o
                                                  build/py/obj.o
                                                  build/py/nativeglue.o
                                                  build/py/runtime.o
                                                  build/py/emitnx64.o
mp_const_none_obj                                 build/py/objnone.o
                                                  build/modffi.o
                                                  build/modsocket.o
                                                  build/modtermios.o
                                                  build/modtime.o
                                                  build/modos.o
                                                  build/file.o
                                                  build/main.o
                                                  build/py/../extmod/moduhashlib.o
                                                  build/py/../extmod/moduheapq.o
                                                  build/py/../extmod/modure.o
                                                  build/py/../extmod/modujson.o
                                                  build/py/vm.o
                                                  build/py/modsys.o
                                                  build/py/modmicropython.o
                                                  build/py/modgc.o
                                                  build/py/modbuiltins.o
                                                  build/py/builtinimport.o
                                                  build/py/stream.o
                                                  build/py/sequence.o
                                                  build/py/objtype.o
                                                  build/py/objstringio.o
                                                  build/py/objstrunicode.o
                                                  build/py/objstr.o
                                                  build/py/objset.o
                                                  build/py/objproperty.o
                                                  build/py/objobject.o
                                                  build/py/objlist.o
                                                  build/py/objgenerator.o
                                                  build/py/objfilter.o
                                                  build/py/objexcept.o
                                                  build/py/objdict.o
                                                  build/py/objarray.o
                                                  build/py/obj.o
                                                  build/py/nativeglue.o
                                                  build/py/runtime.o
                                                  build/py/emitnx64.o
                                                  build/py/compile.o
mp_const_true_obj                                 build/py/objbool.o
                                                  build/py/../extmod/moduheapq.o
                                                  build/py/../extmod/modujson.o
                                                  build/py/vm.o
                                                  build/py/modmath.o
                                                  build/py/modgc.o
                                                  build/py/modbuiltins.o
                                                  build/py/sequence.o
                                                  build/py/objtype.o
                                                  build/py/objtuple.o
                                                  build/py/objstrunicode.o
                                                  build/py/objstr.o
                                                  build/py/objset.o
                                                  build/py/objrange.o
                                                  build/py/objlist.o
                                                  build/py/objint_mpz.o
                                                  build/py/objint.o
                                                  build/py/objfloat.o
                                                  build/py/objdict.o
                                                  build/py/objcomplex.o
                                                  build/py/objarray.o
                                                  build/py/obj.o
                                                  build/py/nativeglue.o
                                                  build/py/runtime.o
                                                  build/py/emitnx64.o
mp_convert_native_to_obj                          build/py/nativeglue.o
                                                  build/py/objfun.o
mp_convert_obj_to_native                          build/py/nativeglue.o
                                                  build/py/objfun.o
mp_decode_uint                                    build/py/bc.o
                                                  build/py/showbc.o
                                                  build/py/vm.o
                                                  build/py/objgenerator.o
                                                  build/py/objfun.o
mp_deinit                                         build/py/runtime.o
                                                  build/main.o
mp_delete_global                                  build/py/runtime.o
                                                  build/py/vm.o
                                                  build/py/nativeglue.o
mp_delete_name                                    build/py/runtime.o
                                                  build/py/vm.o
                                                  build/py/nativeglue.o
mp_emit_glue_assign_bytecode                      build/py/emitglue.o
                                                  build/py/emitbc.o
mp_emit_glue_assign_native                        build/py/emitglue.o
                                                  build/py/emitnx64.o
mp_emit_glue_new_raw_code                         build/py/emitglue.o
                                                  build/py/scope.o
mp_emitter_warning                                build/py/warning.o
mp_execute_bytecode                               build/py/vm.o
                                                  build/py/objgenerator.o
                                                  build/py/objfun.o
mp_fun_table                                      build/py/nativeglue.o
                                                  build/py/emitnx64.o
mp_get_buffer                                     build/py/obj.o
                                                  build/py/objstr.o
                                                  build/py/objarray.o
                                                  build/py/nativeglue.o
mp_get_buffer_raise                               build/py/obj.o
                                                  build/modsocket.o
                                                  build/py/../extmod/modubinascii.o
                                                  build/py/../extmod/moduhashlib.o
                                                  build/py/../extmod/moduzlib.o
                                                  build/py/../extmod/moductypes.o
                                                  build/py/modstruct.o
                                                  build/py/stream.o
                                                  build/py/objstringio.o
                                                  build/py/objstr.o
                                                  build/py/objint.o
                                                  build/py/objarray.o
mp_get_index                                      build/py/obj.o
                                                  build/py/sequence.o
                                                  build/py/objtuple.o
                                                  build/py/objstrunicode.o
                                                  build/py/objstr.o
                                                  build/py/objrange.o
                                                  build/py/objlist.o
                                                  build/py/objarray.o
mp_getiter                                        build/py/runtime.o
                                                  build/modffi.o
                                                  build/py/vm.o
                                                  build/py/modbuiltins.o
                                                  build/py/objzip.o
                                                  build/py/objtuple.o
                                                  build/py/objstr.o
                                                  build/py/objset.o
                                                  build/py/objmap.o
                                                  build/py/objlist.o
                                                  build/py/objfilter.o
                                                  build/py/objenumerate.o
                                                  build/py/objdict.o
                                                  build/py/objarray.o
                                                  build/py/nativeglue.o
mp_identity                                       build/py/obj.o
                                                  build/file.o
                                                  build/py/objzip.o
                                                  build/py/objtuple.o
                                                  build/py/objstringio.o
                                                  build/py/objstrunicode.o
                                                  build/py/objstr.o
                                                  build/py/objset.o
                                                  build/py/objreversed.o
                                                  build/py/objrange.o
                                                  build/py/objmap.o
                                                  build/py/objlist.o
                                                  build/py/objgetitemiter.o
                                                  build/py/objgenerator.o
                                                  build/py/objfilter.o
                                                  build/py/objenumerate.o
                                                  build/py/objdict.o
                                                  build/py/objarray.o
mp_identity_obj                                   build/py/obj.o
                                                  build/file.o
                                                  build/py/objstringio.o
mp_import_all                                     build/py/runtime.o
                                                  build/py/vm.o
                                                  build/py/nativeglue.o
mp_import_from                                    build/py/runtime.o
                                                  build/py/vm.o
                                                  build/py/nativeglue.o
mp_import_name                                    build/py/runtime.o
                                                  build/py/vm.o
                                                  build/py/nativeglue.o
mp_import_stat                                    build/main.o
                                                  build/py/builtinimport.o
mp_init                                           build/py/runtime.o
                                                  build/main.o
mp_init_emergency_exception_buf                   build/py/objexcept.o
                                                  build/py/runtime.o
mp_instance_cast_to_native_base                   build/py/objtype.o
                                                  build/py/objtuple.o
mp_iternext                                       build/py/runtime.o
                                                  build/modffi.o
                                                  build/py/modbuiltins.o
                                                  build/py/objzip.o
                                                  build/py/objtuple.o
                                                  build/py/objstr.o
                                                  build/py/objset.o
                                                  build/py/objmap.o
                                                  build/py/objlist.o
                                                  build/py/objfilter.o
                                                  build/py/objenumerate.o
                                                  build/py/objdict.o
                                                  build/py/objarray.o
                                                  build/py/nativeglue.o
mp_iternext_allow_raise                           build/py/runtime.o
                                                  build/py/vm.o
                                                  build/py/modbuiltins.o
mp_lexer_free                                     build/py/lexer.o
                                                  build/py/parse.o
mp_lexer_new                                      build/py/lexer.o
                                                  build/py/lexerunix.o
                                                  build/py/lexerstr.o
mp_lexer_new_from_file                            build/py/lexerunix.o
                                                  build/main.o
                                                  build/py/builtinimport.o
mp_lexer_new_from_str_len                         build/py/lexerstr.o
                                                  build/main.o
                                                  build/py/builtinevex.o
mp_lexer_show_token                               build/py/lexer.o
mp_lexer_to_next                                  build/py/lexer.o
                                                  build/py/parse.o
mp_load_attr                                      build/py/runtime.o
                                                  build/py/vm.o
                                                  build/py/nativeglue.o
mp_load_build_class                               build/py/runtime.o
                                                  build/py/vm.o
                                                  build/py/nativeglue.o
mp_load_const_bytes                               build/py/runtime.o
                                                  build/py/vm.o
                                                  build/py/nativeglue.o
mp_load_const_str                                 build/py/runtime.o
                                                  build/py/vm.o
                                                  build/py/nativeglue.o
mp_load_global                                    build/py/runtime.o
                                                  build/py/vm.o
                                                  build/py/nativeglue.o
mp_load_method                                    build/py/runtime.o
                                                  build/py/vm.o
                                                  build/py/modbuiltins.o
                                                  build/py/nativeglue.o
mp_load_method_maybe                              build/py/runtime.o
                                                  build/py/modbuiltins.o
                                                  build/py/builtinimport.o
                                                  build/py/objtype.o
                                                  build/py/objreversed.o
                                                  build/py/obj.o
                                                  build/py/compile.o
                                                  build/py/gc.o
mp_load_name                                      build/py/runtime.o
                                                  build/py/vm.o
                                                  build/py/nativeglue.o
mp_make_closure_from_raw_code                     build/py/emitglue.o
                                                  build/py/vm.o
mp_make_function_from_raw_code                    build/py/emitglue.o
                                                  build/py/vm.o
                                                  build/py/nativeglue.o
                                                  build/py/compile.o
mp_make_raise_obj                                 build/py/runtime.o
                                                  build/py/vm.o
                                                  build/py/objgenerator.o
                                                  build/py/nativeglue.o
mp_map_clear                                      build/py/map.o
                                                  build/py/objdict.o
mp_map_deinit                                     build/py/map.o
                                                  build/py/objmodule.o
                                                  build/py/compile.o
mp_map_free                                       build/py/map.o
mp_map_init                                       build/py/map.o
                                                  build/modsocket.o
                                                  build/py/objtype.o
                                                  build/py/objmodule.o
                                                  build/py/objdict.o
                                                  build/py/compile.o
mp_map_init_fixed_table                           build/py/map.o
                                                  build/py/objfun.o
                                                  build/py/objdict.o
                                                  build/py/argcheck.o
mp_map_lookup                                     build/py/map.o
                                                  build/py/bc.o
                                                  build/py/vm.o
                                                  build/py/modbuiltins.o
                                                  build/py/builtinimport.o
                                                  build/py/objtype.o
                                                  build/py/objstr.o
                                                  build/py/objmodule.o
                                                  build/py/objdict.o
                                                  build/py/argcheck.o
                                                  build/py/runtime.o
                                                  build/py/compile.o
mp_map_new                                        build/py/map.o
mp_math_e_obj                                     build/py/modmath.o
                                                  build/py/modcmath.o
mp_math_pi_obj                                    build/py/modmath.o
                                                  build/py/modcmath.o
mp_maxsize_obj                                    build/py/objint_mpz.o
                                                  build/py/modsys.o
mp_micropython_mem_info                           build/py/modmicropython.o
                                                  build/main.o
mp_module___main__                                build/py/runtime.o
                                                  build/py/objmodule.o
mp_module_array                                   build/py/modarray.o
                                                  build/py/objmodule.o
mp_module_builtins                                build/py/modbuiltins.o
                                                  build/py/objmodule.o
mp_module_builtins_globals                        build/py/modbuiltins.o
                                                  build/py/objmodule.o
                                                  build/py/runtime.o
mp_module_cmath                                   build/py/modcmath.o
                                                  build/py/objmodule.o
mp_module_collections                             build/py/modcollections.o
                                                  build/py/objmodule.o
mp_module_deinit                                  build/py/objmodule.o
                                                  build/py/runtime.o
mp_module_ffi                                     build/modffi.o
                                                  build/py/objmodule.o
mp_module_gc                                      build/py/modgc.o
                                                  build/py/objmodule.o
mp_module_get                                     build/py/objmodule.o
                                                  build/py/builtinimport.o
mp_module_init                                    build/py/objmodule.o
                                                  build/py/runtime.o
mp_module_io                                      build/py/modio.o
                                                  build/py/objmodule.o
mp_module_math                                    build/py/modmath.o
                                                  build/py/objmodule.o
mp_module_micropython                             build/py/modmicropython.o
                                                  build/py/objmodule.o
mp_module_os                                      build/modos.o
                                                  build/py/objmodule.o
mp_module_register                                build/py/objmodule.o
mp_module_socket                                  build/modsocket.o
                                                  build/py/objmodule.o
mp_module_struct                                  build/py/modstruct.o
                                                  build/py/objmodule.o
mp_module_sys                                     build/py/modsys.o
                                                  build/py/objmodule.o
mp_module_termios                                 build/modtermios.o
                                                  build/py/objmodule.o
mp_module_time                                    build/modtime.o
                                                  build/py/objmodule.o
mp_module_ubinascii                               build/py/../extmod/modubinascii.o
                                                  build/py/objmodule.o
mp_module_uctypes                                 build/py/../extmod/moductypes.o
                                                  build/py/objmodule.o
                                                  build/py/compile.o
mp_module_uhashlib                                build/py/../extmod/moduhashlib.o
                                                  build/py/objmodule.o
mp_module_uheapq                                  build/py/../extmod/moduheapq.o
                                                  build/py/objmodule.o
mp_module_ujson                                   build/py/../extmod/modujson.o
                                                  build/py/objmodule.o
mp_module_ure                                     build/py/../extmod/modure.o
                                                  build/py/objmodule.o
mp_module_uzlib                                   build/py/../extmod/moduzlib.o
                                                  build/py/objmodule.o
mp_namedtuple_obj                                 build/py/objnamedtuple.o
                                                  build/py/modcollections.o
mp_native_call_function_n_kw                      build/py/nativeglue.o
mp_native_raise                                   build/py/nativeglue.o
mp_not_implemented                                build/py/runtime.o
                                                  build/py/../extmod/moduhashlib.o
                                                  build/py/../extmod/modure.o
                                                  build/py/objarray.o
mp_obj_cell_get                                   build/py/objcell.o
                                                  build/py/vm.o
mp_obj_cell_set                                   build/py/objcell.o
                                                  build/py/vm.o
                                                  build/py/modbuiltins.o
mp_obj_code_get_name                              build/py/objfun.o
                                                  build/py/objgenerator.o
mp_obj_complex_binary_op                          build/py/objcomplex.o
                                                  build/py/objint_mpz.o
                                                  build/py/objfloat.o
                                                  build/py/runtime.o
mp_obj_complex_get                                build/py/objcomplex.o
                                                  build/py/modbuiltins.o
                                                  build/py/obj.o
mp_obj_dict_delete                                build/py/objdict.o
                                                  build/py/objmodule.o
                                                  build/py/runtime.o
mp_obj_dict_get                                   build/py/objdict.o
                                                  build/py/../extmod/moductypes.o
                                                  build/py/builtinimport.o
                                                  build/py/objstr.o
mp_obj_dict_get_map                               build/py/objdict.o
                                                  build/py/builtinimport.o
                                                  build/py/objtype.o
                                                  build/py/runtime.o
mp_obj_dict_init                                  build/py/objdict.o
                                                  build/py/runtime.o
mp_obj_dict_len                                   build/py/objdict.o
                                                  build/py/runtime.o
mp_obj_dict_store                                 build/py/objdict.o
                                                  build/py/../extmod/modujson.o
                                                  build/py/bc.o
                                                  build/py/vm.o
                                                  build/py/builtinimport.o
                                                  build/py/objmodule.o
                                                  build/py/nativeglue.o
                                                  build/py/runtime.o
mp_obj_equal                                      build/py/obj.o
                                                  build/py/sequence.o
                                                  build/py/objdict.o
                                                  build/py/map.o
                                                  build/py/runtime.o
mp_obj_exception_add_traceback                    build/py/objexcept.o
                                                  build/py/vm.o
                                                  build/py/parsenum.o
                                                  build/py/compile.o
                                                  build/py/parse.o
mp_obj_exception_clear_traceback                  build/py/objexcept.o
                                                  build/main.o
mp_obj_exception_get_traceback                    build/py/objexcept.o
                                                  build/py/obj.o
mp_obj_exception_get_value                        build/py/objexcept.o
                                                  build/main.o
                                                  build/py/vm.o
mp_obj_exception_make_new                         build/py/objexcept.o
                                                  build/py/objtype.o
mp_obj_exception_match                            build/py/objexcept.o
                                                  build/py/vm.o
                                                  build/py/runtime.o
mp_obj_float_binary_op                            build/py/objfloat.o
                                                  build/py/objint_mpz.o
                                                  build/py/runtime.o
mp_obj_float_divmod                               build/py/objfloat.o
                                                  build/py/modbuiltins.o
mp_obj_float_get                                  build/py/objfloat.o
                                                  build/py/modbuiltins.o
                                                  build/py/objint.o
                                                  build/py/obj.o
mp_obj_fun_get_name                               build/py/objfun.o
                                                  build/py/bc.o
mp_obj_gen_resume                                 build/py/objgenerator.o
                                                  build/py/runtime.o
mp_obj_get_array                                  build/py/obj.o
                                                  build/py/runtime.o
mp_obj_get_array_fixed_n                          build/py/obj.o
                                                  build/py/runtime.o
mp_obj_get_complex                                build/py/obj.o
                                                  build/py/modcmath.o
                                                  build/py/objcomplex.o
mp_obj_get_float                                  build/py/obj.o
                                                  build/modtime.o
                                                  build/py/modcmath.o
                                                  build/py/modmath.o
                                                  build/py/modbuiltins.o
                                                  build/py/binary.o
                                                  build/py/objstr.o
                                                  build/py/objfloat.o
                                                  build/py/objcomplex.o
mp_obj_get_int                                    build/py/obj.o
                                                  build/modsocket.o
                                                  build/modtermios.o
                                                  build/py/../extmod/modure.o
                                                  build/py/../extmod/moductypes.o
                                                  build/py/pfenv.o
                                                  build/py/modbuiltins.o
                                                  build/py/binary.o
                                                  build/py/stream.o
                                                  build/py/objstr.o
                                                  build/py/objreversed.o
                                                  build/py/objrange.o
                                                  build/py/objint.o
                                                  build/py/objarray.o
                                                  build/py/argcheck.o
                                                  build/py/nativeglue.o
mp_obj_get_int_maybe                              build/py/obj.o
                                                  build/main.o
                                                  build/py/objtuple.o
                                                  build/py/objstrunicode.o
                                                  build/py/objstr.o
                                                  build/py/objlist.o
mp_obj_get_type                                   build/py/obj.o
                                                  build/main.o
                                                  build/py/../extmod/modujson.o
                                                  build/py/vm.o
                                                  build/py/modbuiltins.o
                                                  build/py/sequence.o
                                                  build/py/opmethods.o
                                                  build/py/objtype.o
                                                  build/py/objtuple.o
                                                  build/py/objstrunicode.o
                                                  build/py/objstr.o
                                                  build/py/objgetitemiter.o
                                                  build/py/objgenerator.o
                                                  build/py/objexcept.o
                                                  build/py/runtime.o
mp_obj_get_type_str                               build/py/obj.o
                                                  build/file.o
                                                  build/py/modbuiltins.o
                                                  build/py/objtype.o
                                                  build/py/objstrunicode.o
                                                  build/py/objstr.o
                                                  build/py/runtime.o
mp_obj_hash                                       build/py/obj.o
                                                  build/py/modbuiltins.o
                                                  build/py/objtuple.o
                                                  build/py/map.o
mp_obj_id                                         build/py/obj.o
                                                  build/py/modbuiltins.o
mp_obj_instance_call                              build/py/objtype.o
                                                  build/py/obj.o
mp_obj_instance_is_callable                       build/py/objtype.o
                                                  build/py/obj.o
mp_obj_instance_load_attr                         build/py/objtype.o
                                                  build/py/vm.o
mp_obj_instance_store_attr                        build/py/objtype.o
                                                  build/py/vm.o
mp_obj_int_as_float                               build/py/objint_mpz.o
                                                  build/py/obj.o
mp_obj_int_binary_op                              build/py/objint_mpz.o
                                                  build/py/objint.o
mp_obj_int_binary_op_extra_cases                  build/py/objint.o
                                                  build/py/objint_mpz.o
mp_obj_int_formatted                              build/py/objint.o
                                                  build/py/pfenv.o
mp_obj_int_formatted_impl                         build/py/objint_mpz.o
                                                  build/py/objint.o
mp_obj_int_get_checked                            build/py/objint_mpz.o
                                                  build/py/objint.o
                                                  build/py/obj.o
mp_obj_int_get_truncated                          build/py/objint_mpz.o
                                                  build/modffi.o
                                                  build/modsocket.o
                                                  build/py/../extmod/modure.o
                                                  build/py/../extmod/moductypes.o
                                                  build/py/binary.o
                                                  build/py/stream.o
                                                  build/py/obj.o
mp_obj_int_hash                                   build/py/objint_mpz.o
                                                  build/py/obj.o
mp_obj_int_is_positive                            build/py/objint_mpz.o
                                                  build/py/pfenv.o
mp_obj_int_print                                  build/py/objint.o
mp_obj_int_unary_op                               build/py/objint_mpz.o
                                                  build/py/objint.o
mp_obj_is_callable                                build/py/obj.o
                                                  build/py/modbuiltins.o
                                                  build/py/objtype.o
                                                  build/py/runtime.o
mp_obj_is_exception_instance                      build/py/objexcept.o
                                                  build/py/vm.o
                                                  build/py/obj.o
                                                  build/py/runtime.o
mp_obj_is_exception_type                          build/py/objexcept.o
                                                  build/py/vm.o
                                                  build/py/runtime.o
mp_obj_is_package                                 build/py/builtinimport.o
                                                  build/main.o
                                                  build/py/runtime.o
mp_obj_is_subclass_fast                           build/py/objtype.o
                                                  build/main.o
                                                  build/py/vm.o
                                                  build/py/objtuple.o
                                                  build/py/objgenerator.o
                                                  build/py/objexcept.o
                                                  build/py/runtime.o
mp_obj_is_true                                    build/py/obj.o
                                                  build/modsocket.o
                                                  build/py/vm.o
                                                  build/py/modbuiltins.o
                                                  build/py/stream.o
                                                  build/py/objfilter.o
                                                  build/py/objbool.o
                                                  build/py/argcheck.o
                                                  build/py/nativeglue.o
mp_obj_len                                        build/py/obj.o
                                                  build/py/../extmod/moductypes.o
                                                  build/py/modbuiltins.o
                                                  build/py/objreversed.o
mp_obj_len_maybe                                  build/py/obj.o
                                                  build/modffi.o
                                                  build/py/objstr.o
                                                  build/py/objdict.o
                                                  build/py/objarray.o
mp_obj_list_append                                build/py/objlist.o
                                                  build/modsocket.o
                                                  build/main.o
                                                  build/py/../extmod/moduheapq.o
                                                  build/py/../extmod/modure.o
                                                  build/py/../extmod/modujson.o
                                                  build/py/vm.o
                                                  build/py/modbuiltins.o
                                                  build/py/stream.o
                                                  build/py/sequence.o
                                                  build/py/objstr.o
                                                  build/py/nativeglue.o
                                                  build/py/runtime.o
mp_obj_list_get                                   build/py/objlist.o
                                                  build/main.o
                                                  build/py/builtinimport.o
                                                  build/py/objstr.o
                                                  build/py/objnamedtuple.o
                                                  build/py/obj.o
                                                  build/py/runtime.o
mp_obj_list_init                                  build/py/objlist.o
                                                  build/main.o
                                                  build/py/../extmod/modujson.o
mp_obj_list_remove                                build/py/objlist.o
mp_obj_list_set_len                               build/py/objlist.o
                                                  build/py/runtime.o
mp_obj_list_sort                                  build/py/objlist.o
                                                  build/py/modbuiltins.o
mp_obj_list_store                                 build/py/objlist.o
mp_obj_module_get_globals                         build/py/objmodule.o
                                                  build/py/modbuiltins.o
                                                  build/py/builtinimport.o
                                                  build/py/runtime.o
mp_obj_new_bound_meth                             build/py/objboundmeth.o
                                                  build/py/modbuiltins.o
                                                  build/py/objtype.o
                                                  build/py/runtime.o
mp_obj_new_bytearray                              build/py/objarray.o
                                                  build/modsocket.o
mp_obj_new_bytearray_by_ref                       build/py/objarray.o
                                                  build/modffi.o
                                                  build/py/../extmod/moduzlib.o
                                                  build/py/../extmod/moductypes.o
mp_obj_new_bytes                                  build/py/objstr.o
                                                  build/modtermios.o
                                                  build/py/../extmod/moductypes.o
                                                  build/py/modstruct.o
                                                  build/py/runtime.o
                                                  build/py/compile.o
mp_obj_new_cell                                   build/py/objcell.o
                                                  build/py/bc.o
mp_obj_new_closure                                build/py/objclosure.o
                                                  build/py/emitglue.o
mp_obj_new_complex                                build/py/objcomplex.o
                                                  build/py/modcmath.o
                                                  build/py/parsenum.o
mp_obj_new_dict                                   build/py/objdict.o
                                                  build/py/../extmod/modujson.o
                                                  build/py/bc.o
                                                  build/py/vm.o
                                                  build/py/modbuiltins.o
                                                  build/py/objmodule.o
                                                  build/py/nativeglue.o
mp_obj_new_exception                              build/py/objexcept.o
                                                  build/input.o
                                                  build/main.o
                                                  build/py/modsys.o
                                                  build/py/modbuiltins.o
                                                  build/py/objset.o
                                                  build/py/objgenerator.o
mp_obj_new_exception_arg1                         build/py/objexcept.o
                                                  build/modffi.o
                                                  build/modsocket.o
                                                  build/modtermios.o
                                                  build/modos.o
                                                  build/file.o
                                                  build/py/../extmod/moduzlib.o
                                                  build/py/../extmod/modure.o
                                                  build/py/modsys.o
                                                  build/py/stream.o
                                                  build/py/objstr.o
                                                  build/py/stackctrl.o
mp_obj_new_exception_args                         build/py/objexcept.o
                                                  build/py/objgenerator.o
mp_obj_new_exception_msg                          build/py/objexcept.o
                                                  build/modffi.o
                                                  build/file.o
                                                  build/py/../extmod/moduheapq.o
                                                  build/py/../extmod/modure.o
                                                  build/py/../extmod/modujson.o
                                                  build/py/../extmod/moductypes.o
                                                  build/py/bc.o
                                                  build/py/vm.o
                                                  build/py/modbuiltins.o
                                                  build/py/builtinevex.o
                                                  build/py/stream.o
                                                  build/py/sequence.o
                                                  build/py/objtype.o
                                                  build/py/objtuple.o
                                                  build/py/objstringio.o
                                                  build/py/objstrunicode.o
                                                  build/py/objstr.o
                                                  build/py/objset.o
                                                  build/py/objnamedtuple.o
                                                  build/py/objlist.o
                                                  build/py/objint_mpz.o
                                                  build/py/objgenerator.o
                                                  build/py/objfloat.o
                                                  build/py/objdict.o
                                                  build/py/objcomplex.o
                                                  build/py/objarray.o
                                                  build/py/obj.o
                                                  build/py/argcheck.o
                                                  build/py/runtime.o
                                                  build/py/parsenum.o
                                                  build/py/compile.o
                                                  build/py/parse.o
mp_obj_new_exception_msg_varg                     build/py/objexcept.o
                                                  build/modffi.o
                                                  build/modsocket.o
                                                  build/py/bc.o
                                                  build/py/modbuiltins.o
                                                  build/py/builtinimport.o
                                                  build/py/stream.o
                                                  build/py/objtype.o
                                                  build/py/objstrunicode.o
                                                  build/py/objstr.o
                                                  build/py/objset.o
                                                  build/py/objnamedtuple.o
                                                  build/py/objint_mpz.o
                                                  build/py/objcomplex.o
                                                  build/py/obj.o
                                                  build/py/argcheck.o
                                                  build/py/runtime.o
                                                  build/py/parsenum.o
mp_obj_new_float                                  build/py/objfloat.o
                                                  build/modffi.o
                                                  build/modtime.o
                                                  build/py/../extmod/moductypes.o
                                                  build/py/modcmath.o
                                                  build/py/modmath.o
                                                  build/py/modbuiltins.o
                                                  build/py/binary.o
                                                  build/py/objint_mpz.o
                                                  build/py/objcomplex.o
                                                  build/py/runtime.o
                                                  build/py/parsenum.o
mp_obj_new_fun_bc                                 build/py/objfun.o
                                                  build/py/emitglue.o
mp_obj_new_fun_native                             build/py/objfun.o
                                                  build/py/emitglue.o
mp_obj_new_fun_viper                              build/py/objfun.o
                                                  build/py/emitglue.o
mp_obj_new_gen_wrap                               build/py/objgenerator.o
                                                  build/py/emitglue.o
mp_obj_new_getitem_iter                           build/py/objgetitemiter.o
                                                  build/py/runtime.o
mp_obj_new_int                                    build/py/objint_mpz.o
                                                  build/modffi.o
                                                  build/py/../extmod/moductypes.o
                                                  build/py/modmath.o
                                                  build/py/modbuiltins.o
                                                  build/py/binary.o
                                                  build/py/obj.o
                                                  build/py/nativeglue.o
                                                  build/py/runtime.o
mp_obj_new_int_from_float                         build/py/objint_mpz.o
                                                  build/py/objstr.o
                                                  build/py/objint.o
mp_obj_new_int_from_ll                            build/py/objint_mpz.o
                                                  build/py/../extmod/moductypes.o
                                                  build/py/binary.o
                                                  build/py/runtime.o
mp_obj_new_int_from_str_len                       build/py/objint_mpz.o
                                                  build/py/parsenum.o
mp_obj_new_int_from_uint                          build/py/objint_mpz.o
                                                  build/py/../extmod/moductypes.o
                                                  build/py/binary.o
                                                  build/py/stream.o
                                                  build/py/objint.o
                                                  build/py/obj.o
                                                  build/py/nativeglue.o
mp_obj_new_int_from_ull                           build/py/objint_mpz.o
                                                  build/py/binary.o
mp_obj_new_list                                   build/py/objlist.o
                                                  build/modsocket.o
                                                  build/modtermios.o
                                                  build/py/../extmod/modure.o
                                                  build/py/../extmod/modujson.o
                                                  build/py/vm.o
                                                  build/py/modbuiltins.o
                                                  build/py/stream.o
                                                  build/py/sequence.o
                                                  build/py/objstr.o
                                                  build/py/nativeglue.o
                                                  build/py/runtime.o
mp_obj_new_module                                 build/py/objmodule.o
                                                  build/py/builtinimport.o
mp_obj_new_set                                    build/py/objset.o
                                                  build/py/vm.o
                                                  build/py/nativeglue.o
mp_obj_new_slice                                  build/py/objslice.o
                                                  build/py/vm.o
                                                  build/py/nativeglue.o
mp_obj_new_str                                    build/py/objstr.o
                                                  build/modffi.o
                                                  build/input.o
                                                  build/main.o
                                                  build/py/../extmod/modure.o
                                                  build/py/../extmod/modujson.o
                                                  build/py/modbuiltins.o
                                                  build/py/builtinimport.o
                                                  build/py/binary.o
                                                  build/py/objstrunicode.o
                                                  build/py/objexcept.o
                                                  build/py/compile.o
mp_obj_new_str_from_vstr                          build/py/objstr.o
                                                  build/py/../extmod/modubinascii.o
                                                  build/py/../extmod/moduhashlib.o
                                                  build/py/../extmod/modujson.o
                                                  build/py/modstruct.o
                                                  build/py/modbuiltins.o
                                                  build/py/stream.o
                                                  build/py/objint.o
                                                  build/py/objexcept.o
                                                  build/py/compile.o
mp_obj_new_str_of_type                            build/py/objstr.o
                                                  build/modsocket.o
                                                  build/py/objstringio.o
                                                  build/py/objstrunicode.o
mp_obj_new_super                                  build/py/objtype.o
mp_obj_new_tuple                                  build/py/objtuple.o
                                                  build/modsocket.o
                                                  build/modos.o
                                                  build/py/bc.o
                                                  build/py/vm.o
                                                  build/py/modstruct.o
                                                  build/py/modcmath.o
                                                  build/py/modmath.o
                                                  build/py/modbuiltins.o
                                                  build/py/objzip.o
                                                  build/py/objstr.o
                                                  build/py/objnamedtuple.o
                                                  build/py/objexcept.o
                                                  build/py/objenumerate.o
                                                  build/py/objdict.o
                                                  build/py/nativeglue.o
mp_obj_new_type                                   build/py/objtype.o
mp_obj_print                                      build/py/obj.o
                                                  build/input.o
                                                  build/py/showbc.o
mp_obj_print_exception                            build/py/obj.o
                                                  build/main.o
                                                  build/py/modsys.o
mp_obj_print_helper                               build/py/obj.o
                                                  build/py/../extmod/modujson.o
                                                  build/py/modbuiltins.o
                                                  build/py/objtype.o
                                                  build/py/objtuple.o
                                                  build/py/objstr.o
                                                  build/py/objslice.o
                                                  build/py/objset.o
                                                  build/py/objnamedtuple.o
                                                  build/py/objlist.o
                                                  build/py/objexcept.o
                                                  build/py/objdict.o
                                                  build/py/objclosure.o
                                                  build/py/objcell.o
                                                  build/py/objboundmeth.o
                                                  build/py/objarray.o
mp_obj_property_get                               build/py/objproperty.o
                                                  build/py/objtype.o
mp_obj_set_store                                  build/py/objset.o
                                                  build/py/vm.o
                                                  build/py/nativeglue.o
mp_obj_slice_get                                  build/py/objslice.o
                                                  build/py/sequence.o
                                                  build/py/objstrunicode.o
mp_obj_str_binary_op                              build/py/objstr.o
                                                  build/py/objstrunicode.o
                                                  build/py/objint.o
mp_obj_str_equal                                  build/py/objstr.o
                                                  build/py/obj.o
mp_obj_str_format                                 build/py/objstr.o
                                                  build/py/modbuiltins.o
mp_obj_str_get_buffer                             build/py/objstr.o
                                                  build/py/objstrunicode.o
mp_obj_str_get_data                               build/py/objstr.o
                                                  build/modffi.o
                                                  build/modtermios.o
                                                  build/modos.o
                                                  build/py/../extmod/modure.o
                                                  build/py/../extmod/modujson.o
                                                  build/py/modbuiltins.o
                                                  build/py/builtinevex.o
                                                  build/py/builtinimport.o
                                                  build/py/objint.o
                                                  build/py/objfloat.o
                                                  build/py/objcomplex.o
                                                  build/py/objarray.o
                                                  build/py/runtime.o
mp_obj_str_get_hash                               build/py/objstr.o
                                                  build/py/obj.o
mp_obj_str_get_len                                build/py/objstr.o
                                                  build/py/obj.o
mp_obj_str_get_qstr                               build/py/objstr.o
                                                  build/py/modbuiltins.o
                                                  build/py/builtinevex.o
                                                  build/py/builtinimport.o
                                                  build/py/objtype.o
                                                  build/py/objnamedtuple.o
mp_obj_str_get_str                                build/py/objstr.o
                                                  build/modffi.o
                                                  build/modsocket.o
                                                  build/modos.o
                                                  build/file.o
                                                  build/py/../extmod/modure.o
                                                  build/py/modstruct.o
                                                  build/py/objmodule.o
mp_obj_str_intern                                 build/py/objstr.o
mp_obj_str_make_new                               build/py/objstr.o
                                                  build/py/objstrunicode.o
mp_obj_subscr                                     build/py/obj.o
                                                  build/py/vm.o
                                                  build/py/objtype.o
                                                  build/py/objreversed.o
                                                  build/py/nativeglue.o
mp_obj_tuple_binary_op                            build/py/objtuple.o
                                                  build/py/objnamedtuple.o
mp_obj_tuple_del                                  build/py/objtuple.o
                                                  build/py/objzip.o
mp_obj_tuple_get                                  build/py/objtuple.o
                                                  build/py/objtype.o
                                                  build/py/objstr.o
                                                  build/py/obj.o
                                                  build/py/runtime.o
mp_obj_tuple_getiter                              build/py/objtuple.o
                                                  build/py/objnamedtuple.o
mp_obj_tuple_hash                                 build/py/objtuple.o
                                                  build/py/obj.o
mp_obj_tuple_print                                build/py/objtuple.o
                                                  build/py/objexcept.o
mp_obj_tuple_subscr                               build/py/objtuple.o
                                                  build/py/objnamedtuple.o
mp_obj_tuple_unary_op                             build/py/objtuple.o
                                                  build/py/objnamedtuple.o
mp_op_contains_obj                                build/py/opmethods.o
                                                  build/py/objset.o
mp_op_delitem_obj                                 build/py/opmethods.o
                                                  build/py/objdict.o
mp_op_getitem_obj                                 build/py/opmethods.o
                                                  build/py/objdict.o
mp_op_setitem_obj                                 build/py/opmethods.o
                                                  build/py/objdict.o
mp_parse                                          build/py/parse.o
                                                  build/main.o
                                                  build/py/runtime.o
mp_parse_compile_execute                          build/py/runtime.o
                                                  build/py/builtinevex.o
                                                  build/py/builtinimport.o
mp_parse_node_extract_list                        build/py/parse.o
                                                  build/py/compile.o
mp_parse_node_free                                build/py/parse.o
                                                  build/py/compile.o
mp_parse_node_new_leaf                            build/py/parse.o
                                                  build/py/compile.o
mp_parse_node_print                               build/py/parse.o
                                                  build/py/compile.o
mp_parse_num_base                                 build/py/parsenumbase.o
                                                  build/py/parsenum.o
mp_parse_num_decimal                              build/py/parsenum.o
                                                  build/py/../extmod/modujson.o
                                                  build/py/objfloat.o
                                                  build/py/objcomplex.o
                                                  build/py/parse.o
mp_parse_num_integer                              build/py/parsenum.o
                                                  build/py/../extmod/modujson.o
                                                  build/py/modstruct.o
                                                  build/py/objint.o
                                                  build/py/parse.o
mp_repl_continue_with_input                       build/py/repl.o
                                                  build/main.o
mp_resume                                         build/py/runtime.o
                                                  build/py/vm.o
mp_seq_cmp_bytes                                  build/py/sequence.o
                                                  build/py/objstr.o
                                                  build/py/objarray.o
mp_seq_cmp_objs                                   build/py/sequence.o
                                                  build/py/objtuple.o
                                                  build/py/objlist.o
mp_seq_count_obj                                  build/py/sequence.o
                                                  build/py/objtuple.o
                                                  build/py/objlist.o
mp_seq_extract_slice                              build/py/sequence.o
                                                  build/py/objlist.o
mp_seq_get_fast_slice_indexes                     build/py/sequence.o
                                                  build/py/objtuple.o
                                                  build/py/objstr.o
                                                  build/py/objrange.o
                                                  build/py/objlist.o
                                                  build/py/objarray.o
mp_seq_index_obj                                  build/py/sequence.o
                                                  build/py/objtuple.o
                                                  build/py/objlist.o
mp_seq_multiply                                   build/py/sequence.o
                                                  build/py/objtuple.o
                                                  build/py/objstr.o
                                                  build/py/objlist.o
mp_set_clear                                      build/py/map.o
                                                  build/py/objset.o
mp_set_init                                       build/py/map.o
                                                  build/py/objset.o
mp_set_lookup                                     build/py/map.o
                                                  build/py/objset.o
mp_set_remove_first                               build/py/map.o
                                                  build/py/objset.o
mp_setup_code_state                               build/py/bc.o
                                                  build/py/objgenerator.o
                                                  build/py/objfun.o
mp_showbc_code_start                              build/py/showbc.o
mp_small_int_floor_divide                         build/py/smallint.o
                                                  build/py/modbuiltins.o
                                                  build/py/runtime.o
                                                  build/py/compile.o
mp_small_int_modulo                               build/py/smallint.o
                                                  build/py/modbuiltins.o
                                                  build/py/runtime.o
                                                  build/py/compile.o
mp_small_int_mul_overflow                         build/py/smallint.o
                                                  build/py/runtime.o
                                                  build/py/parsenum.o
                                                  build/py/compile.o
mp_stack_check                                    build/py/stackctrl.o
                                                  build/py/objlist.o
                                                  build/py/objfun.o
                                                  build/py/obj.o
mp_stack_ctrl_init                                build/py/stackctrl.o
                                                  build/py/runtime.o
mp_stack_set_limit                                build/py/stackctrl.o
                                                  build/main.o
mp_stack_usage                                    build/py/stackctrl.o
                                                  build/py/modmicropython.o
mp_state_ctx                                      build/py/mpstate.o
                                                  build/alloc.o
                                                  build/gccollect.o
                                                  build/main.o
                                                  build/py/vm.o
                                                  build/py/modsys.o
                                                  build/py/modmicropython.o
                                                  build/py/modgc.o
                                                  build/py/modbuiltins.o
                                                  build/py/builtinevex.o
                                                  build/py/builtinimport.o
                                                  build/py/objmodule.o
                                                  build/py/objgenerator.o
                                                  build/py/objfun.o
                                                  build/py/objexcept.o
                                                  build/py/stackctrl.o
                                                  build/py/runtime.o
                                                  build/py/emitbc.o
                                                  build/py/lexer.o
                                                  build/py/qstr.o
                                                  build/py/gc.o
                                                  build/py/malloc.o
                                                  build/py/nlrx64.o
mp_store_attr                                     build/py/runtime.o
                                                  build/py/vm.o
                                                  build/py/modbuiltins.o
                                                  build/py/builtinimport.o
                                                  build/py/nativeglue.o
mp_store_global                                   build/py/runtime.o
                                                  build/main.o
                                                  build/py/vm.o
                                                  build/py/nativeglue.o
mp_store_name                                     build/py/runtime.o
                                                  build/py/vm.o
                                                  build/py/nativeglue.o
mp_str_print_json                                 build/py/objstr.o
                                                  build/py/objstrunicode.o
mp_str_print_quoted                               build/py/objstr.o
                                                  build/py/objarray.o
mp_stream_read_obj                                build/py/stream.o
                                                  build/modsocket.o
                                                  build/file.o
                                                  build/py/objstringio.o
mp_stream_readall_obj                             build/py/stream.o
                                                  build/modsocket.o
                                                  build/file.o
                                                  build/py/objstringio.o
mp_stream_readinto_obj                            build/py/stream.o
                                                  build/modsocket.o
                                                  build/file.o
mp_stream_seek_obj                                build/py/stream.o
                                                  build/file.o
mp_stream_unbuffered_iter                         build/py/stream.o
                                                  build/file.o
                                                  build/py/objstringio.o
mp_stream_unbuffered_readline_obj                 build/py/stream.o
                                                  build/modsocket.o
                                                  build/file.o
                                                  build/py/objstringio.o
mp_stream_unbuffered_readlines_obj                build/py/stream.o
                                                  build/file.o
mp_stream_write                                   build/py/stream.o
                                                  build/py/modsys.o
                                                  build/py/modbuiltins.o
                                                  build/py/obj.o
mp_stream_write_obj                               build/py/stream.o
                                                  build/modsocket.o
                                                  build/file.o
                                                  build/py/objstringio.o
mp_sys_exit_obj                                   build/py/modsys.o
mp_sys_print_exception_obj                        build/py/modsys.o
mp_sys_stderr_obj                                 build/file.o
                                                  build/py/modsys.o
mp_sys_stdin_obj                                  build/file.o
                                                  build/py/modsys.o
mp_sys_stdout_obj                                 build/file.o
                                                  build/py/modsys.o
                                                  build/py/modbuiltins.o
                                                  build/py/obj.o
mp_type_ArithmeticError                           build/py/objexcept.o
                                                  build/py/modbuiltins.o
mp_type_AssertionError                            build/py/objexcept.o
                                                  build/py/modbuiltins.o
mp_type_AttributeError                            build/py/objexcept.o
                                                  build/py/modbuiltins.o
                                                  build/py/objset.o
                                                  build/py/objnamedtuple.o
                                                  build/py/runtime.o
mp_type_BaseException                             build/py/objexcept.o
                                                  build/py/modbuiltins.o
mp_type_EOFError                                  build/py/objexcept.o
                                                  build/input.o
                                                  build/py/modbuiltins.o
mp_type_Exception                                 build/py/objexcept.o
                                                  build/py/modbuiltins.o
mp_type_GeneratorExit                             build/py/objexcept.o
                                                  build/py/vm.o
                                                  build/py/modbuiltins.o
                                                  build/py/objgenerator.o
                                                  build/py/runtime.o
mp_type_ImportError                               build/py/objexcept.o
                                                  build/py/modbuiltins.o
                                                  build/py/builtinimport.o
                                                  build/py/runtime.o
mp_type_IndentationError                          build/py/objexcept.o
                                                  build/py/modbuiltins.o
                                                  build/py/parse.o
mp_type_IndexError                                build/py/objexcept.o
                                                  build/py/../extmod/moduheapq.o
                                                  build/py/../extmod/modure.o
                                                  build/py/../extmod/moductypes.o
                                                  build/py/modbuiltins.o
                                                  build/py/objstrunicode.o
                                                  build/py/objstr.o
                                                  build/py/objlist.o
                                                  build/py/obj.o
mp_type_KeyError                                  build/py/objexcept.o
                                                  build/py/modbuiltins.o
                                                  build/py/objstr.o
                                                  build/py/objset.o
                                                  build/py/objdict.o
mp_type_KeyboardInterrupt                         build/py/objexcept.o
                                                  build/main.o
mp_type_LookupError                               build/py/objexcept.o
                                                  build/py/modbuiltins.o
mp_type_MemoryError                               build/py/objexcept.o
                                                  build/py/modbuiltins.o
                                                  build/py/stream.o
                                                  build/py/runtime.o
                                                  build/py/parse.o
mp_type_NameError                                 build/py/objexcept.o
                                                  build/py/vm.o
                                                  build/py/modbuiltins.o
                                                  build/py/runtime.o
mp_type_NoneType                                  build/py/objnone.o
                                                  build/py/obj.o
mp_type_NotImplementedError                       build/py/objexcept.o
                                                  build/py/vm.o
                                                  build/py/modbuiltins.o
                                                  build/py/objtuple.o
                                                  build/py/objstrunicode.o
                                                  build/py/objstr.o
                                                  build/py/objarray.o
                                                  build/py/argcheck.o
                                                  build/py/runtime.o
mp_type_OSError                                   build/py/objexcept.o
                                                  build/modffi.o
                                                  build/modsocket.o
                                                  build/modtermios.o
                                                  build/modos.o
                                                  build/file.o
                                                  build/py/modbuiltins.o
                                                  build/py/stream.o
mp_type_OverflowError                             build/py/objexcept.o
                                                  build/py/modbuiltins.o
                                                  build/py/objint_mpz.o
mp_type_RuntimeError                              build/py/objexcept.o
                                                  build/py/vm.o
                                                  build/py/modbuiltins.o
                                                  build/py/objgenerator.o
                                                  build/py/stackctrl.o
mp_type_StopIteration                             build/py/objexcept.o
                                                  build/py/vm.o
                                                  build/py/modbuiltins.o
                                                  build/py/objgetitemiter.o
                                                  build/py/objgenerator.o
                                                  build/py/runtime.o
mp_type_SyntaxError                               build/py/objexcept.o
                                                  build/py/modbuiltins.o
                                                  build/py/parsenum.o
                                                  build/py/compile.o
                                                  build/py/parse.o
mp_type_SystemExit                                build/py/objexcept.o
                                                  build/main.o
                                                  build/py/modsys.o
                                                  build/py/modbuiltins.o
mp_type_TypeError                                 build/py/objexcept.o
                                                  build/modffi.o
                                                  build/py/../extmod/moduheapq.o
                                                  build/py/../extmod/moductypes.o
                                                  build/py/bc.o
                                                  build/py/modbuiltins.o
                                                  build/py/objtype.o
                                                  build/py/objstrunicode.o
                                                  build/py/objstr.o
                                                  build/py/objset.o
                                                  build/py/objnamedtuple.o
                                                  build/py/objgenerator.o
                                                  build/py/objcomplex.o
                                                  build/py/obj.o
                                                  build/py/argcheck.o
                                                  build/py/runtime.o
mp_type_UnicodeError                              build/py/objexcept.o
                                                  build/py/modbuiltins.o
mp_type_ValueError                                build/py/objexcept.o
                                                  build/modffi.o
                                                  build/file.o
                                                  build/py/../extmod/moduzlib.o
                                                  build/py/../extmod/modure.o
                                                  build/py/../extmod/modujson.o
                                                  build/py/modbuiltins.o
                                                  build/py/builtinevex.o
                                                  build/py/sequence.o
                                                  build/py/objstringio.o
                                                  build/py/objstr.o
                                                  build/py/objint_mpz.o
                                                  build/py/objdict.o
                                                  build/py/objarray.o
                                                  build/py/obj.o
                                                  build/py/runtime.o
                                                  build/py/parsenum.o
mp_type_ZeroDivisionError                         build/py/objexcept.o
                                                  build/py/modbuiltins.o
                                                  build/py/objfloat.o
                                                  build/py/objcomplex.o
                                                  build/py/runtime.o
mp_type_array                                     build/py/objarray.o
                                                  build/py/modarray.o
mp_type_bool                                      build/py/objbool.o
                                                  build/py/modbuiltins.o
                                                  build/py/objstr.o
mp_type_bytearray                                 build/py/objarray.o
                                                  build/py/../extmod/moductypes.o
                                                  build/py/modbuiltins.o
mp_type_bytes                                     build/py/objstr.o
                                                  build/modsocket.o
                                                  build/py/../extmod/modubinascii.o
                                                  build/py/../extmod/moduhashlib.o
                                                  build/py/modstruct.o
                                                  build/py/modbuiltins.o
                                                  build/py/stream.o
                                                  build/py/objstringio.o
                                                  build/py/objstrunicode.o
                                                  build/py/objint.o
                                                  build/py/objarray.o
                                                  build/py/obj.o
                                                  build/py/compile.o
mp_type_bytesio                                   build/py/objstringio.o
                                                  build/py/modio.o
mp_type_classmethod                               build/py/objtype.o
                                                  build/py/modbuiltins.o
                                                  build/py/objint.o
                                                  build/py/objdict.o
                                                  build/py/runtime.o
mp_type_complex                                   build/py/objcomplex.o
                                                  build/py/modbuiltins.o
                                                  build/py/objint_mpz.o
                                                  build/py/objfloat.o
                                                  build/py/obj.o
                                                  build/py/runtime.o
mp_type_dict                                      build/py/objdict.o
                                                  build/modffi.o
                                                  build/modsocket.o
                                                  build/modtermios.o
                                                  build/modtime.o
                                                  build/modos.o
                                                  build/file.o
                                                  build/py/../extmod/modubinascii.o
                                                  build/py/../extmod/moduhashlib.o
                                                  build/py/../extmod/moduheapq.o
                                                  build/py/../extmod/moduzlib.o
                                                  build/py/../extmod/modure.o
                                                  build/py/../extmod/modujson.o
                                                  build/py/../extmod/moductypes.o
                                                  build/py/modsys.o
                                                  build/py/modstruct.o
                                                  build/py/modmicropython.o
                                                  build/py/modcmath.o
                                                  build/py/modmath.o
                                                  build/py/modio.o
                                                  build/py/modgc.o
                                                  build/py/modcollections.o
                                                  build/py/modbuiltins.o
                                                  build/py/modarray.o
                                                  build/py/objtype.o
                                                  build/py/objtuple.o
                                                  build/py/objstringio.o
                                                  build/py/objstrunicode.o
                                                  build/py/objstr.o
                                                  build/py/objset.o
                                                  build/py/objproperty.o
                                                  build/py/objobject.o
                                                  build/py/objlist.o
                                                  build/py/objint.o
                                                  build/py/objgenerator.o
                                                  build/py/objexcept.o
                                                  build/py/objarray.o
                                                  build/py/runtime.o
                                                  build/py/emitglue.o
                                                  build/py/gc.o
mp_type_ellipsis                                  build/py/objslice.o
mp_type_enumerate                                 build/py/objenumerate.o
                                                  build/py/modbuiltins.o
mp_type_fileio                                    build/file.o
                                                  build/py/modio.o
mp_type_filter                                    build/py/objfilter.o
                                                  build/py/modbuiltins.o
mp_type_float                                     build/py/objfloat.o
                                                  build/py/modmath.o
                                                  build/py/modbuiltins.o
                                                  build/py/objstr.o
                                                  build/py/objint_mpz.o
                                                  build/py/objint.o
                                                  build/py/obj.o
                                                  build/py/runtime.o
                                                  build/py/gc.o
mp_type_frozenset                                 build/py/objset.o
                                                  build/py/modbuiltins.o
mp_type_fun_bc                                    build/py/objfun.o
                                                  build/py/builtinevex.o
                                                  build/py/objgenerator.o
                                                  build/py/gc.o
mp_type_fun_builtin                               build/py/objfun.o
                                                  build/modffi.o
                                                  build/modsocket.o
                                                  build/modtermios.o
                                                  build/modtime.o
                                                  build/modos.o
                                                  build/file.o
                                                  build/input.o
                                                  build/py/../extmod/modubinascii.o
                                                  build/py/../extmod/moduhashlib.o
                                                  build/py/../extmod/moduheapq.o
                                                  build/py/../extmod/moduzlib.o
                                                  build/py/../extmod/modure.o
                                                  build/py/../extmod/modujson.o
                                                  build/py/../extmod/moductypes.o
                                                  build/py/modsys.o
                                                  build/py/modstruct.o
                                                  build/py/modmicropython.o
                                                  build/py/modcmath.o
                                                  build/py/modmath.o
                                                  build/py/modgc.o
                                                  build/py/modbuiltins.o
                                                  build/py/builtinevex.o
                                                  build/py/builtinimport.o
                                                  build/py/stream.o
                                                  build/py/opmethods.o
                                                  build/py/objtype.o
                                                  build/py/objtuple.o
                                                  build/py/objstringio.o
                                                  build/py/objstr.o
                                                  build/py/objset.o
                                                  build/py/objnamedtuple.o
                                                  build/py/objproperty.o
                                                  build/py/objobject.o
                                                  build/py/objlist.o
                                                  build/py/objint.o
                                                  build/py/objgenerator.o
                                                  build/py/objexcept.o
                                                  build/py/objdict.o
                                                  build/py/objarray.o
                                                  build/py/obj.o
mp_type_gen_instance                              build/py/objgenerator.o
                                                  build/py/runtime.o
mp_type_gen_wrap                                  build/py/objgenerator.o
mp_type_int                                       build/py/objint.o
                                                  build/modffi.o
                                                  build/modsocket.o
                                                  build/py/pfenv.o
                                                  build/py/modbuiltins.o
                                                  build/py/binary.o
                                                  build/py/objstr.o
                                                  build/py/objint_mpz.o
                                                  build/py/objarray.o
                                                  build/py/obj.o
mp_type_list                                      build/py/objlist.o
                                                  build/modtermios.o
                                                  build/py/../extmod/moduheapq.o
                                                  build/py/../extmod/modujson.o
                                                  build/py/modbuiltins.o
                                                  build/py/objstr.o
                                                  build/py/objint.o
                                                  build/py/obj.o
                                                  build/py/runtime.o
                                                  build/py/gc.o
mp_type_map                                       build/py/objmap.o
                                                  build/py/modbuiltins.o
mp_type_memoryview                                build/py/objarray.o
                                                  build/py/modbuiltins.o
mp_type_module                                    build/py/objmodule.o
                                                  build/modffi.o
                                                  build/modsocket.o
                                                  build/modtermios.o
                                                  build/modtime.o
                                                  build/modos.o
                                                  build/py/../extmod/modubinascii.o
                                                  build/py/../extmod/moduhashlib.o
                                                  build/py/../extmod/moduheapq.o
                                                  build/py/../extmod/moduzlib.o
                                                  build/py/../extmod/modure.o
                                                  build/py/../extmod/modujson.o
                                                  build/py/../extmod/moductypes.o
                                                  build/py/modsys.o
                                                  build/py/modstruct.o
                                                  build/py/modmicropython.o
                                                  build/py/modcmath.o
                                                  build/py/modmath.o
                                                  build/py/modio.o
                                                  build/py/modgc.o
                                                  build/py/modcollections.o
                                                  build/py/modbuiltins.o
                                                  build/py/modarray.o
                                                  build/py/runtime.o
                                                  build/py/gc.o
mp_type_object                                    build/py/objobject.o
                                                  build/py/modbuiltins.o
                                                  build/py/objtype.o
mp_type_property                                  build/py/objproperty.o
                                                  build/py/modbuiltins.o
                                                  build/py/objtype.o
mp_type_range                                     build/py/objrange.o
                                                  build/py/modbuiltins.o
mp_type_reversed                                  build/py/objreversed.o
                                                  build/py/modbuiltins.o
mp_type_set                                       build/py/objset.o
                                                  build/py/modbuiltins.o
mp_type_set_it                                    build/py/objset.o
mp_type_slice                                     build/py/objslice.o
                                                  build/py/objtuple.o
                                                  build/py/objstrunicode.o
                                                  build/py/objstr.o
                                                  build/py/objrange.o
                                                  build/py/objlist.o
                                                  build/py/objarray.o
mp_type_staticmethod                              build/py/objtype.o
                                                  build/py/modbuiltins.o
                                                  build/py/objobject.o
                                                  build/py/runtime.o
mp_type_str                                       build/py/objstrunicode.o
                                                  build/modffi.o
                                                  build/modsocket.o
                                                  build/py/../extmod/modujson.o
                                                  build/py/modsys.o
                                                  build/py/modbuiltins.o
                                                  build/py/stream.o
                                                  build/py/objstringio.o
                                                  build/py/objstr.o
                                                  build/py/objint.o
                                                  build/py/objfloat.o
                                                  build/py/objexcept.o
                                                  build/py/objcomplex.o
                                                  build/py/obj.o
                                                  build/py/map.o
                                                  build/py/compile.o
mp_type_stringio                                  build/py/objstringio.o
                                                  build/py/modio.o
mp_type_super                                     build/py/objtype.o
                                                  build/py/modbuiltins.o
mp_type_textio                                    build/file.o
                                                  build/py/modio.o
mp_type_tuple                                     build/py/objtuple.o
                                                  build/py/../extmod/moductypes.o
                                                  build/py/modsys.o
                                                  build/py/modbuiltins.o
                                                  build/py/objtype.o
                                                  build/py/objstr.o
                                                  build/py/objnamedtuple.o
                                                  build/py/objint.o
                                                  build/py/objfun.o
                                                  build/py/objexcept.o
                                                  build/py/obj.o
                                                  build/py/runtime.o
                                                  build/py/emitglue.o
                                                  build/py/gc.o
mp_type_type                                      build/py/objtype.o
                                                  build/modffi.o
                                                  build/modsocket.o
                                                  build/file.o
                                                  build/py/../extmod/moduhashlib.o
                                                  build/py/../extmod/modure.o
                                                  build/py/../extmod/moductypes.o
                                                  build/py/modbuiltins.o
                                                  build/py/builtinevex.o
                                                  build/py/objzip.o
                                                  build/py/objtuple.o
                                                  build/py/objstringio.o
                                                  build/py/objstrunicode.o
                                                  build/py/objstr.o
                                                  build/py/objslice.o
                                                  build/py/objset.o
                                                  build/py/objreversed.o
                                                  build/py/objrange.o
                                                  build/py/objnamedtuple.o
                                                  build/py/objnone.o
                                                  build/py/objproperty.o
                                                  build/py/objobject.o
                                                  build/py/objmodule.o
                                                  build/py/objmap.o
                                                  build/py/objlist.o
                                                  build/py/objint.o
                                                  build/py/objgetitemiter.o
                                                  build/py/objgenerator.o
                                                  build/py/objfun.o
                                                  build/py/objfloat.o
                                                  build/py/objfilter.o
                                                  build/py/objexcept.o
                                                  build/py/objenumerate.o
                                                  build/py/objdict.o
                                                  build/py/objcomplex.o
                                                  build/py/objclosure.o
                                                  build/py/objcell.o
                                                  build/py/objboundmeth.o
                                                  build/py/objbool.o
                                                  build/py/objarray.o
                                                  build/py/obj.o
                                                  build/py/runtime.o
mp_type_zip                                       build/py/objzip.o
                                                  build/py/modbuiltins.o
mp_unary_op                                       build/py/runtime.o
                                                  build/py/vm.o
                                                  build/py/objtype.o
                                                  build/py/nativeglue.o
mp_unary_op_method_name                           build/py/objtype.o
                                                  build/py/runtime.o
mp_unix_alloc_exec                                build/alloc.o
                                                  build/py/asmx64.o
mp_unix_free_exec                                 build/alloc.o
                                                  build/py/asmx64.o
mp_unix_mark_exec                                 build/alloc.o
                                                  build/gccollect.o
mp_unpack_ex                                      build/py/runtime.o
                                                  build/py/vm.o
                                                  build/py/nativeglue.o
mp_unpack_sequence                                build/py/runtime.o
                                                  build/py/vm.o
                                                  build/py/nativeglue.o
mp_verbose_flag                                   build/main.o
                                                  build/py/emitglue.o
mp_warning                                        build/py/warning.o
                                                  build/py/builtinimport.o
mprotect                                          /lib/x86_64-linux-gnu/libc.so.6
mprotect@@GLIBC_2.2.5                             /lib/x86_64-linux-gnu/libc.so.6
mprotect@GLIBC_2.2.5                              /lib/x86_64-linux-gnu/libc.so.6
mpz_abs_inpl                                      build/py/mpz.o
mpz_add_inpl                                      build/py/mpz.o
                                                  build/py/objint_mpz.o
mpz_and_inpl                                      build/py/mpz.o
                                                  build/py/objint_mpz.o
mpz_as_float                                      build/py/mpz.o
                                                  build/py/objint_mpz.o
mpz_as_int_checked                                build/py/mpz.o
                                                  build/py/objint_mpz.o
mpz_as_str_inpl                                   build/py/mpz.o
                                                  build/py/objint_mpz.o
mpz_as_str_size                                   build/py/mpz.o
                                                  build/py/objint_mpz.o
mpz_as_uint_checked                               build/py/mpz.o
mpz_clone                                         build/py/mpz.o
mpz_cmp                                           build/py/mpz.o
                                                  build/py/objint_mpz.o
mpz_deinit                                        build/py/mpz.o
                                                  build/py/objint_mpz.o
mpz_divmod                                        build/py/mpz.o
mpz_divmod_inpl                                   build/py/mpz.o
                                                  build/py/objint_mpz.o
mpz_free                                          build/py/mpz.o
mpz_from_float                                    build/py/mpz.o
mpz_from_int                                      build/py/mpz.o
mpz_from_ll                                       build/py/mpz.o
mpz_from_str                                      build/py/mpz.o
mpz_gcd                                           build/py/mpz.o
mpz_hash                                          build/py/mpz.o
                                                  build/py/objint_mpz.o
mpz_init_fixed_from_int                           build/py/mpz.o
                                                  build/py/objint_mpz.o
mpz_init_from_int                                 build/py/mpz.o
                                                  build/py/objint_mpz.o
mpz_init_zero                                     build/py/mpz.o
                                                  build/py/objint_mpz.o
mpz_is_even                                       build/py/mpz.o
mpz_is_neg                                        build/py/mpz.o
mpz_is_odd                                        build/py/mpz.o
mpz_is_pos                                        build/py/mpz.o
mpz_is_zero                                       build/py/mpz.o
                                                  build/py/objint_mpz.o
mpz_lcm                                           build/py/mpz.o
mpz_mul_inpl                                      build/py/mpz.o
                                                  build/py/objint_mpz.o
mpz_neg_inpl                                      build/py/mpz.o
                                                  build/py/objint_mpz.o
mpz_not_inpl                                      build/py/mpz.o
                                                  build/py/objint_mpz.o
mpz_or_inpl                                       build/py/mpz.o
                                                  build/py/objint_mpz.o
mpz_pow_inpl                                      build/py/mpz.o
                                                  build/py/objint_mpz.o
mpz_set                                           build/py/mpz.o
mpz_set_from_float                                build/py/mpz.o
                                                  build/py/objint_mpz.o
mpz_set_from_int                                  build/py/mpz.o
mpz_set_from_ll                                   build/py/mpz.o
                                                  build/py/objint_mpz.o
mpz_set_from_str                                  build/py/mpz.o
                                                  build/py/objint_mpz.o
mpz_shl_inpl                                      build/py/mpz.o
                                                  build/py/objint_mpz.o
mpz_shr_inpl                                      build/py/mpz.o
                                                  build/py/objint_mpz.o
mpz_sub_inpl                                      build/py/mpz.o
                                                  build/py/objint_mpz.o
mpz_xor_inpl                                      build/py/mpz.o
                                                  build/py/objint_mpz.o
mpz_zero                                          build/py/mpz.o
mremap                                            /lib/x86_64-linux-gnu/libc.so.6
mremap@@GLIBC_2.2.5                               /lib/x86_64-linux-gnu/libc.so.6
mremap@GLIBC_2.2.5                                /lib/x86_64-linux-gnu/libc.so.6
msgctl                                            /lib/x86_64-linux-gnu/libc.so.6
msgctl@@GLIBC_2.2.5                               /lib/x86_64-linux-gnu/libc.so.6
msgctl@GLIBC_2.2.5                                /lib/x86_64-linux-gnu/libc.so.6
msgget                                            /lib/x86_64-linux-gnu/libc.so.6
msgget@@GLIBC_2.2.5                               /lib/x86_64-linux-gnu/libc.so.6
msgget@GLIBC_2.2.5                                /lib/x86_64-linux-gnu/libc.so.6
msgrcv                                            /lib/x86_64-linux-gnu/libc.so.6
msgrcv@@GLIBC_2.2.5                               /lib/x86_64-linux-gnu/libc.so.6
msgrcv@GLIBC_2.2.5                                /lib/x86_64-linux-gnu/libc.so.6
msgsnd                                            /lib/x86_64-linux-gnu/libc.so.6
msgsnd@@GLIBC_2.2.5                               /lib/x86_64-linux-gnu/libc.so.6
msgsnd@GLIBC_2.2.5                                /lib/x86_64-linux-gnu/libc.so.6
msync                                             /lib/x86_64-linux-gnu/libc.so.6
msync@@GLIBC_2.2.5                                /lib/x86_64-linux-gnu/libc.so.6
msync@GLIBC_2.2.5                                 /lib/x86_64-linux-gnu/libc.so.6
munmap                                            /lib/x86_64-linux-gnu/libc.so.6
                                                  build/alloc.o
munmap@@GLIBC_2.2.5                               /lib/x86_64-linux-gnu/libc.so.6
munmap@GLIBC_2.2.5                                /lib/x86_64-linux-gnu/libc.so.6
                                                  /usr/lib/gcc/x86_64-linux-gnu/4.8/../../../x86_64-linux-gnu/libffi.so
nan                                               /usr/lib/gcc/x86_64-linux-gnu/4.8/../../../x86_64-linux-gnu/libm.so
nan@@GLIBC_2.2.5                                  /usr/lib/gcc/x86_64-linux-gnu/4.8/../../../x86_64-linux-gnu/libm.so
nan@GLIBC_2.2.5                                   /usr/lib/gcc/x86_64-linux-gnu/4.8/../../../x86_64-linux-gnu/libm.so
nanf                                              /usr/lib/gcc/x86_64-linux-gnu/4.8/../../../x86_64-linux-gnu/libm.so
nanf@@GLIBC_2.2.5                                 /usr/lib/gcc/x86_64-linux-gnu/4.8/../../../x86_64-linux-gnu/libm.so
nanf@GLIBC_2.2.5                                  /usr/lib/gcc/x86_64-linux-gnu/4.8/../../../x86_64-linux-gnu/libm.so
nanl                                              /usr/lib/gcc/x86_64-linux-gnu/4.8/../../../x86_64-linux-gnu/libm.so
nanl@@GLIBC_2.2.5                                 /usr/lib/gcc/x86_64-linux-gnu/4.8/../../../x86_64-linux-gnu/libm.so
nanl@GLIBC_2.2.5                                  /usr/lib/gcc/x86_64-linux-gnu/4.8/../../../x86_64-linux-gnu/libm.so
nanosleep                                         /lib/x86_64-linux-gnu/libc.so.6
nanosleep@@GLIBC_2.2.5                            /lib/x86_64-linux-gnu/libc.so.6
nanosleep@GLIBC_2.2.5                             /lib/x86_64-linux-gnu/libc.so.6
                                                  //lib/x86_64-linux-gnu/libtinfo.so.5
nearbyint                                         /usr/lib/gcc/x86_64-linux-gnu/4.8/../../../x86_64-linux-gnu/libm.so
nearbyint@@GLIBC_2.2.5                            /usr/lib/gcc/x86_64-linux-gnu/4.8/../../../x86_64-linux-gnu/libm.so
nearbyint@GLIBC_2.2.5                             /usr/lib/gcc/x86_64-linux-gnu/4.8/../../../x86_64-linux-gnu/libm.so
nearbyintf                                        /usr/lib/gcc/x86_64-linux-gnu/4.8/../../../x86_64-linux-gnu/libm.so
nearbyintf@@GLIBC_2.2.5                           /usr/lib/gcc/x86_64-linux-gnu/4.8/../../../x86_64-linux-gnu/libm.so
nearbyintf@GLIBC_2.2.5                            /usr/lib/gcc/x86_64-linux-gnu/4.8/../../../x86_64-linux-gnu/libm.so
nearbyintl                                        /usr/lib/gcc/x86_64-linux-gnu/4.8/../../../x86_64-linux-gnu/libm.so
nearbyintl@@GLIBC_2.2.5                           /usr/lib/gcc/x86_64-linux-gnu/4.8/../../../x86_64-linux-gnu/libm.so
nearbyintl@GLIBC_2.2.5                            /usr/lib/gcc/x86_64-linux-gnu/4.8/../../../x86_64-linux-gnu/libm.so
newlocale                                         /lib/x86_64-linux-gnu/libc.so.6
newlocale@@GLIBC_2.3                              /lib/x86_64-linux-gnu/libc.so.6
newlocale@GLIBC_2.3                               /lib/x86_64-linux-gnu/libc.so.6
nextafter                                         /usr/lib/gcc/x86_64-linux-gnu/4.8/../../../x86_64-linux-gnu/libm.so
nextafter@@GLIBC_2.2.5                            /usr/lib/gcc/x86_64-linux-gnu/4.8/../../../x86_64-linux-gnu/libm.so
nextafter@GLIBC_2.2.5                             /usr/lib/gcc/x86_64-linux-gnu/4.8/../../../x86_64-linux-gnu/libm.so
nextafterf                                        /usr/lib/gcc/x86_64-linux-gnu/4.8/../../../x86_64-linux-gnu/libm.so
nextafterf@@GLIBC_2.2.5                           /usr/lib/gcc/x86_64-linux-gnu/4.8/../../../x86_64-linux-gnu/libm.so
nextafterf@GLIBC_2.2.5                            /usr/lib/gcc/x86_64-linux-gnu/4.8/../../../x86_64-linux-gnu/libm.so
nextafterl                                        /usr/lib/gcc/x86_64-linux-gnu/4.8/../../../x86_64-linux-gnu/libm.so
nextafterl@@GLIBC_2.2.5                           /usr/lib/gcc/x86_64-linux-gnu/4.8/../../../x86_64-linux-gnu/libm.so
nextafterl@GLIBC_2.2.5                            /usr/lib/gcc/x86_64-linux-gnu/4.8/../../../x86_64-linux-gnu/libm.so
nexttoward                                        /usr/lib/gcc/x86_64-linux-gnu/4.8/../../../x86_64-linux-gnu/libm.so
nexttoward@@GLIBC_2.2.5                           /usr/lib/gcc/x86_64-linux-gnu/4.8/../../../x86_64-linux-gnu/libm.so
nexttoward@GLIBC_2.2.5                            /usr/lib/gcc/x86_64-linux-gnu/4.8/../../../x86_64-linux-gnu/libm.so
nexttowardf                                       /usr/lib/gcc/x86_64-linux-gnu/4.8/../../../x86_64-linux-gnu/libm.so
nexttowardf@@GLIBC_2.2.5                          /usr/lib/gcc/x86_64-linux-gnu/4.8/../../../x86_64-linux-gnu/libm.so
nexttowardf@GLIBC_2.2.5                           /usr/lib/gcc/x86_64-linux-gnu/4.8/../../../x86_64-linux-gnu/libm.so
nexttowardl                                       /usr/lib/gcc/x86_64-linux-gnu/4.8/../../../x86_64-linux-gnu/libm.so
nexttowardl@@GLIBC_2.2.5                          /usr/lib/gcc/x86_64-linux-gnu/4.8/../../../x86_64-linux-gnu/libm.so
nexttowardl@GLIBC_2.2.5                           /usr/lib/gcc/x86_64-linux-gnu/4.8/../../../x86_64-linux-gnu/libm.so
ngettext                                          /lib/x86_64-linux-gnu/libc.so.6
ngettext@@GLIBC_2.2.5                             /lib/x86_64-linux-gnu/libc.so.6
ngettext@GLIBC_2.2.5                              /lib/x86_64-linux-gnu/libc.so.6
nl_langinfo_l                                     /lib/x86_64-linux-gnu/libc.so.6
nl_langinfo_l@@GLIBC_2.3                          /lib/x86_64-linux-gnu/libc.so.6
nl_langinfo_l@GLIBC_2.3                           /lib/x86_64-linux-gnu/libc.so.6
nlr_jump                                          build/py/nlrx64.o
                                                  build/modffi.o
                                                  build/modsocket.o
                                                  build/modtermios.o
                                                  build/modos.o
                                                  build/file.o
                                                  build/input.o
                                                  build/py/../extmod/moduheapq.o
                                                  build/py/../extmod/moduzlib.o
                                                  build/py/../extmod/modure.o
                                                  build/py/../extmod/modujson.o
                                                  build/py/../extmod/moductypes.o
                                                  build/py/bc.o
                                                  build/py/modsys.o
                                                  build/py/modbuiltins.o
                                                  build/py/builtinevex.o
                                                  build/py/builtinimport.o
                                                  build/py/stream.o
                                                  build/py/sequence.o
                                                  build/py/objtype.o
                                                  build/py/objtuple.o
                                                  build/py/objstringio.o
                                                  build/py/objstrunicode.o
                                                  build/py/objstr.o
                                                  build/py/objset.o
                                                  build/py/objnamedtuple.o
                                                  build/py/objlist.o
                                                  build/py/objint_mpz.o
                                                  build/py/objgetitemiter.o
                                                  build/py/objgenerator.o
                                                  build/py/objfun.o
                                                  build/py/objfloat.o
                                                  build/py/objdict.o
                                                  build/py/objcomplex.o
                                                  build/py/objarray.o
                                                  build/py/obj.o
                                                  build/py/argcheck.o
                                                  build/py/stackctrl.o
                                                  build/py/nativeglue.o
                                                  build/py/runtime.o
                                                  build/py/parsenum.o
                                                  build/py/compile.o
                                                  build/py/parse.o
nlr_jump_fail                                     build/main.o
                                                  build/py/nlrx64.o
nlr_pop                                           build/py/nlrx64.o
                                                  build/main.o
                                                  build/py/vm.o
                                                  build/py/builtinevex.o
                                                  build/py/objgetitemiter.o
                                                  build/py/nativeglue.o
                                                  build/py/runtime.o
nlr_push                                          build/py/nlrx64.o
                                                  build/main.o
                                                  build/py/vm.o
                                                  build/py/builtinevex.o
                                                  build/py/objgetitemiter.o
                                                  build/py/nativeglue.o
                                                  build/py/runtime.o
nrand48_r                                         /lib/x86_64-linux-gnu/libc.so.6
nrand48_r@@GLIBC_2.2.5                            /lib/x86_64-linux-gnu/libc.so.6
nrand48_r@GLIBC_2.2.5                             /lib/x86_64-linux-gnu/libc.so.6
ntohl                                             /lib/x86_64-linux-gnu/libc.so.6
ntohl@@GLIBC_2.2.5                                /lib/x86_64-linux-gnu/libc.so.6
ntohl@GLIBC_2.2.5                                 /lib/x86_64-linux-gnu/libc.so.6
ntohs                                             /lib/x86_64-linux-gnu/libc.so.6
ntohs@@GLIBC_2.2.5                                /lib/x86_64-linux-gnu/libc.so.6
ntohs@GLIBC_2.2.5                                 /lib/x86_64-linux-gnu/libc.so.6
ntp_adjtime                                       /lib/x86_64-linux-gnu/libc.so.6
ntp_adjtime@@GLIBC_2.2.5                          /lib/x86_64-linux-gnu/libc.so.6
ntp_adjtime@GLIBC_2.2.5                           /lib/x86_64-linux-gnu/libc.so.6
obstack_printf                                    /lib/x86_64-linux-gnu/libc.so.6
obstack_printf@@GLIBC_2.2.5                       /lib/x86_64-linux-gnu/libc.so.6
obstack_printf@GLIBC_2.2.5                        /lib/x86_64-linux-gnu/libc.so.6
obstack_vprintf                                   /lib/x86_64-linux-gnu/libc.so.6
obstack_vprintf@@GLIBC_2.2.5                      /lib/x86_64-linux-gnu/libc.so.6
obstack_vprintf@GLIBC_2.2.5                       /lib/x86_64-linux-gnu/libc.so.6
on_exit                                           /lib/x86_64-linux-gnu/libc.so.6
on_exit@@GLIBC_2.2.5                              /lib/x86_64-linux-gnu/libc.so.6
on_exit@GLIBC_2.2.5                               /lib/x86_64-linux-gnu/libc.so.6
open                                              /lib/x86_64-linux-gnu/libc.so.6
                                                  build/file.o
                                                  build/py/lexerunix.o
open64                                            /lib/x86_64-linux-gnu/libc.so.6
open64@@GLIBC_2.2.5                               /lib/x86_64-linux-gnu/libc.so.6
open64@GLIBC_2.2.5                                /lib/x86_64-linux-gnu/libc.so.6
open@@GLIBC_2.2.5                                 /lib/x86_64-linux-gnu/libc.so.6
open@GLIBC_2.2.5                                  /lib/x86_64-linux-gnu/libc.so.6
                                                  /usr/lib/gcc/x86_64-linux-gnu/4.8/../../../x86_64-linux-gnu/libreadline.so
openat                                            /lib/x86_64-linux-gnu/libc.so.6
openat64                                          /lib/x86_64-linux-gnu/libc.so.6
openat64@@GLIBC_2.4                               /lib/x86_64-linux-gnu/libc.so.6
openat64@GLIBC_2.4                                /lib/x86_64-linux-gnu/libc.so.6
openat@@GLIBC_2.4                                 /lib/x86_64-linux-gnu/libc.so.6
openat@GLIBC_2.4                                  /lib/x86_64-linux-gnu/libc.so.6
opendir                                           /lib/x86_64-linux-gnu/libc.so.6
opendir@@GLIBC_2.2.5                              /lib/x86_64-linux-gnu/libc.so.6
opendir@GLIBC_2.2.5                               /lib/x86_64-linux-gnu/libc.so.6
                                                  /usr/lib/gcc/x86_64-linux-gnu/4.8/../../../x86_64-linux-gnu/libreadline.so
pathconf                                          /lib/x86_64-linux-gnu/libc.so.6
pathconf@@GLIBC_2.2.5                             /lib/x86_64-linux-gnu/libc.so.6
pathconf@GLIBC_2.2.5                              /lib/x86_64-linux-gnu/libc.so.6
pause                                             /lib/x86_64-linux-gnu/libc.so.6
pause@@GLIBC_2.2.5                                /lib/x86_64-linux-gnu/libc.so.6
pause@GLIBC_2.2.5                                 /lib/x86_64-linux-gnu/libc.so.6
perror                                            /lib/x86_64-linux-gnu/libc.so.6
                                                  build/main.o
perror@@GLIBC_2.2.5                               /lib/x86_64-linux-gnu/libc.so.6
perror@GLIBC_2.2.5                                /lib/x86_64-linux-gnu/libc.so.6
personality                                       /lib/x86_64-linux-gnu/libc.so.6
personality@@GLIBC_2.2.5                          /lib/x86_64-linux-gnu/libc.so.6
personality@GLIBC_2.2.5                           /lib/x86_64-linux-gnu/libc.so.6
pfenv_print_float                                 build/py/pfenv.o
                                                  build/py/objstr.o
pfenv_print_int                                   build/py/pfenv.o
                                                  build/py/pfenv_printf.o
pfenv_print_mp_int                                build/py/pfenv.o
                                                  build/py/objstr.o
pfenv_print_strn                                  build/py/pfenv.o
                                                  build/py/pfenv_printf.o
                                                  build/py/objstr.o
pfenv_printf                                      build/py/pfenv_printf.o
                                                  build/py/modsys.o
                                                  build/py/modbuiltins.o
                                                  build/py/obj.o
pfenv_vprintf                                     build/py/pfenv_printf.o
pfenv_vstr_add_strn                               build/py/pfenv.o
                                                  build/py/objstr.o
pipe                                              /lib/x86_64-linux-gnu/libc.so.6
pipe2                                             /lib/x86_64-linux-gnu/libc.so.6
pipe2@@GLIBC_2.9                                  /lib/x86_64-linux-gnu/libc.so.6
pipe2@GLIBC_2.9                                   /lib/x86_64-linux-gnu/libc.so.6
pipe@@GLIBC_2.2.5                                 /lib/x86_64-linux-gnu/libc.so.6
pipe@GLIBC_2.2.5                                  /lib/x86_64-linux-gnu/libc.so.6
poll                                              /lib/x86_64-linux-gnu/libc.so.6
poll@@GLIBC_2.2.5                                 /lib/x86_64-linux-gnu/libc.so.6
poll@GLIBC_2.2.5                                  /lib/x86_64-linux-gnu/libc.so.6
posix_memalign                                    /lib/x86_64-linux-gnu/libc.so.6
posix_memalign@@GLIBC_2.2.5                       /lib/x86_64-linux-gnu/libc.so.6
posix_memalign@GLIBC_2.2.5                        /lib/x86_64-linux-gnu/libc.so.6
posix_openpt                                      /lib/x86_64-linux-gnu/libc.so.6
posix_openpt@@GLIBC_2.2.5                         /lib/x86_64-linux-gnu/libc.so.6
posix_openpt@GLIBC_2.2.5                          /lib/x86_64-linux-gnu/libc.so.6
pow                                               /usr/lib/gcc/x86_64-linux-gnu/4.8/../../../x86_64-linux-gnu/libm.so
                                                  build/py/modcmath.o
                                                  build/py/modmath.o
                                                  build/py/objfloat.o
pow10                                             /usr/lib/gcc/x86_64-linux-gnu/4.8/../../../x86_64-linux-gnu/libm.so
pow10@@GLIBC_2.2.5                                /usr/lib/gcc/x86_64-linux-gnu/4.8/../../../x86_64-linux-gnu/libm.so
pow10@GLIBC_2.2.5                                 /usr/lib/gcc/x86_64-linux-gnu/4.8/../../../x86_64-linux-gnu/libm.so
pow10f                                            /usr/lib/gcc/x86_64-linux-gnu/4.8/../../../x86_64-linux-gnu/libm.so
pow10f@@GLIBC_2.2.5                               /usr/lib/gcc/x86_64-linux-gnu/4.8/../../../x86_64-linux-gnu/libm.so
pow10f@GLIBC_2.2.5                                /usr/lib/gcc/x86_64-linux-gnu/4.8/../../../x86_64-linux-gnu/libm.so
pow10l                                            /usr/lib/gcc/x86_64-linux-gnu/4.8/../../../x86_64-linux-gnu/libm.so
pow10l@@GLIBC_2.2.5                               /usr/lib/gcc/x86_64-linux-gnu/4.8/../../../x86_64-linux-gnu/libm.so
pow10l@GLIBC_2.2.5                                /usr/lib/gcc/x86_64-linux-gnu/4.8/../../../x86_64-linux-gnu/libm.so
pow@@GLIBC_2.2.5                                  /usr/lib/gcc/x86_64-linux-gnu/4.8/../../../x86_64-linux-gnu/libm.so
pow@GLIBC_2.2.5                                   /usr/lib/gcc/x86_64-linux-gnu/4.8/../../../x86_64-linux-gnu/libm.so
powf                                              /usr/lib/gcc/x86_64-linux-gnu/4.8/../../../x86_64-linux-gnu/libm.so
powf@@GLIBC_2.2.5                                 /usr/lib/gcc/x86_64-linux-gnu/4.8/../../../x86_64-linux-gnu/libm.so
powf@GLIBC_2.2.5                                  /usr/lib/gcc/x86_64-linux-gnu/4.8/../../../x86_64-linux-gnu/libm.so
powl                                              /usr/lib/gcc/x86_64-linux-gnu/4.8/../../../x86_64-linux-gnu/libm.so
powl@@GLIBC_2.2.5                                 /usr/lib/gcc/x86_64-linux-gnu/4.8/../../../x86_64-linux-gnu/libm.so
powl@GLIBC_2.2.5                                  /usr/lib/gcc/x86_64-linux-gnu/4.8/../../../x86_64-linux-gnu/libm.so
prctl                                             /lib/x86_64-linux-gnu/libc.so.6
prctl@@GLIBC_2.2.5                                /lib/x86_64-linux-gnu/libc.so.6
prctl@GLIBC_2.2.5                                 /lib/x86_64-linux-gnu/libc.so.6
pread                                             /lib/x86_64-linux-gnu/libc.so.6
pread64                                           /lib/x86_64-linux-gnu/libc.so.6
pread64@@GLIBC_2.2.5                              /lib/x86_64-linux-gnu/libc.so.6
pread64@GLIBC_2.2.5                               /lib/x86_64-linux-gnu/libc.so.6
pread@@GLIBC_2.2.5                                /lib/x86_64-linux-gnu/libc.so.6
pread@GLIBC_2.2.5                                 /lib/x86_64-linux-gnu/libc.so.6
printf_wrapper                                    build/py/pfenv_printf.o
                                                  build/main.o
prlimit64                                         /lib/x86_64-linux-gnu/libc.so.6
prlimit64@@GLIBC_2.13                             /lib/x86_64-linux-gnu/libc.so.6
prlimit64@GLIBC_2.13                              /lib/x86_64-linux-gnu/libc.so.6
profil                                            /lib/x86_64-linux-gnu/libc.so.6
profil@@GLIBC_2.2.5                               /lib/x86_64-linux-gnu/libc.so.6
profil@GLIBC_2.2.5                                /lib/x86_64-linux-gnu/libc.so.6
program_invocation_name                           /lib/x86_64-linux-gnu/libc.so.6
program_invocation_name@@GLIBC_2.2.5              /lib/x86_64-linux-gnu/libc.so.6
program_invocation_name@GLIBC_2.2.5               /lib/x86_64-linux-gnu/libc.so.6
program_invocation_short_name                     /lib/x86_64-linux-gnu/libc.so.6
program_invocation_short_name@@GLIBC_2.2.5        /lib/x86_64-linux-gnu/libc.so.6
program_invocation_short_name@GLIBC_2.2.5         /lib/x86_64-linux-gnu/libc.so.6
prompt                                            build/input.o
                                                  build/main.o
pselect                                           /lib/x86_64-linux-gnu/libc.so.6
pselect@@GLIBC_2.2.5                              /lib/x86_64-linux-gnu/libc.so.6
pselect@GLIBC_2.2.5                               /lib/x86_64-linux-gnu/libc.so.6
pthread_setcancelstate                            /lib/x86_64-linux-gnu/libc.so.6
pthread_setcancelstate@@GLIBC_2.2.5               /lib/x86_64-linux-gnu/libc.so.6
pthread_setcancelstate@GLIBC_2.2.5                /lib/x86_64-linux-gnu/libc.so.6
ptsname_r                                         /lib/x86_64-linux-gnu/libc.so.6
ptsname_r@@GLIBC_2.2.5                            /lib/x86_64-linux-gnu/libc.so.6
ptsname_r@GLIBC_2.2.5                             /lib/x86_64-linux-gnu/libc.so.6
putc                                              /lib/x86_64-linux-gnu/libc.so.6
putc@@GLIBC_2.2.5                                 /lib/x86_64-linux-gnu/libc.so.6
putc@GLIBC_2.2.5                                  /lib/x86_64-linux-gnu/libc.so.6
putchar                                           /lib/x86_64-linux-gnu/libc.so.6
                                                  build/py/../extmod/modure.o
                                                  build/py/showbc.o
                                                  build/py/warning.o
                                                  build/py/parse.o
                                                  build/py/lexer.o
                                                  build/py/gc.o
putchar@@GLIBC_2.2.5                              /lib/x86_64-linux-gnu/libc.so.6
putchar@GLIBC_2.2.5                               /lib/x86_64-linux-gnu/libc.so.6
puts                                              /lib/x86_64-linux-gnu/libc.so.6
                                                  build/main.o
                                                  build/py/../extmod/modure.o
                                                  build/py/emitnx64.o
                                                  build/py/parse.o
puts@@GLIBC_2.2.5                                 /lib/x86_64-linux-gnu/libc.so.6
puts@GLIBC_2.2.5                                  /lib/x86_64-linux-gnu/libc.so.6
pututline                                         /lib/x86_64-linux-gnu/libc.so.6
pututline@@GLIBC_2.2.5                            /lib/x86_64-linux-gnu/libc.so.6
pututline@GLIBC_2.2.5                             /lib/x86_64-linux-gnu/libc.so.6
pvalloc                                           /lib/x86_64-linux-gnu/libc.so.6
pvalloc@@GLIBC_2.2.5                              /lib/x86_64-linux-gnu/libc.so.6
pvalloc@GLIBC_2.2.5                               /lib/x86_64-linux-gnu/libc.so.6
pwrite                                            /lib/x86_64-linux-gnu/libc.so.6
pwrite64                                          /lib/x86_64-linux-gnu/libc.so.6
pwrite64@@GLIBC_2.2.5                             /lib/x86_64-linux-gnu/libc.so.6
pwrite64@GLIBC_2.2.5                              /lib/x86_64-linux-gnu/libc.so.6
pwrite@@GLIBC_2.2.5                               /lib/x86_64-linux-gnu/libc.so.6
pwrite@GLIBC_2.2.5                                /lib/x86_64-linux-gnu/libc.so.6
qstr_build_end                                    build/py/qstr.o
                                                  build/py/compile.o
qstr_build_start                                  build/py/qstr.o
                                                  build/py/compile.o
qstr_compute_hash                                 build/py/qstr.o
                                                  build/py/objstr.o
                                                  build/py/objexcept.o
qstr_data                                         build/py/qstr.o
                                                  build/py/objstrunicode.o
                                                  build/py/objstr.o
                                                  build/py/runtime.o
                                                  build/py/compile.o
qstr_dump_data                                    build/py/qstr.o
                                                  build/py/modmicropython.o
qstr_find_strn                                    build/py/qstr.o
                                                  build/py/objstr.o
                                                  build/py/parse.o
qstr_from_str                                     build/py/qstr.o
                                                  build/modsocket.o
                                                  build/main.o
                                                  build/py/lexerunix.o
qstr_from_strn                                    build/py/qstr.o
                                                  build/main.o
                                                  build/py/builtinimport.o
                                                  build/py/objstr.o
                                                  build/py/runtime.o
                                                  build/py/parse.o
qstr_hash                                         build/py/qstr.o
                                                  build/py/objstr.o
qstr_init                                         build/py/qstr.o
                                                  build/py/runtime.o
qstr_len                                          build/py/qstr.o
                                                  build/py/objstr.o
                                                  build/py/runtime.o
                                                  build/py/compile.o
qstr_pool_info                                    build/py/qstr.o
                                                  build/py/modmicropython.o
qstr_str                                          build/py/qstr.o
                                                  build/py/showbc.o
                                                  build/py/bc.o
                                                  build/py/builtinimport.o
                                                  build/py/objtype.o
                                                  build/py/objnamedtuple.o
                                                  build/py/objmodule.o
                                                  build/py/objfun.o
                                                  build/py/objexcept.o
                                                  build/py/obj.o
                                                  build/py/argcheck.o
                                                  build/py/runtime.o
                                                  build/py/emitnx64.o
                                                  build/py/parse.o
random                                            /lib/x86_64-linux-gnu/libc.so.6
random@@GLIBC_2.2.5                               /lib/x86_64-linux-gnu/libc.so.6
random@GLIBC_2.2.5                                /lib/x86_64-linux-gnu/libc.so.6
random_r                                          /lib/x86_64-linux-gnu/libc.so.6
random_r@@GLIBC_2.2.5                             /lib/x86_64-linux-gnu/libc.so.6
random_r@GLIBC_2.2.5                              /lib/x86_64-linux-gnu/libc.so.6
re1_5_compilecode                                 build/py/../extmod/modure.o
re1_5_dumpcode                                    build/py/../extmod/modure.o
re1_5_recursiveloopprog                           build/py/../extmod/modure.o
re1_5_sizecode                                    build/py/../extmod/modure.o
re_comp                                           /lib/x86_64-linux-gnu/libc.so.6
re_comp@@GLIBC_2.2.5                              /lib/x86_64-linux-gnu/libc.so.6
re_comp@GLIBC_2.2.5                               /lib/x86_64-linux-gnu/libc.so.6
re_compile_fastmap                                /lib/x86_64-linux-gnu/libc.so.6
re_compile_fastmap@@GLIBC_2.2.5                   /lib/x86_64-linux-gnu/libc.so.6
re_compile_fastmap@GLIBC_2.2.5                    /lib/x86_64-linux-gnu/libc.so.6
re_compile_pattern                                /lib/x86_64-linux-gnu/libc.so.6
re_compile_pattern@@GLIBC_2.2.5                   /lib/x86_64-linux-gnu/libc.so.6
re_compile_pattern@GLIBC_2.2.5                    /lib/x86_64-linux-gnu/libc.so.6
re_exec                                           /lib/x86_64-linux-gnu/libc.so.6
re_exec@@GLIBC_2.2.5                              /lib/x86_64-linux-gnu/libc.so.6
re_exec@GLIBC_2.2.5                               /lib/x86_64-linux-gnu/libc.so.6
re_match                                          /lib/x86_64-linux-gnu/libc.so.6
re_match@@GLIBC_2.2.5                             /lib/x86_64-linux-gnu/libc.so.6
re_match@GLIBC_2.2.5                              /lib/x86_64-linux-gnu/libc.so.6
re_match_2                                        /lib/x86_64-linux-gnu/libc.so.6
re_match_2@@GLIBC_2.2.5                           /lib/x86_64-linux-gnu/libc.so.6
re_match_2@GLIBC_2.2.5                            /lib/x86_64-linux-gnu/libc.so.6
re_match_obj                                      build/py/../extmod/modure.o
re_search                                         /lib/x86_64-linux-gnu/libc.so.6
re_search@@GLIBC_2.2.5                            /lib/x86_64-linux-gnu/libc.so.6
re_search@GLIBC_2.2.5                             /lib/x86_64-linux-gnu/libc.so.6
re_search_2                                       /lib/x86_64-linux-gnu/libc.so.6
re_search_2@@GLIBC_2.2.5                          /lib/x86_64-linux-gnu/libc.so.6
re_search_2@GLIBC_2.2.5                           /lib/x86_64-linux-gnu/libc.so.6
re_search_obj                                     build/py/../extmod/modure.o
re_set_registers                                  /lib/x86_64-linux-gnu/libc.so.6
re_set_registers@@GLIBC_2.2.5                     /lib/x86_64-linux-gnu/libc.so.6
re_set_registers@GLIBC_2.2.5                      /lib/x86_64-linux-gnu/libc.so.6
re_set_syntax                                     /lib/x86_64-linux-gnu/libc.so.6
re_set_syntax@@GLIBC_2.2.5                        /lib/x86_64-linux-gnu/libc.so.6
re_set_syntax@GLIBC_2.2.5                         /lib/x86_64-linux-gnu/libc.so.6
re_split_obj                                      build/py/../extmod/modure.o
read                                              /lib/x86_64-linux-gnu/libc.so.6
                                                  build/modsocket.o
                                                  build/file.o
                                                  build/py/lexerunix.o
read@@GLIBC_2.2.5                                 /lib/x86_64-linux-gnu/libc.so.6
read@GLIBC_2.2.5                                  /lib/x86_64-linux-gnu/libc.so.6
                                                  /usr/lib/gcc/x86_64-linux-gnu/4.8/../../../x86_64-linux-gnu/libreadline.so
readahead                                         /lib/x86_64-linux-gnu/libc.so.6
readahead@@GLIBC_2.3                              /lib/x86_64-linux-gnu/libc.so.6
readahead@GLIBC_2.3                               /lib/x86_64-linux-gnu/libc.so.6
readdir                                           /lib/x86_64-linux-gnu/libc.so.6
readdir64                                         /lib/x86_64-linux-gnu/libc.so.6
readdir64@@GLIBC_2.2.5                            /lib/x86_64-linux-gnu/libc.so.6
readdir64@GLIBC_2.2.5                             /lib/x86_64-linux-gnu/libc.so.6
readdir64_r                                       /lib/x86_64-linux-gnu/libc.so.6
readdir64_r@@GLIBC_2.2.5                          /lib/x86_64-linux-gnu/libc.so.6
readdir64_r@GLIBC_2.2.5                           /lib/x86_64-linux-gnu/libc.so.6
readdir@@GLIBC_2.2.5                              /lib/x86_64-linux-gnu/libc.so.6
readdir@GLIBC_2.2.5                               /lib/x86_64-linux-gnu/libc.so.6
                                                  /usr/lib/gcc/x86_64-linux-gnu/4.8/../../../x86_64-linux-gnu/libreadline.so
readdir_r                                         /lib/x86_64-linux-gnu/libc.so.6
readdir_r@@GLIBC_2.2.5                            /lib/x86_64-linux-gnu/libc.so.6
readdir_r@GLIBC_2.2.5                             /lib/x86_64-linux-gnu/libc.so.6
readline                                          /usr/lib/gcc/x86_64-linux-gnu/4.8/../../../x86_64-linux-gnu/libreadline.so
                                                  build/input.o
readlink                                          /lib/x86_64-linux-gnu/libc.so.6
readlink@@GLIBC_2.2.5                             /lib/x86_64-linux-gnu/libc.so.6
readlink@GLIBC_2.2.5                              /lib/x86_64-linux-gnu/libc.so.6
readv                                             /lib/x86_64-linux-gnu/libc.so.6
readv@@GLIBC_2.2.5                                /lib/x86_64-linux-gnu/libc.so.6
readv@GLIBC_2.2.5                                 /lib/x86_64-linux-gnu/libc.so.6
recv                                              /lib/x86_64-linux-gnu/libc.so.6
                                                  build/modsocket.o
recv@@GLIBC_2.2.5                                 /lib/x86_64-linux-gnu/libc.so.6
recv@GLIBC_2.2.5                                  /lib/x86_64-linux-gnu/libc.so.6
recvfrom                                          /lib/x86_64-linux-gnu/libc.so.6
recvfrom@@GLIBC_2.2.5                             /lib/x86_64-linux-gnu/libc.so.6
recvfrom@GLIBC_2.2.5                              /lib/x86_64-linux-gnu/libc.so.6
recvmsg                                           /lib/x86_64-linux-gnu/libc.so.6
recvmsg@@GLIBC_2.2.5                              /lib/x86_64-linux-gnu/libc.so.6
recvmsg@GLIBC_2.2.5                               /lib/x86_64-linux-gnu/libc.so.6
regcomp                                           /lib/x86_64-linux-gnu/libc.so.6
regcomp@@GLIBC_2.2.5                              /lib/x86_64-linux-gnu/libc.so.6
regcomp@GLIBC_2.2.5                               /lib/x86_64-linux-gnu/libc.so.6
regerror                                          /lib/x86_64-linux-gnu/libc.so.6
regerror@@GLIBC_2.2.5                             /lib/x86_64-linux-gnu/libc.so.6
regerror@GLIBC_2.2.5                              /lib/x86_64-linux-gnu/libc.so.6
regfree                                           /lib/x86_64-linux-gnu/libc.so.6
regfree@@GLIBC_2.2.5                              /lib/x86_64-linux-gnu/libc.so.6
regfree@GLIBC_2.2.5                               /lib/x86_64-linux-gnu/libc.so.6
register_printf_function                          /lib/x86_64-linux-gnu/libc.so.6
register_printf_function@@GLIBC_2.2.5             /lib/x86_64-linux-gnu/libc.so.6
register_printf_function@GLIBC_2.2.5              /lib/x86_64-linux-gnu/libc.so.6
register_printf_modifier                          /lib/x86_64-linux-gnu/libc.so.6
register_printf_modifier@@GLIBC_2.10              /lib/x86_64-linux-gnu/libc.so.6
register_printf_modifier@GLIBC_2.10               /lib/x86_64-linux-gnu/libc.so.6
register_printf_specifier                         /lib/x86_64-linux-gnu/libc.so.6
register_printf_specifier@@GLIBC_2.10             /lib/x86_64-linux-gnu/libc.so.6
register_printf_specifier@GLIBC_2.10              /lib/x86_64-linux-gnu/libc.so.6
register_printf_type                              /lib/x86_64-linux-gnu/libc.so.6
register_printf_type@@GLIBC_2.10                  /lib/x86_64-linux-gnu/libc.so.6
register_printf_type@GLIBC_2.10                   /lib/x86_64-linux-gnu/libc.so.6
remainder                                         /usr/lib/gcc/x86_64-linux-gnu/4.8/../../../x86_64-linux-gnu/libm.so
remainder@@GLIBC_2.2.5                            /usr/lib/gcc/x86_64-linux-gnu/4.8/../../../x86_64-linux-gnu/libm.so
remainder@GLIBC_2.2.5                             /usr/lib/gcc/x86_64-linux-gnu/4.8/../../../x86_64-linux-gnu/libm.so
remainderf                                        /usr/lib/gcc/x86_64-linux-gnu/4.8/../../../x86_64-linux-gnu/libm.so
remainderf@@GLIBC_2.2.5                           /usr/lib/gcc/x86_64-linux-gnu/4.8/../../../x86_64-linux-gnu/libm.so
remainderf@GLIBC_2.2.5                            /usr/lib/gcc/x86_64-linux-gnu/4.8/../../../x86_64-linux-gnu/libm.so
remainderl                                        /usr/lib/gcc/x86_64-linux-gnu/4.8/../../../x86_64-linux-gnu/libm.so
remainderl@@GLIBC_2.2.5                           /usr/lib/gcc/x86_64-linux-gnu/4.8/../../../x86_64-linux-gnu/libm.so
remainderl@GLIBC_2.2.5                            /usr/lib/gcc/x86_64-linux-gnu/4.8/../../../x86_64-linux-gnu/libm.so
remap_file_pages                                  /lib/x86_64-linux-gnu/libc.so.6
remap_file_pages@@GLIBC_2.3.3                     /lib/x86_64-linux-gnu/libc.so.6
remap_file_pages@GLIBC_2.3.3                      /lib/x86_64-linux-gnu/libc.so.6
remquo                                            /usr/lib/gcc/x86_64-linux-gnu/4.8/../../../x86_64-linux-gnu/libm.so
remquo@@GLIBC_2.2.5                               /usr/lib/gcc/x86_64-linux-gnu/4.8/../../../x86_64-linux-gnu/libm.so
remquo@GLIBC_2.2.5                                /usr/lib/gcc/x86_64-linux-gnu/4.8/../../../x86_64-linux-gnu/libm.so
remquof                                           /usr/lib/gcc/x86_64-linux-gnu/4.8/../../../x86_64-linux-gnu/libm.so
remquof@@GLIBC_2.2.5                              /usr/lib/gcc/x86_64-linux-gnu/4.8/../../../x86_64-linux-gnu/libm.so
remquof@GLIBC_2.2.5                               /usr/lib/gcc/x86_64-linux-gnu/4.8/../../../x86_64-linux-gnu/libm.so
remquol                                           /usr/lib/gcc/x86_64-linux-gnu/4.8/../../../x86_64-linux-gnu/libm.so
remquol@@GLIBC_2.2.5                              /usr/lib/gcc/x86_64-linux-gnu/4.8/../../../x86_64-linux-gnu/libm.so
remquol@GLIBC_2.2.5                               /usr/lib/gcc/x86_64-linux-gnu/4.8/../../../x86_64-linux-gnu/libm.so
rindex                                            /lib/x86_64-linux-gnu/libc.so.6
rindex@@GLIBC_2.2.5                               /lib/x86_64-linux-gnu/libc.so.6
rindex@GLIBC_2.2.5                                /lib/x86_64-linux-gnu/libc.so.6
rint                                              /usr/lib/gcc/x86_64-linux-gnu/4.8/../../../x86_64-linux-gnu/libm.so
rint@@GLIBC_2.2.5                                 /usr/lib/gcc/x86_64-linux-gnu/4.8/../../../x86_64-linux-gnu/libm.so
rint@GLIBC_2.2.5                                  /usr/lib/gcc/x86_64-linux-gnu/4.8/../../../x86_64-linux-gnu/libm.so
rintf                                             /usr/lib/gcc/x86_64-linux-gnu/4.8/../../../x86_64-linux-gnu/libm.so
rintf@@GLIBC_2.2.5                                /usr/lib/gcc/x86_64-linux-gnu/4.8/../../../x86_64-linux-gnu/libm.so
rintf@GLIBC_2.2.5                                 /usr/lib/gcc/x86_64-linux-gnu/4.8/../../../x86_64-linux-gnu/libm.so
rintl                                             /usr/lib/gcc/x86_64-linux-gnu/4.8/../../../x86_64-linux-gnu/libm.so
rintl@@GLIBC_2.2.5                                /usr/lib/gcc/x86_64-linux-gnu/4.8/../../../x86_64-linux-gnu/libm.so
rintl@GLIBC_2.2.5                                 /usr/lib/gcc/x86_64-linux-gnu/4.8/../../../x86_64-linux-gnu/libm.so
rmdir                                             /lib/x86_64-linux-gnu/libc.so.6
rmdir@@GLIBC_2.2.5                                /lib/x86_64-linux-gnu/libc.so.6
rmdir@GLIBC_2.2.5                                 /lib/x86_64-linux-gnu/libc.so.6
round                                             /usr/lib/gcc/x86_64-linux-gnu/4.8/../../../x86_64-linux-gnu/libm.so
                                                  build/py/modbuiltins.o
round@@GLIBC_2.2.5                                /usr/lib/gcc/x86_64-linux-gnu/4.8/../../../x86_64-linux-gnu/libm.so
round@GLIBC_2.2.5                                 /usr/lib/gcc/x86_64-linux-gnu/4.8/../../../x86_64-linux-gnu/libm.so
roundf                                            /usr/lib/gcc/x86_64-linux-gnu/4.8/../../../x86_64-linux-gnu/libm.so
roundf@@GLIBC_2.2.5                               /usr/lib/gcc/x86_64-linux-gnu/4.8/../../../x86_64-linux-gnu/libm.so
roundf@GLIBC_2.2.5                                /usr/lib/gcc/x86_64-linux-gnu/4.8/../../../x86_64-linux-gnu/libm.so
roundl                                            /usr/lib/gcc/x86_64-linux-gnu/4.8/../../../x86_64-linux-gnu/libm.so
roundl@@GLIBC_2.2.5                               /usr/lib/gcc/x86_64-linux-gnu/4.8/../../../x86_64-linux-gnu/libm.so
roundl@GLIBC_2.2.5                                /usr/lib/gcc/x86_64-linux-gnu/4.8/../../../x86_64-linux-gnu/libm.so
sbrk                                              /lib/x86_64-linux-gnu/libc.so.6
sbrk@@GLIBC_2.2.5                                 /lib/x86_64-linux-gnu/libc.so.6
sbrk@GLIBC_2.2.5                                  /lib/x86_64-linux-gnu/libc.so.6
scalb                                             /usr/lib/gcc/x86_64-linux-gnu/4.8/../../../x86_64-linux-gnu/libm.so
scalb@@GLIBC_2.2.5                                /usr/lib/gcc/x86_64-linux-gnu/4.8/../../../x86_64-linux-gnu/libm.so
scalb@GLIBC_2.2.5                                 /usr/lib/gcc/x86_64-linux-gnu/4.8/../../../x86_64-linux-gnu/libm.so
scalbf                                            /usr/lib/gcc/x86_64-linux-gnu/4.8/../../../x86_64-linux-gnu/libm.so
scalbf@@GLIBC_2.2.5                               /usr/lib/gcc/x86_64-linux-gnu/4.8/../../../x86_64-linux-gnu/libm.so
scalbf@GLIBC_2.2.5                                /usr/lib/gcc/x86_64-linux-gnu/4.8/../../../x86_64-linux-gnu/libm.so
scalbl                                            /usr/lib/gcc/x86_64-linux-gnu/4.8/../../../x86_64-linux-gnu/libm.so
scalbl@@GLIBC_2.2.5                               /usr/lib/gcc/x86_64-linux-gnu/4.8/../../../x86_64-linux-gnu/libm.so
scalbl@GLIBC_2.2.5                                /usr/lib/gcc/x86_64-linux-gnu/4.8/../../../x86_64-linux-gnu/libm.so
scalbln                                           /usr/lib/gcc/x86_64-linux-gnu/4.8/../../../x86_64-linux-gnu/libm.so
scalbln@@GLIBC_2.2.5                              /usr/lib/gcc/x86_64-linux-gnu/4.8/../../../x86_64-linux-gnu/libm.so
scalbln@GLIBC_2.2.5                               /usr/lib/gcc/x86_64-linux-gnu/4.8/../../../x86_64-linux-gnu/libm.so
scalblnf                                          /usr/lib/gcc/x86_64-linux-gnu/4.8/../../../x86_64-linux-gnu/libm.so
scalblnf@@GLIBC_2.2.5                             /usr/lib/gcc/x86_64-linux-gnu/4.8/../../../x86_64-linux-gnu/libm.so
scalblnf@GLIBC_2.2.5                              /usr/lib/gcc/x86_64-linux-gnu/4.8/../../../x86_64-linux-gnu/libm.so
scalblnl                                          /usr/lib/gcc/x86_64-linux-gnu/4.8/../../../x86_64-linux-gnu/libm.so
scalblnl@@GLIBC_2.2.5                             /usr/lib/gcc/x86_64-linux-gnu/4.8/../../../x86_64-linux-gnu/libm.so
scalblnl@GLIBC_2.2.5                              /usr/lib/gcc/x86_64-linux-gnu/4.8/../../../x86_64-linux-gnu/libm.so
scalbn                                            /usr/lib/gcc/x86_64-linux-gnu/4.8/../../../x86_64-linux-gnu/libm.so
scalbn@@GLIBC_2.2.5                               /usr/lib/gcc/x86_64-linux-gnu/4.8/../../../x86_64-linux-gnu/libm.so
                                                  /lib/x86_64-linux-gnu/libc.so.6
scalbn@GLIBC_2.2.5                                /usr/lib/gcc/x86_64-linux-gnu/4.8/../../../x86_64-linux-gnu/libm.so
scalbnf                                           /usr/lib/gcc/x86_64-linux-gnu/4.8/../../../x86_64-linux-gnu/libm.so
scalbnf@@GLIBC_2.2.5                              /usr/lib/gcc/x86_64-linux-gnu/4.8/../../../x86_64-linux-gnu/libm.so
                                                  /lib/x86_64-linux-gnu/libc.so.6
scalbnf@GLIBC_2.2.5                               /usr/lib/gcc/x86_64-linux-gnu/4.8/../../../x86_64-linux-gnu/libm.so
scalbnl                                           /usr/lib/gcc/x86_64-linux-gnu/4.8/../../../x86_64-linux-gnu/libm.so
scalbnl@@GLIBC_2.2.5                              /usr/lib/gcc/x86_64-linux-gnu/4.8/../../../x86_64-linux-gnu/libm.so
                                                  /lib/x86_64-linux-gnu/libc.so.6
scalbnl@GLIBC_2.2.5                               /usr/lib/gcc/x86_64-linux-gnu/4.8/../../../x86_64-linux-gnu/libm.so
scandir64                                         /lib/x86_64-linux-gnu/libc.so.6
scandir64@@GLIBC_2.2.5                            /lib/x86_64-linux-gnu/libc.so.6
scandir64@GLIBC_2.2.5                             /lib/x86_64-linux-gnu/libc.so.6
scandirat64                                       /lib/x86_64-linux-gnu/libc.so.6
scandirat64@@GLIBC_2.15                           /lib/x86_64-linux-gnu/libc.so.6
scandirat64@GLIBC_2.15                            /lib/x86_64-linux-gnu/libc.so.6
sched_get_priority_max                            /lib/x86_64-linux-gnu/libc.so.6
sched_get_priority_max@@GLIBC_2.2.5               /lib/x86_64-linux-gnu/libc.so.6
sched_get_priority_max@GLIBC_2.2.5                /lib/x86_64-linux-gnu/libc.so.6
sched_get_priority_min                            /lib/x86_64-linux-gnu/libc.so.6
sched_get_priority_min@@GLIBC_2.2.5               /lib/x86_64-linux-gnu/libc.so.6
sched_get_priority_min@GLIBC_2.2.5                /lib/x86_64-linux-gnu/libc.so.6
sched_getparam                                    /lib/x86_64-linux-gnu/libc.so.6
sched_getparam@@GLIBC_2.2.5                       /lib/x86_64-linux-gnu/libc.so.6
sched_getparam@GLIBC_2.2.5                        /lib/x86_64-linux-gnu/libc.so.6
sched_getscheduler                                /lib/x86_64-linux-gnu/libc.so.6
sched_getscheduler@@GLIBC_2.2.5                   /lib/x86_64-linux-gnu/libc.so.6
sched_getscheduler@GLIBC_2.2.5                    /lib/x86_64-linux-gnu/libc.so.6
sched_rr_get_interval                             /lib/x86_64-linux-gnu/libc.so.6
sched_rr_get_interval@@GLIBC_2.2.5                /lib/x86_64-linux-gnu/libc.so.6
sched_rr_get_interval@GLIBC_2.2.5                 /lib/x86_64-linux-gnu/libc.so.6
sched_setparam                                    /lib/x86_64-linux-gnu/libc.so.6
sched_setparam@@GLIBC_2.2.5                       /lib/x86_64-linux-gnu/libc.so.6
sched_setparam@GLIBC_2.2.5                        /lib/x86_64-linux-gnu/libc.so.6
sched_setscheduler                                /lib/x86_64-linux-gnu/libc.so.6
sched_setscheduler@@GLIBC_2.2.5                   /lib/x86_64-linux-gnu/libc.so.6
sched_setscheduler@GLIBC_2.2.5                    /lib/x86_64-linux-gnu/libc.so.6
sched_yield                                       /lib/x86_64-linux-gnu/libc.so.6
sched_yield@@GLIBC_2.2.5                          /lib/x86_64-linux-gnu/libc.so.6
sched_yield@GLIBC_2.2.5                           /lib/x86_64-linux-gnu/libc.so.6
scope_close_over_in_parents                       build/py/scope.o
                                                  build/py/emitpass1.o
                                                  build/py/compile.o
scope_find                                        build/py/scope.o
                                                  build/py/emitcommon.o
                                                  build/py/compile.o
scope_find_global                                 build/py/scope.o
                                                  build/py/compile.o
scope_find_local_in_parent                        build/py/scope.o
                                                  build/py/emitpass1.o
                                                  build/py/compile.o
scope_find_or_add_id                              build/py/scope.o
                                                  build/py/emitpass1.o
                                                  build/py/compile.o
scope_free                                        build/py/scope.o
                                                  build/py/compile.o
scope_new                                         build/py/scope.o
                                                  build/py/compile.o
secure_getenv                                     /lib/x86_64-linux-gnu/libc.so.6
secure_getenv@@GLIBC_2.17                         /lib/x86_64-linux-gnu/libc.so.6
secure_getenv@GLIBC_2.17                          /lib/x86_64-linux-gnu/libc.so.6
seed48_r                                          /lib/x86_64-linux-gnu/libc.so.6
seed48_r@@GLIBC_2.2.5                             /lib/x86_64-linux-gnu/libc.so.6
seed48_r@GLIBC_2.2.5                              /lib/x86_64-linux-gnu/libc.so.6
select                                            /lib/x86_64-linux-gnu/libc.so.6
                                                  build/modtime.o
select@@GLIBC_2.2.5                               /lib/x86_64-linux-gnu/libc.so.6
select@GLIBC_2.2.5                                /lib/x86_64-linux-gnu/libc.so.6
                                                  //lib/x86_64-linux-gnu/libtinfo.so.5
                                                  /usr/lib/gcc/x86_64-linux-gnu/4.8/../../../x86_64-linux-gnu/libreadline.so
semctl                                            /lib/x86_64-linux-gnu/libc.so.6
semctl@@GLIBC_2.2.5                               /lib/x86_64-linux-gnu/libc.so.6
semctl@GLIBC_2.2.5                                /lib/x86_64-linux-gnu/libc.so.6
semget                                            /lib/x86_64-linux-gnu/libc.so.6
semget@@GLIBC_2.2.5                               /lib/x86_64-linux-gnu/libc.so.6
semget@GLIBC_2.2.5                                /lib/x86_64-linux-gnu/libc.so.6
semop                                             /lib/x86_64-linux-gnu/libc.so.6
semop@@GLIBC_2.2.5                                /lib/x86_64-linux-gnu/libc.so.6
semop@GLIBC_2.2.5                                 /lib/x86_64-linux-gnu/libc.so.6
send                                              /lib/x86_64-linux-gnu/libc.so.6
                                                  build/modsocket.o
send@@GLIBC_2.2.5                                 /lib/x86_64-linux-gnu/libc.so.6
send@GLIBC_2.2.5                                  /lib/x86_64-linux-gnu/libc.so.6
sendfile64                                        /lib/x86_64-linux-gnu/libc.so.6
sendfile64@@GLIBC_2.3                             /lib/x86_64-linux-gnu/libc.so.6
sendfile64@GLIBC_2.3                              /lib/x86_64-linux-gnu/libc.so.6
sendmmsg                                          /lib/x86_64-linux-gnu/libc.so.6
sendmmsg@@GLIBC_2.14                              /lib/x86_64-linux-gnu/libc.so.6
sendmmsg@GLIBC_2.14                               /lib/x86_64-linux-gnu/libc.so.6
sendmsg                                           /lib/x86_64-linux-gnu/libc.so.6
sendmsg@@GLIBC_2.2.5                              /lib/x86_64-linux-gnu/libc.so.6
sendmsg@GLIBC_2.2.5                               /lib/x86_64-linux-gnu/libc.so.6
                                                  /usr/lib/gcc/x86_64-linux-gnu/4.8/../../../x86_64-linux-gnu/libreadline.so
sendto                                            /lib/x86_64-linux-gnu/libc.so.6
sendto@@GLIBC_2.2.5                               /lib/x86_64-linux-gnu/libc.so.6
sendto@GLIBC_2.2.5                                /lib/x86_64-linux-gnu/libc.so.6
setbuffer                                         /lib/x86_64-linux-gnu/libc.so.6
setbuffer@@GLIBC_2.2.5                            /lib/x86_64-linux-gnu/libc.so.6
setbuffer@GLIBC_2.2.5                             /lib/x86_64-linux-gnu/libc.so.6
setcontext                                        /lib/x86_64-linux-gnu/libc.so.6
setcontext@@GLIBC_2.2.5                           /lib/x86_64-linux-gnu/libc.so.6
setcontext@GLIBC_2.2.5                            /lib/x86_64-linux-gnu/libc.so.6
setenv                                            /lib/x86_64-linux-gnu/libc.so.6
setenv@@GLIBC_2.2.5                               /lib/x86_64-linux-gnu/libc.so.6
setenv@GLIBC_2.2.5                                /lib/x86_64-linux-gnu/libc.so.6
                                                  //lib/x86_64-linux-gnu/libtinfo.so.5
                                                  /usr/lib/gcc/x86_64-linux-gnu/4.8/../../../x86_64-linux-gnu/libreadline.so
setgid                                            /lib/x86_64-linux-gnu/libc.so.6
setgid@@GLIBC_2.2.5                               /lib/x86_64-linux-gnu/libc.so.6
setgid@GLIBC_2.2.5                                /lib/x86_64-linux-gnu/libc.so.6
setitimer                                         /lib/x86_64-linux-gnu/libc.so.6
setitimer@@GLIBC_2.2.5                            /lib/x86_64-linux-gnu/libc.so.6
setitimer@GLIBC_2.2.5                             /lib/x86_64-linux-gnu/libc.so.6
setmntent                                         /lib/x86_64-linux-gnu/libc.so.6
setmntent@@GLIBC_2.2.5                            /lib/x86_64-linux-gnu/libc.so.6
setmntent@GLIBC_2.2.5                             /lib/x86_64-linux-gnu/libc.so.6
                                                  /usr/lib/gcc/x86_64-linux-gnu/4.8/../../../x86_64-linux-gnu/libffi.so
setpgid                                           /lib/x86_64-linux-gnu/libc.so.6
setpgid@@GLIBC_2.2.5                              /lib/x86_64-linux-gnu/libc.so.6
setpgid@GLIBC_2.2.5                               /lib/x86_64-linux-gnu/libc.so.6
setregid                                          /lib/x86_64-linux-gnu/libc.so.6
setregid@@GLIBC_2.2.5                             /lib/x86_64-linux-gnu/libc.so.6
setregid@GLIBC_2.2.5                              /lib/x86_64-linux-gnu/libc.so.6
setresgid                                         /lib/x86_64-linux-gnu/libc.so.6
setresgid@@GLIBC_2.2.5                            /lib/x86_64-linux-gnu/libc.so.6
setresgid@GLIBC_2.2.5                             /lib/x86_64-linux-gnu/libc.so.6
setresuid                                         /lib/x86_64-linux-gnu/libc.so.6
setresuid@@GLIBC_2.2.5                            /lib/x86_64-linux-gnu/libc.so.6
setresuid@GLIBC_2.2.5                             /lib/x86_64-linux-gnu/libc.so.6
setreuid                                          /lib/x86_64-linux-gnu/libc.so.6
setreuid@@GLIBC_2.2.5                             /lib/x86_64-linux-gnu/libc.so.6
setreuid@GLIBC_2.2.5                              /lib/x86_64-linux-gnu/libc.so.6
setrlimit                                         /lib/x86_64-linux-gnu/libc.so.6
setrlimit64                                       /lib/x86_64-linux-gnu/libc.so.6
setrlimit64@@GLIBC_2.2.5                          /lib/x86_64-linux-gnu/libc.so.6
setrlimit64@GLIBC_2.2.5                           /lib/x86_64-linux-gnu/libc.so.6
setrlimit@@GLIBC_2.2.5                            /lib/x86_64-linux-gnu/libc.so.6
setrlimit@GLIBC_2.2.5                             /lib/x86_64-linux-gnu/libc.so.6
setsid                                            /lib/x86_64-linux-gnu/libc.so.6
setsid@@GLIBC_2.2.5                               /lib/x86_64-linux-gnu/libc.so.6
setsid@GLIBC_2.2.5                                /lib/x86_64-linux-gnu/libc.so.6
setsockopt                                        /lib/x86_64-linux-gnu/libc.so.6
                                                  build/modsocket.o
setsockopt@@GLIBC_2.2.5                           /lib/x86_64-linux-gnu/libc.so.6
setsockopt@GLIBC_2.2.5                            /lib/x86_64-linux-gnu/libc.so.6
setstate                                          /lib/x86_64-linux-gnu/libc.so.6
setstate@@GLIBC_2.2.5                             /lib/x86_64-linux-gnu/libc.so.6
setstate@GLIBC_2.2.5                              /lib/x86_64-linux-gnu/libc.so.6
setstate_r                                        /lib/x86_64-linux-gnu/libc.so.6
setstate_r@@GLIBC_2.2.5                           /lib/x86_64-linux-gnu/libc.so.6
setstate_r@GLIBC_2.2.5                            /lib/x86_64-linux-gnu/libc.so.6
settimeofday                                      /lib/x86_64-linux-gnu/libc.so.6
settimeofday@@GLIBC_2.2.5                         /lib/x86_64-linux-gnu/libc.so.6
settimeofday@GLIBC_2.2.5                          /lib/x86_64-linux-gnu/libc.so.6
setuid                                            /lib/x86_64-linux-gnu/libc.so.6
setuid@@GLIBC_2.2.5                               /lib/x86_64-linux-gnu/libc.so.6
setuid@GLIBC_2.2.5                                /lib/x86_64-linux-gnu/libc.so.6
setutent                                          /lib/x86_64-linux-gnu/libc.so.6
setutent@@GLIBC_2.2.5                             /lib/x86_64-linux-gnu/libc.so.6
setutent@GLIBC_2.2.5                              /lib/x86_64-linux-gnu/libc.so.6
setvbuf                                           /lib/x86_64-linux-gnu/libc.so.6
setvbuf@@GLIBC_2.2.5                              /lib/x86_64-linux-gnu/libc.so.6
setvbuf@GLIBC_2.2.5                               /lib/x86_64-linux-gnu/libc.so.6
sgetsgent_r                                       /lib/x86_64-linux-gnu/libc.so.6
sgetsgent_r@@GLIBC_2.10                           /lib/x86_64-linux-gnu/libc.so.6
sgetsgent_r@GLIBC_2.10                            /lib/x86_64-linux-gnu/libc.so.6
sgetspent_r                                       /lib/x86_64-linux-gnu/libc.so.6
sgetspent_r@@GLIBC_2.2.5                          /lib/x86_64-linux-gnu/libc.so.6
sgetspent_r@GLIBC_2.2.5                           /lib/x86_64-linux-gnu/libc.so.6
sha256_final                                      build/py/../extmod/moduhashlib.o
sha256_init                                       build/py/../extmod/moduhashlib.o
sha256_transform                                  build/py/../extmod/moduhashlib.o
sha256_update                                     build/py/../extmod/moduhashlib.o
shmat                                             /lib/x86_64-linux-gnu/libc.so.6
shmat@@GLIBC_2.2.5                                /lib/x86_64-linux-gnu/libc.so.6
shmat@GLIBC_2.2.5                                 /lib/x86_64-linux-gnu/libc.so.6
shmctl                                            /lib/x86_64-linux-gnu/libc.so.6
shmctl@@GLIBC_2.2.5                               /lib/x86_64-linux-gnu/libc.so.6
shmctl@GLIBC_2.2.5                                /lib/x86_64-linux-gnu/libc.so.6
shmdt                                             /lib/x86_64-linux-gnu/libc.so.6
shmdt@@GLIBC_2.2.5                                /lib/x86_64-linux-gnu/libc.so.6
shmdt@GLIBC_2.2.5                                 /lib/x86_64-linux-gnu/libc.so.6
shmget                                            /lib/x86_64-linux-gnu/libc.so.6
shmget@@GLIBC_2.2.5                               /lib/x86_64-linux-gnu/libc.so.6
shmget@GLIBC_2.2.5                                /lib/x86_64-linux-gnu/libc.so.6
shutdown                                          /lib/x86_64-linux-gnu/libc.so.6
shutdown@@GLIBC_2.2.5                             /lib/x86_64-linux-gnu/libc.so.6
shutdown@GLIBC_2.2.5                              /lib/x86_64-linux-gnu/libc.so.6
sigaction                                         /lib/x86_64-linux-gnu/libc.so.6
                                                  build/main.o
sigaction@@GLIBC_2.2.5                            /lib/x86_64-linux-gnu/libc.so.6
sigaction@GLIBC_2.2.5                             /lib/x86_64-linux-gnu/libc.so.6
                                                  /usr/lib/gcc/x86_64-linux-gnu/4.8/../../../x86_64-linux-gnu/libreadline.so
sigaltstack                                       /lib/x86_64-linux-gnu/libc.so.6
sigaltstack@@GLIBC_2.2.5                          /lib/x86_64-linux-gnu/libc.so.6
sigaltstack@GLIBC_2.2.5                           /lib/x86_64-linux-gnu/libc.so.6
sigblock                                          /lib/x86_64-linux-gnu/libc.so.6
sigblock@@GLIBC_2.2.5                             /lib/x86_64-linux-gnu/libc.so.6
sigblock@GLIBC_2.2.5                              /lib/x86_64-linux-gnu/libc.so.6
sigemptyset                                       /lib/x86_64-linux-gnu/libc.so.6
                                                  build/main.o
sigemptyset@@GLIBC_2.2.5                          /lib/x86_64-linux-gnu/libc.so.6
sigemptyset@GLIBC_2.2.5                           /lib/x86_64-linux-gnu/libc.so.6
                                                  /usr/lib/gcc/x86_64-linux-gnu/4.8/../../../x86_64-linux-gnu/libreadline.so
siglongjmp                                        /lib/x86_64-linux-gnu/libc.so.6
siglongjmp@@GLIBC_2.2.5                           /lib/x86_64-linux-gnu/libc.so.6
siglongjmp@GLIBC_2.2.5                            /lib/x86_64-linux-gnu/libc.so.6
signal                                            /lib/x86_64-linux-gnu/libc.so.6
signal@@GLIBC_2.2.5                               /lib/x86_64-linux-gnu/libc.so.6
signal@GLIBC_2.2.5                                /lib/x86_64-linux-gnu/libc.so.6
significand                                       /usr/lib/gcc/x86_64-linux-gnu/4.8/../../../x86_64-linux-gnu/libm.so
significand@@GLIBC_2.2.5                          /usr/lib/gcc/x86_64-linux-gnu/4.8/../../../x86_64-linux-gnu/libm.so
significand@GLIBC_2.2.5                           /usr/lib/gcc/x86_64-linux-gnu/4.8/../../../x86_64-linux-gnu/libm.so
significandf                                      /usr/lib/gcc/x86_64-linux-gnu/4.8/../../../x86_64-linux-gnu/libm.so
significandf@@GLIBC_2.2.5                         /usr/lib/gcc/x86_64-linux-gnu/4.8/../../../x86_64-linux-gnu/libm.so
significandf@GLIBC_2.2.5                          /usr/lib/gcc/x86_64-linux-gnu/4.8/../../../x86_64-linux-gnu/libm.so
significandl                                      /usr/lib/gcc/x86_64-linux-gnu/4.8/../../../x86_64-linux-gnu/libm.so
significandl@@GLIBC_2.2.5                         /usr/lib/gcc/x86_64-linux-gnu/4.8/../../../x86_64-linux-gnu/libm.so
significandl@GLIBC_2.2.5                          /usr/lib/gcc/x86_64-linux-gnu/4.8/../../../x86_64-linux-gnu/libm.so
sigpause                                          /lib/x86_64-linux-gnu/libc.so.6
sigpause@@GLIBC_2.2.5                             /lib/x86_64-linux-gnu/libc.so.6
sigpause@GLIBC_2.2.5                              /lib/x86_64-linux-gnu/libc.so.6
sigprocmask                                       /lib/x86_64-linux-gnu/libc.so.6
sigprocmask@@GLIBC_2.2.5                          /lib/x86_64-linux-gnu/libc.so.6
sigprocmask@GLIBC_2.2.5                           /lib/x86_64-linux-gnu/libc.so.6
                                                  /usr/lib/gcc/x86_64-linux-gnu/4.8/../../../x86_64-linux-gnu/libreadline.so
sigqueue                                          /lib/x86_64-linux-gnu/libc.so.6
sigqueue@@GLIBC_2.2.5                             /lib/x86_64-linux-gnu/libc.so.6
sigqueue@GLIBC_2.2.5                              /lib/x86_64-linux-gnu/libc.so.6
sigreturn                                         /lib/x86_64-linux-gnu/libc.so.6
sigreturn@@GLIBC_2.2.5                            /lib/x86_64-linux-gnu/libc.so.6
sigreturn@GLIBC_2.2.5                             /lib/x86_64-linux-gnu/libc.so.6
sigsetmask                                        /lib/x86_64-linux-gnu/libc.so.6
sigsetmask@@GLIBC_2.2.5                           /lib/x86_64-linux-gnu/libc.so.6
sigsetmask@GLIBC_2.2.5                            /lib/x86_64-linux-gnu/libc.so.6
sigsuspend                                        /lib/x86_64-linux-gnu/libc.so.6
sigsuspend@@GLIBC_2.2.5                           /lib/x86_64-linux-gnu/libc.so.6
sigsuspend@GLIBC_2.2.5                            /lib/x86_64-linux-gnu/libc.so.6
sigtimedwait                                      /lib/x86_64-linux-gnu/libc.so.6
sigtimedwait@@GLIBC_2.2.5                         /lib/x86_64-linux-gnu/libc.so.6
sigtimedwait@GLIBC_2.2.5                          /lib/x86_64-linux-gnu/libc.so.6
sigvec                                            /lib/x86_64-linux-gnu/libc.so.6
sigvec@@GLIBC_2.2.5                               /lib/x86_64-linux-gnu/libc.so.6
sigvec@GLIBC_2.2.5                                /lib/x86_64-linux-gnu/libc.so.6
sigwait                                           /lib/x86_64-linux-gnu/libc.so.6
sigwait@@GLIBC_2.2.5                              /lib/x86_64-linux-gnu/libc.so.6
sigwait@GLIBC_2.2.5                               /lib/x86_64-linux-gnu/libc.so.6
sigwaitinfo                                       /lib/x86_64-linux-gnu/libc.so.6
sigwaitinfo@@GLIBC_2.2.5                          /lib/x86_64-linux-gnu/libc.so.6
sigwaitinfo@GLIBC_2.2.5                           /lib/x86_64-linux-gnu/libc.so.6
sin                                               /usr/lib/gcc/x86_64-linux-gnu/4.8/../../../x86_64-linux-gnu/libm.so
                                                  build/py/modcmath.o
                                                  build/py/modmath.o
sin@@GLIBC_2.2.5                                  /usr/lib/gcc/x86_64-linux-gnu/4.8/../../../x86_64-linux-gnu/libm.so
sin@GLIBC_2.2.5                                   /usr/lib/gcc/x86_64-linux-gnu/4.8/../../../x86_64-linux-gnu/libm.so
sincos                                            /usr/lib/gcc/x86_64-linux-gnu/4.8/../../../x86_64-linux-gnu/libm.so
                                                  build/py/modcmath.o
                                                  build/py/objcomplex.o
sincos@@GLIBC_2.2.5                               /usr/lib/gcc/x86_64-linux-gnu/4.8/../../../x86_64-linux-gnu/libm.so
sincos@GLIBC_2.2.5                                /usr/lib/gcc/x86_64-linux-gnu/4.8/../../../x86_64-linux-gnu/libm.so
sincosf                                           /usr/lib/gcc/x86_64-linux-gnu/4.8/../../../x86_64-linux-gnu/libm.so
sincosf@@GLIBC_2.2.5                              /usr/lib/gcc/x86_64-linux-gnu/4.8/../../../x86_64-linux-gnu/libm.so
sincosf@GLIBC_2.2.5                               /usr/lib/gcc/x86_64-linux-gnu/4.8/../../../x86_64-linux-gnu/libm.so
sincosl                                           /usr/lib/gcc/x86_64-linux-gnu/4.8/../../../x86_64-linux-gnu/libm.so
sincosl@@GLIBC_2.2.5                              /usr/lib/gcc/x86_64-linux-gnu/4.8/../../../x86_64-linux-gnu/libm.so
sincosl@GLIBC_2.2.5                               /usr/lib/gcc/x86_64-linux-gnu/4.8/../../../x86_64-linux-gnu/libm.so
sinf                                              /usr/lib/gcc/x86_64-linux-gnu/4.8/../../../x86_64-linux-gnu/libm.so
sinf@@GLIBC_2.2.5                                 /usr/lib/gcc/x86_64-linux-gnu/4.8/../../../x86_64-linux-gnu/libm.so
sinf@GLIBC_2.2.5                                  /usr/lib/gcc/x86_64-linux-gnu/4.8/../../../x86_64-linux-gnu/libm.so
sinh                                              /usr/lib/gcc/x86_64-linux-gnu/4.8/../../../x86_64-linux-gnu/libm.so
                                                  build/py/modcmath.o
                                                  build/py/modmath.o
sinh@@GLIBC_2.2.5                                 /usr/lib/gcc/x86_64-linux-gnu/4.8/../../../x86_64-linux-gnu/libm.so
sinh@GLIBC_2.2.5                                  /usr/lib/gcc/x86_64-linux-gnu/4.8/../../../x86_64-linux-gnu/libm.so
sinhf                                             /usr/lib/gcc/x86_64-linux-gnu/4.8/../../../x86_64-linux-gnu/libm.so
sinhf@@GLIBC_2.2.5                                /usr/lib/gcc/x86_64-linux-gnu/4.8/../../../x86_64-linux-gnu/libm.so
sinhf@GLIBC_2.2.5                                 /usr/lib/gcc/x86_64-linux-gnu/4.8/../../../x86_64-linux-gnu/libm.so
sinhl                                             /usr/lib/gcc/x86_64-linux-gnu/4.8/../../../x86_64-linux-gnu/libm.so
sinhl@@GLIBC_2.2.5                                /usr/lib/gcc/x86_64-linux-gnu/4.8/../../../x86_64-linux-gnu/libm.so
sinhl@GLIBC_2.2.5                                 /usr/lib/gcc/x86_64-linux-gnu/4.8/../../../x86_64-linux-gnu/libm.so
sinl                                              /usr/lib/gcc/x86_64-linux-gnu/4.8/../../../x86_64-linux-gnu/libm.so
sinl@@GLIBC_2.2.5                                 /usr/lib/gcc/x86_64-linux-gnu/4.8/../../../x86_64-linux-gnu/libm.so
sinl@GLIBC_2.2.5                                  /usr/lib/gcc/x86_64-linux-gnu/4.8/../../../x86_64-linux-gnu/libm.so
sleep                                             /lib/x86_64-linux-gnu/libc.so.6
sleep@@GLIBC_2.2.5                                /lib/x86_64-linux-gnu/libc.so.6
sleep@GLIBC_2.2.5                                 /lib/x86_64-linux-gnu/libc.so.6
snprintf                                          /lib/x86_64-linux-gnu/libc.so.6
snprintf@@GLIBC_2.2.5                             /lib/x86_64-linux-gnu/libc.so.6
snprintf@GLIBC_2.2.5                              /lib/x86_64-linux-gnu/libc.so.6
socket                                            /lib/x86_64-linux-gnu/libc.so.6
                                                  build/modsocket.o
socket@@GLIBC_2.2.5                               /lib/x86_64-linux-gnu/libc.so.6
socket@GLIBC_2.2.5                                /lib/x86_64-linux-gnu/libc.so.6
                                                  /usr/lib/gcc/x86_64-linux-gnu/4.8/../../../x86_64-linux-gnu/libreadline.so
socketpair                                        /lib/x86_64-linux-gnu/libc.so.6
socketpair@@GLIBC_2.2.5                           /lib/x86_64-linux-gnu/libc.so.6
socketpair@GLIBC_2.2.5                            /lib/x86_64-linux-gnu/libc.so.6
sprofil                                           /lib/x86_64-linux-gnu/libc.so.6
sprofil@@GLIBC_2.2.5                              /lib/x86_64-linux-gnu/libc.so.6
sprofil@GLIBC_2.2.5                               /lib/x86_64-linux-gnu/libc.so.6
sqrt                                              /usr/lib/gcc/x86_64-linux-gnu/4.8/../../../x86_64-linux-gnu/libm.so
                                                  build/py/modcmath.o
                                                  build/py/modmath.o
                                                  build/py/modbuiltins.o
                                                  build/py/objcomplex.o
sqrt@@GLIBC_2.2.5                                 /usr/lib/gcc/x86_64-linux-gnu/4.8/../../../x86_64-linux-gnu/libm.so
sqrt@GLIBC_2.2.5                                  /usr/lib/gcc/x86_64-linux-gnu/4.8/../../../x86_64-linux-gnu/libm.so
sqrtf                                             /usr/lib/gcc/x86_64-linux-gnu/4.8/../../../x86_64-linux-gnu/libm.so
sqrtf@@GLIBC_2.2.5                                /usr/lib/gcc/x86_64-linux-gnu/4.8/../../../x86_64-linux-gnu/libm.so
sqrtf@GLIBC_2.2.5                                 /usr/lib/gcc/x86_64-linux-gnu/4.8/../../../x86_64-linux-gnu/libm.so
sqrtl                                             /usr/lib/gcc/x86_64-linux-gnu/4.8/../../../x86_64-linux-gnu/libm.so
sqrtl@@GLIBC_2.2.5                                /usr/lib/gcc/x86_64-linux-gnu/4.8/../../../x86_64-linux-gnu/libm.so
sqrtl@GLIBC_2.2.5                                 /usr/lib/gcc/x86_64-linux-gnu/4.8/../../../x86_64-linux-gnu/libm.so
srand                                             /lib/x86_64-linux-gnu/libc.so.6
srand48_r                                         /lib/x86_64-linux-gnu/libc.so.6
srand48_r@@GLIBC_2.2.5                            /lib/x86_64-linux-gnu/libc.so.6
srand48_r@GLIBC_2.2.5                             /lib/x86_64-linux-gnu/libc.so.6
srand@@GLIBC_2.2.5                                /lib/x86_64-linux-gnu/libc.so.6
srand@GLIBC_2.2.5                                 /lib/x86_64-linux-gnu/libc.so.6
srandom                                           /lib/x86_64-linux-gnu/libc.so.6
srandom@@GLIBC_2.2.5                              /lib/x86_64-linux-gnu/libc.so.6
srandom@GLIBC_2.2.5                               /lib/x86_64-linux-gnu/libc.so.6
srandom_r                                         /lib/x86_64-linux-gnu/libc.so.6
srandom_r@@GLIBC_2.2.5                            /lib/x86_64-linux-gnu/libc.so.6
srandom_r@GLIBC_2.2.5                             /lib/x86_64-linux-gnu/libc.so.6
ssignal                                           /lib/x86_64-linux-gnu/libc.so.6
ssignal@@GLIBC_2.2.5                              /lib/x86_64-linux-gnu/libc.so.6
ssignal@GLIBC_2.2.5                               /lib/x86_64-linux-gnu/libc.so.6
stat                                              /usr/lib/x86_64-linux-gnu/libc_nonshared.a(stat.oS)
                                                  build/modos.o
                                                  build/main.o
statfs                                            /lib/x86_64-linux-gnu/libc.so.6
statfs64                                          /lib/x86_64-linux-gnu/libc.so.6
statfs64@@GLIBC_2.2.5                             /lib/x86_64-linux-gnu/libc.so.6
statfs64@GLIBC_2.2.5                              /lib/x86_64-linux-gnu/libc.so.6
statfs@@GLIBC_2.2.5                               /lib/x86_64-linux-gnu/libc.so.6
statfs@GLIBC_2.2.5                                /lib/x86_64-linux-gnu/libc.so.6
                                                  /usr/lib/gcc/x86_64-linux-gnu/4.8/../../../x86_64-linux-gnu/libffi.so
statvfs64                                         /lib/x86_64-linux-gnu/libc.so.6
statvfs64@@GLIBC_2.2.5                            /lib/x86_64-linux-gnu/libc.so.6
statvfs64@GLIBC_2.2.5                             /lib/x86_64-linux-gnu/libc.so.6
stderr                                            /lib/x86_64-linux-gnu/libc.so.6
                                                  build/main.o
stderr@@GLIBC_2.2.5                               /lib/x86_64-linux-gnu/libc.so.6
stderr@GLIBC_2.2.5                                /lib/x86_64-linux-gnu/libc.so.6
                                                  //lib/x86_64-linux-gnu/libtinfo.so.5
                                                  /usr/lib/gcc/x86_64-linux-gnu/4.8/../../../x86_64-linux-gnu/libm.so
                                                  /usr/lib/gcc/x86_64-linux-gnu/4.8/../../../x86_64-linux-gnu/libreadline.so
step                                              /lib/x86_64-linux-gnu/libc.so.6
step@@GLIBC_2.2.5                                 /lib/x86_64-linux-gnu/libc.so.6
step@GLIBC_2.2.5                                  /lib/x86_64-linux-gnu/libc.so.6
stpcpy                                            /lib/x86_64-linux-gnu/libc.so.6
stpcpy@@GLIBC_2.2.5                               /lib/x86_64-linux-gnu/libc.so.6
stpcpy@GLIBC_2.2.5                                /lib/x86_64-linux-gnu/libc.so.6
                                                  /usr/lib/gcc/x86_64-linux-gnu/4.8/../../../x86_64-linux-gnu/libreadline.so
stpncpy                                           /lib/x86_64-linux-gnu/libc.so.6
stpncpy@@GLIBC_2.2.5                              /lib/x86_64-linux-gnu/libc.so.6
stpncpy@GLIBC_2.2.5                               /lib/x86_64-linux-gnu/libc.so.6
str_count_obj                                     build/py/objstr.o
                                                  build/py/objstrunicode.o
str_encode_obj                                    build/py/objstr.o
                                                  build/py/objstrunicode.o
str_endswith_obj                                  build/py/objstr.o
                                                  build/py/objstrunicode.o
str_find_obj                                      build/py/objstr.o
                                                  build/py/objstrunicode.o
str_format_obj                                    build/py/objstr.o
                                                  build/py/objstrunicode.o
str_index_obj                                     build/py/objstr.o
                                                  build/py/objstrunicode.o
str_index_to_ptr                                  build/py/objstrunicode.o
                                                  build/py/objstr.o
str_isalpha_obj                                   build/py/objstr.o
                                                  build/py/objstrunicode.o
str_isdigit_obj                                   build/py/objstr.o
                                                  build/py/objstrunicode.o
str_islower_obj                                   build/py/objstr.o
                                                  build/py/objstrunicode.o
str_isspace_obj                                   build/py/objstr.o
                                                  build/py/objstrunicode.o
str_isupper_obj                                   build/py/objstr.o
                                                  build/py/objstrunicode.o
str_join_obj                                      build/py/objstr.o
                                                  build/py/objstrunicode.o
str_lower_obj                                     build/py/objstr.o
                                                  build/py/objstrunicode.o
str_lstrip_obj                                    build/py/objstr.o
                                                  build/py/objstrunicode.o
str_partition_obj                                 build/py/objstr.o
                                                  build/py/objstrunicode.o
str_replace_obj                                   build/py/objstr.o
                                                  build/py/objstrunicode.o
str_rfind_obj                                     build/py/objstr.o
                                                  build/py/objstrunicode.o
str_rindex_obj                                    build/py/objstr.o
                                                  build/py/objstrunicode.o
str_rpartition_obj                                build/py/objstr.o
                                                  build/py/objstrunicode.o
str_rsplit_obj                                    build/py/objstr.o
                                                  build/py/objstrunicode.o
str_rstrip_obj                                    build/py/objstr.o
                                                  build/py/objstrunicode.o
str_split_obj                                     build/py/objstr.o
                                                  build/py/objstrunicode.o
str_startswith_obj                                build/py/objstr.o
                                                  build/py/objstrunicode.o
str_strip_obj                                     build/py/objstr.o
                                                  build/py/objstrunicode.o
str_upper_obj                                     build/py/objstr.o
                                                  build/py/objstrunicode.o
strcasecmp                                        /lib/x86_64-linux-gnu/libc.so.6
strcasecmp@@GLIBC_2.2.5                           /lib/x86_64-linux-gnu/libc.so.6
strcasecmp@GLIBC_2.2.5                            /lib/x86_64-linux-gnu/libc.so.6
                                                  /usr/lib/gcc/x86_64-linux-gnu/4.8/../../../x86_64-linux-gnu/libreadline.so
strcasecmp_l                                      /lib/x86_64-linux-gnu/libc.so.6
strcasecmp_l@@GLIBC_2.3                           /lib/x86_64-linux-gnu/libc.so.6
strcasecmp_l@GLIBC_2.3                            /lib/x86_64-linux-gnu/libc.so.6
strcasestr                                        /lib/x86_64-linux-gnu/libc.so.6
strcasestr@@GLIBC_2.2.5                           /lib/x86_64-linux-gnu/libc.so.6
strcasestr@GLIBC_2.2.5                            /lib/x86_64-linux-gnu/libc.so.6
strchr                                            /lib/x86_64-linux-gnu/libc.so.6
                                                  build/main.o
                                                  build/py/builtinimport.o
                                                  build/py/objstr.o
                                                  build/py/objfloat.o
                                                  build/py/objexcept.o
strchr@@GLIBC_2.2.5                               /lib/x86_64-linux-gnu/libc.so.6
strchr@GLIBC_2.2.5                                /lib/x86_64-linux-gnu/libc.so.6
                                                  //lib/x86_64-linux-gnu/libtinfo.so.5
                                                  /usr/lib/gcc/x86_64-linux-gnu/4.8/../../../x86_64-linux-gnu/libffi.so
                                                  /usr/lib/gcc/x86_64-linux-gnu/4.8/../../../x86_64-linux-gnu/libreadline.so
strchrnul                                         /lib/x86_64-linux-gnu/libc.so.6
strchrnul@@GLIBC_2.2.5                            /lib/x86_64-linux-gnu/libc.so.6
strchrnul@GLIBC_2.2.5                             /lib/x86_64-linux-gnu/libc.so.6
strcmp                                            /lib/x86_64-linux-gnu/libc.so.6
                                                  build/main.o
strcmp@@GLIBC_2.2.5                               /lib/x86_64-linux-gnu/libc.so.6
strcmp@GLIBC_2.2.5                                /lib/x86_64-linux-gnu/libc.so.6
                                                  //lib/x86_64-linux-gnu/libtinfo.so.5
                                                  /usr/lib/gcc/x86_64-linux-gnu/4.8/../../../x86_64-linux-gnu/libreadline.so
strcoll_l                                         /lib/x86_64-linux-gnu/libc.so.6
strcoll_l@@GLIBC_2.3                              /lib/x86_64-linux-gnu/libc.so.6
strcoll_l@GLIBC_2.3                               /lib/x86_64-linux-gnu/libc.so.6
strdup                                            /lib/x86_64-linux-gnu/libc.so.6
strdup@@GLIBC_2.2.5                               /lib/x86_64-linux-gnu/libc.so.6
strdup@GLIBC_2.2.5                                /lib/x86_64-linux-gnu/libc.so.6
strerror_r                                        /lib/x86_64-linux-gnu/libc.so.6
strerror_r@@GLIBC_2.2.5                           /lib/x86_64-linux-gnu/libc.so.6
strerror_r@GLIBC_2.2.5                            /lib/x86_64-linux-gnu/libc.so.6
strfmon_l                                         /lib/x86_64-linux-gnu/libc.so.6
strfmon_l@@GLIBC_2.3                              /lib/x86_64-linux-gnu/libc.so.6
strfmon_l@GLIBC_2.3                               /lib/x86_64-linux-gnu/libc.so.6
strftime_l                                        /lib/x86_64-linux-gnu/libc.so.6
strftime_l@@GLIBC_2.3                             /lib/x86_64-linux-gnu/libc.so.6
strftime_l@GLIBC_2.3                              /lib/x86_64-linux-gnu/libc.so.6
strncasecmp                                       /lib/x86_64-linux-gnu/libc.so.6
strncasecmp@@GLIBC_2.2.5                          /lib/x86_64-linux-gnu/libc.so.6
strncasecmp@GLIBC_2.2.5                           /lib/x86_64-linux-gnu/libc.so.6
                                                  /usr/lib/gcc/x86_64-linux-gnu/4.8/../../../x86_64-linux-gnu/libreadline.so
strncasecmp_l                                     /lib/x86_64-linux-gnu/libc.so.6
strncasecmp_l@@GLIBC_2.3                          /lib/x86_64-linux-gnu/libc.so.6
strncasecmp_l@GLIBC_2.3                           /lib/x86_64-linux-gnu/libc.so.6
strncmp                                           /lib/x86_64-linux-gnu/libc.so.6
                                                  build/main.o
strncmp@@GLIBC_2.2.5                              /lib/x86_64-linux-gnu/libc.so.6
strncmp@GLIBC_2.2.5                               /lib/x86_64-linux-gnu/libc.so.6
                                                  //lib/x86_64-linux-gnu/libtinfo.so.5
                                                  /usr/lib/gcc/x86_64-linux-gnu/4.8/../../../x86_64-linux-gnu/libreadline.so
strndup                                           /lib/x86_64-linux-gnu/libc.so.6
strndup@@GLIBC_2.2.5                              /lib/x86_64-linux-gnu/libc.so.6
strndup@GLIBC_2.2.5                               /lib/x86_64-linux-gnu/libc.so.6
strnlen                                           /lib/x86_64-linux-gnu/libc.so.6
strnlen@@GLIBC_2.2.5                              /lib/x86_64-linux-gnu/libc.so.6
strnlen@GLIBC_2.2.5                               /lib/x86_64-linux-gnu/libc.so.6
strptime_l                                        /lib/x86_64-linux-gnu/libc.so.6
strptime_l@@GLIBC_2.3.2                           /lib/x86_64-linux-gnu/libc.so.6
strptime_l@GLIBC_2.3.2                            /lib/x86_64-linux-gnu/libc.so.6
strrchr                                           /lib/x86_64-linux-gnu/libc.so.6
                                                  build/main.o
strrchr@@GLIBC_2.2.5                              /lib/x86_64-linux-gnu/libc.so.6
strrchr@GLIBC_2.2.5                               /lib/x86_64-linux-gnu/libc.so.6
                                                  //lib/x86_64-linux-gnu/libtinfo.so.5
                                                  /usr/lib/gcc/x86_64-linux-gnu/4.8/../../../x86_64-linux-gnu/libreadline.so
strsep                                            /lib/x86_64-linux-gnu/libc.so.6
strsep@@GLIBC_2.2.5                               /lib/x86_64-linux-gnu/libc.so.6
strsep@GLIBC_2.2.5                                /lib/x86_64-linux-gnu/libc.so.6
strtod_l                                          /lib/x86_64-linux-gnu/libc.so.6
strtod_l@@GLIBC_2.3                               /lib/x86_64-linux-gnu/libc.so.6
strtod_l@GLIBC_2.3                                /lib/x86_64-linux-gnu/libc.so.6
strtof_l                                          /lib/x86_64-linux-gnu/libc.so.6
strtof_l@@GLIBC_2.3                               /lib/x86_64-linux-gnu/libc.so.6
strtof_l@GLIBC_2.3                                /lib/x86_64-linux-gnu/libc.so.6
strtok_r                                          /lib/x86_64-linux-gnu/libc.so.6
strtok_r@@GLIBC_2.2.5                             /lib/x86_64-linux-gnu/libc.so.6
strtok_r@GLIBC_2.2.5                              /lib/x86_64-linux-gnu/libc.so.6
strtol                                            /lib/x86_64-linux-gnu/libc.so.6
                                                  build/main.o
strtol@@GLIBC_2.2.5                               /lib/x86_64-linux-gnu/libc.so.6
strtol@GLIBC_2.2.5                                /lib/x86_64-linux-gnu/libc.so.6
                                                  //lib/x86_64-linux-gnu/libtinfo.so.5
                                                  /usr/lib/gcc/x86_64-linux-gnu/4.8/../../../x86_64-linux-gnu/libreadline.so
strtol_l                                          /lib/x86_64-linux-gnu/libc.so.6
strtol_l@@GLIBC_2.3                               /lib/x86_64-linux-gnu/libc.so.6
strtol_l@GLIBC_2.3                                /lib/x86_64-linux-gnu/libc.so.6
strtold_l                                         /lib/x86_64-linux-gnu/libc.so.6
strtold_l@@GLIBC_2.3                              /lib/x86_64-linux-gnu/libc.so.6
strtold_l@GLIBC_2.3                               /lib/x86_64-linux-gnu/libc.so.6
strtoll                                           /lib/x86_64-linux-gnu/libc.so.6
strtoll@@GLIBC_2.2.5                              /lib/x86_64-linux-gnu/libc.so.6
strtoll@GLIBC_2.2.5                               /lib/x86_64-linux-gnu/libc.so.6
strtoll_l                                         /lib/x86_64-linux-gnu/libc.so.6
strtoll_l@@GLIBC_2.3.3                            /lib/x86_64-linux-gnu/libc.so.6
strtoll_l@GLIBC_2.3.3                             /lib/x86_64-linux-gnu/libc.so.6
strtoq                                            /lib/x86_64-linux-gnu/libc.so.6
strtoq@@GLIBC_2.2.5                               /lib/x86_64-linux-gnu/libc.so.6
strtoq@GLIBC_2.2.5                                /lib/x86_64-linux-gnu/libc.so.6
strtoul_l                                         /lib/x86_64-linux-gnu/libc.so.6
strtoul_l@@GLIBC_2.3                              /lib/x86_64-linux-gnu/libc.so.6
strtoul_l@GLIBC_2.3                               /lib/x86_64-linux-gnu/libc.so.6
strtoull                                          /lib/x86_64-linux-gnu/libc.so.6
strtoull@@GLIBC_2.2.5                             /lib/x86_64-linux-gnu/libc.so.6
strtoull@GLIBC_2.2.5                              /lib/x86_64-linux-gnu/libc.so.6
strtoull_l                                        /lib/x86_64-linux-gnu/libc.so.6
strtoull_l@@GLIBC_2.3.3                           /lib/x86_64-linux-gnu/libc.so.6
strtoull_l@GLIBC_2.3.3                            /lib/x86_64-linux-gnu/libc.so.6
strtouq                                           /lib/x86_64-linux-gnu/libc.so.6
strtouq@@GLIBC_2.2.5                              /lib/x86_64-linux-gnu/libc.so.6
strtouq@GLIBC_2.2.5                               /lib/x86_64-linux-gnu/libc.so.6
struct_calcsize_obj                               build/py/modstruct.o
struct_pack_obj                                   build/py/modstruct.o
struct_unpack_obj                                 build/py/modstruct.o
strverscmp                                        /lib/x86_64-linux-gnu/libc.so.6
strverscmp@@GLIBC_2.2.5                           /lib/x86_64-linux-gnu/libc.so.6
strverscmp@GLIBC_2.2.5                            /lib/x86_64-linux-gnu/libc.so.6
strxfrm_l                                         /lib/x86_64-linux-gnu/libc.so.6
strxfrm_l@@GLIBC_2.3                              /lib/x86_64-linux-gnu/libc.so.6
strxfrm_l@GLIBC_2.3                               /lib/x86_64-linux-gnu/libc.so.6
swapcontext                                       /lib/x86_64-linux-gnu/libc.so.6
swapcontext@@GLIBC_2.2.5                          /lib/x86_64-linux-gnu/libc.so.6
swapcontext@GLIBC_2.2.5                           /lib/x86_64-linux-gnu/libc.so.6
swapoff                                           /lib/x86_64-linux-gnu/libc.so.6
swapoff@@GLIBC_2.2.5                              /lib/x86_64-linux-gnu/libc.so.6
swapoff@GLIBC_2.2.5                               /lib/x86_64-linux-gnu/libc.so.6
swapon                                            /lib/x86_64-linux-gnu/libc.so.6
swapon@@GLIBC_2.2.5                               /lib/x86_64-linux-gnu/libc.so.6
swapon@GLIBC_2.2.5                                /lib/x86_64-linux-gnu/libc.so.6
symlink                                           /lib/x86_64-linux-gnu/libc.so.6
symlink@@GLIBC_2.2.5                              /lib/x86_64-linux-gnu/libc.so.6
symlink@GLIBC_2.2.5                               /lib/x86_64-linux-gnu/libc.so.6
sysconf                                           /lib/x86_64-linux-gnu/libc.so.6
sysconf@@GLIBC_2.2.5                              /lib/x86_64-linux-gnu/libc.so.6
sysconf@GLIBC_2.2.5                               /lib/x86_64-linux-gnu/libc.so.6
                                                  /usr/lib/gcc/x86_64-linux-gnu/4.8/../../../x86_64-linux-gnu/libffi.so
sysctl                                            /lib/x86_64-linux-gnu/libc.so.6
sysctl@@GLIBC_2.2.5                               /lib/x86_64-linux-gnu/libc.so.6
sysctl@GLIBC_2.2.5                                /lib/x86_64-linux-gnu/libc.so.6
system                                            /lib/x86_64-linux-gnu/libc.so.6
                                                  build/modos.o
system@@GLIBC_2.2.5                               /lib/x86_64-linux-gnu/libc.so.6
system@GLIBC_2.2.5                                /lib/x86_64-linux-gnu/libc.so.6
sysv_signal                                       /lib/x86_64-linux-gnu/libc.so.6
sysv_signal@@GLIBC_2.2.5                          /lib/x86_64-linux-gnu/libc.so.6
sysv_signal@GLIBC_2.2.5                           /lib/x86_64-linux-gnu/libc.so.6
tan                                               /usr/lib/gcc/x86_64-linux-gnu/4.8/../../../x86_64-linux-gnu/libm.so
                                                  build/py/modmath.o
tan@@GLIBC_2.2.5                                  /usr/lib/gcc/x86_64-linux-gnu/4.8/../../../x86_64-linux-gnu/libm.so
tan@GLIBC_2.2.5                                   /usr/lib/gcc/x86_64-linux-gnu/4.8/../../../x86_64-linux-gnu/libm.so
tanf                                              /usr/lib/gcc/x86_64-linux-gnu/4.8/../../../x86_64-linux-gnu/libm.so
tanf@@GLIBC_2.2.5                                 /usr/lib/gcc/x86_64-linux-gnu/4.8/../../../x86_64-linux-gnu/libm.so
tanf@GLIBC_2.2.5                                  /usr/lib/gcc/x86_64-linux-gnu/4.8/../../../x86_64-linux-gnu/libm.so
tanh                                              /usr/lib/gcc/x86_64-linux-gnu/4.8/../../../x86_64-linux-gnu/libm.so
                                                  build/py/modmath.o
tanh@@GLIBC_2.2.5                                 /usr/lib/gcc/x86_64-linux-gnu/4.8/../../../x86_64-linux-gnu/libm.so
tanh@GLIBC_2.2.5                                  /usr/lib/gcc/x86_64-linux-gnu/4.8/../../../x86_64-linux-gnu/libm.so
tanhf                                             /usr/lib/gcc/x86_64-linux-gnu/4.8/../../../x86_64-linux-gnu/libm.so
tanhf@@GLIBC_2.2.5                                /usr/lib/gcc/x86_64-linux-gnu/4.8/../../../x86_64-linux-gnu/libm.so
tanhf@GLIBC_2.2.5                                 /usr/lib/gcc/x86_64-linux-gnu/4.8/../../../x86_64-linux-gnu/libm.so
tanhl                                             /usr/lib/gcc/x86_64-linux-gnu/4.8/../../../x86_64-linux-gnu/libm.so
tanhl@@GLIBC_2.2.5                                /usr/lib/gcc/x86_64-linux-gnu/4.8/../../../x86_64-linux-gnu/libm.so
tanhl@GLIBC_2.2.5                                 /usr/lib/gcc/x86_64-linux-gnu/4.8/../../../x86_64-linux-gnu/libm.so
tanl                                              /usr/lib/gcc/x86_64-linux-gnu/4.8/../../../x86_64-linux-gnu/libm.so
tanl@@GLIBC_2.2.5                                 /usr/lib/gcc/x86_64-linux-gnu/4.8/../../../x86_64-linux-gnu/libm.so
tanl@GLIBC_2.2.5                                  /usr/lib/gcc/x86_64-linux-gnu/4.8/../../../x86_64-linux-gnu/libm.so
tcdrain                                           /lib/x86_64-linux-gnu/libc.so.6
tcdrain@@GLIBC_2.2.5                              /lib/x86_64-linux-gnu/libc.so.6
tcdrain@GLIBC_2.2.5                               /lib/x86_64-linux-gnu/libc.so.6
tcgetattr                                         /lib/x86_64-linux-gnu/libc.so.6
                                                  build/modtermios.o
tcgetattr@@GLIBC_2.2.5                            /lib/x86_64-linux-gnu/libc.so.6
tcgetattr@GLIBC_2.2.5                             /lib/x86_64-linux-gnu/libc.so.6
                                                  //lib/x86_64-linux-gnu/libtinfo.so.5
                                                  /usr/lib/gcc/x86_64-linux-gnu/4.8/../../../x86_64-linux-gnu/libreadline.so
tcsetattr                                         /lib/x86_64-linux-gnu/libc.so.6
                                                  build/modtermios.o
tcsetattr@@GLIBC_2.2.5                            /lib/x86_64-linux-gnu/libc.so.6
tcsetattr@GLIBC_2.2.5                             /lib/x86_64-linux-gnu/libc.so.6
                                                  //lib/x86_64-linux-gnu/libtinfo.so.5
                                                  /usr/lib/gcc/x86_64-linux-gnu/4.8/../../../x86_64-linux-gnu/libreadline.so
tdelete                                           /lib/x86_64-linux-gnu/libc.so.6
tdelete@@GLIBC_2.2.5                              /lib/x86_64-linux-gnu/libc.so.6
tdelete@GLIBC_2.2.5                               /lib/x86_64-linux-gnu/libc.so.6
tdestroy                                          /lib/x86_64-linux-gnu/libc.so.6
tdestroy@@GLIBC_2.2.5                             /lib/x86_64-linux-gnu/libc.so.6
tdestroy@GLIBC_2.2.5                              /lib/x86_64-linux-gnu/libc.so.6
textdomain                                        /lib/x86_64-linux-gnu/libc.so.6
textdomain@@GLIBC_2.2.5                           /lib/x86_64-linux-gnu/libc.so.6
textdomain@GLIBC_2.2.5                            /lib/x86_64-linux-gnu/libc.so.6
tfind                                             /lib/x86_64-linux-gnu/libc.so.6
tfind@@GLIBC_2.2.5                                /lib/x86_64-linux-gnu/libc.so.6
tfind@GLIBC_2.2.5                                 /lib/x86_64-linux-gnu/libc.so.6
tgamma                                            /usr/lib/gcc/x86_64-linux-gnu/4.8/../../../x86_64-linux-gnu/libm.so
                                                  build/py/modmath.o
tgamma@@GLIBC_2.2.5                               /usr/lib/gcc/x86_64-linux-gnu/4.8/../../../x86_64-linux-gnu/libm.so
tgamma@GLIBC_2.2.5                                /usr/lib/gcc/x86_64-linux-gnu/4.8/../../../x86_64-linux-gnu/libm.so
tgammaf                                           /usr/lib/gcc/x86_64-linux-gnu/4.8/../../../x86_64-linux-gnu/libm.so
tgammaf@@GLIBC_2.2.5                              /usr/lib/gcc/x86_64-linux-gnu/4.8/../../../x86_64-linux-gnu/libm.so
tgammaf@GLIBC_2.2.5                               /usr/lib/gcc/x86_64-linux-gnu/4.8/../../../x86_64-linux-gnu/libm.so
tgammal                                           /usr/lib/gcc/x86_64-linux-gnu/4.8/../../../x86_64-linux-gnu/libm.so
tgammal@@GLIBC_2.2.5                              /usr/lib/gcc/x86_64-linux-gnu/4.8/../../../x86_64-linux-gnu/libm.so
tgammal@GLIBC_2.2.5                               /usr/lib/gcc/x86_64-linux-gnu/4.8/../../../x86_64-linux-gnu/libm.so
timelocal                                         /lib/x86_64-linux-gnu/libc.so.6
timelocal@@GLIBC_2.2.5                            /lib/x86_64-linux-gnu/libc.so.6
timelocal@GLIBC_2.2.5                             /lib/x86_64-linux-gnu/libc.so.6
times                                             /lib/x86_64-linux-gnu/libc.so.6
times@@GLIBC_2.2.5                                /lib/x86_64-linux-gnu/libc.so.6
times@GLIBC_2.2.5                                 /lib/x86_64-linux-gnu/libc.so.6
timezone                                          /lib/x86_64-linux-gnu/libc.so.6
timezone@@GLIBC_2.2.5                             /lib/x86_64-linux-gnu/libc.so.6
timezone@GLIBC_2.2.5                              /lib/x86_64-linux-gnu/libc.so.6
tinf_adler32                                      build/py/../extmod/moduzlib.o
tinf_init                                         build/py/../extmod/moduzlib.o
tinf_uncompress                                   build/py/../extmod/moduzlib.o
tinf_uncompress_dyn                               build/py/../extmod/moduzlib.o
tinf_zlib_uncompress                              build/py/../extmod/moduzlib.o
tinf_zlib_uncompress_dyn                          build/py/../extmod/moduzlib.o
tmpfile64                                         /lib/x86_64-linux-gnu/libc.so.6
tmpfile64@@GLIBC_2.2.5                            /lib/x86_64-linux-gnu/libc.so.6
tmpfile64@GLIBC_2.2.5                             /lib/x86_64-linux-gnu/libc.so.6
tolower_l                                         /lib/x86_64-linux-gnu/libc.so.6
tolower_l@@GLIBC_2.3                              /lib/x86_64-linux-gnu/libc.so.6
tolower_l@GLIBC_2.3                               /lib/x86_64-linux-gnu/libc.so.6
toupper_l                                         /lib/x86_64-linux-gnu/libc.so.6
toupper_l@@GLIBC_2.3                              /lib/x86_64-linux-gnu/libc.so.6
toupper_l@GLIBC_2.3                               /lib/x86_64-linux-gnu/libc.so.6
towctrans                                         /lib/x86_64-linux-gnu/libc.so.6
towctrans@@GLIBC_2.2.5                            /lib/x86_64-linux-gnu/libc.so.6
towctrans@GLIBC_2.2.5                             /lib/x86_64-linux-gnu/libc.so.6
towctrans_l                                       /lib/x86_64-linux-gnu/libc.so.6
towctrans_l@@GLIBC_2.3                            /lib/x86_64-linux-gnu/libc.so.6
towctrans_l@GLIBC_2.3                             /lib/x86_64-linux-gnu/libc.so.6
towlower_l                                        /lib/x86_64-linux-gnu/libc.so.6
towlower_l@@GLIBC_2.3                             /lib/x86_64-linux-gnu/libc.so.6
towlower_l@GLIBC_2.3                              /lib/x86_64-linux-gnu/libc.so.6
towupper_l                                        /lib/x86_64-linux-gnu/libc.so.6
towupper_l@@GLIBC_2.3                             /lib/x86_64-linux-gnu/libc.so.6
towupper_l@GLIBC_2.3                              /lib/x86_64-linux-gnu/libc.so.6
trunc                                             /usr/lib/gcc/x86_64-linux-gnu/4.8/../../../x86_64-linux-gnu/libm.so
trunc@@GLIBC_2.2.5                                /usr/lib/gcc/x86_64-linux-gnu/4.8/../../../x86_64-linux-gnu/libm.so
trunc@GLIBC_2.2.5                                 /usr/lib/gcc/x86_64-linux-gnu/4.8/../../../x86_64-linux-gnu/libm.so
truncate64                                        /lib/x86_64-linux-gnu/libc.so.6
truncate64@@GLIBC_2.2.5                           /lib/x86_64-linux-gnu/libc.so.6
truncate64@GLIBC_2.2.5                            /lib/x86_64-linux-gnu/libc.so.6
truncf                                            /usr/lib/gcc/x86_64-linux-gnu/4.8/../../../x86_64-linux-gnu/libm.so
truncf@@GLIBC_2.2.5                               /usr/lib/gcc/x86_64-linux-gnu/4.8/../../../x86_64-linux-gnu/libm.so
truncf@GLIBC_2.2.5                                /usr/lib/gcc/x86_64-linux-gnu/4.8/../../../x86_64-linux-gnu/libm.so
truncl                                            /usr/lib/gcc/x86_64-linux-gnu/4.8/../../../x86_64-linux-gnu/libm.so
truncl@@GLIBC_2.2.5                               /usr/lib/gcc/x86_64-linux-gnu/4.8/../../../x86_64-linux-gnu/libm.so
truncl@GLIBC_2.2.5                                /usr/lib/gcc/x86_64-linux-gnu/4.8/../../../x86_64-linux-gnu/libm.so
tsearch                                           /lib/x86_64-linux-gnu/libc.so.6
tsearch@@GLIBC_2.2.5                              /lib/x86_64-linux-gnu/libc.so.6
tsearch@GLIBC_2.2.5                               /lib/x86_64-linux-gnu/libc.so.6
ttyname_r                                         /lib/x86_64-linux-gnu/libc.so.6
ttyname_r@@GLIBC_2.2.5                            /lib/x86_64-linux-gnu/libc.so.6
ttyname_r@GLIBC_2.2.5                             /lib/x86_64-linux-gnu/libc.so.6
twalk                                             /lib/x86_64-linux-gnu/libc.so.6
twalk@@GLIBC_2.2.5                                /lib/x86_64-linux-gnu/libc.so.6
twalk@GLIBC_2.2.5                                 /lib/x86_64-linux-gnu/libc.so.6
tzname                                            /lib/x86_64-linux-gnu/libc.so.6
tzname@@GLIBC_2.2.5                               /lib/x86_64-linux-gnu/libc.so.6
tzname@GLIBC_2.2.5                                /lib/x86_64-linux-gnu/libc.so.6
tzset                                             /lib/x86_64-linux-gnu/libc.so.6
tzset@@GLIBC_2.2.5                                /lib/x86_64-linux-gnu/libc.so.6
tzset@GLIBC_2.2.5                                 /lib/x86_64-linux-gnu/libc.so.6
uctypes_struct_addressof_obj                      build/py/../extmod/moductypes.o
uctypes_struct_bytearray_at_obj                   build/py/../extmod/moductypes.o
uctypes_struct_bytes_at_obj                       build/py/../extmod/moductypes.o
ulckpwdf                                          /lib/x86_64-linux-gnu/libc.so.6
ulckpwdf@@GLIBC_2.2.5                             /lib/x86_64-linux-gnu/libc.so.6
ulckpwdf@GLIBC_2.2.5                              /lib/x86_64-linux-gnu/libc.so.6
ulimit                                            /lib/x86_64-linux-gnu/libc.so.6
ulimit@@GLIBC_2.2.5                               /lib/x86_64-linux-gnu/libc.so.6
ulimit@GLIBC_2.2.5                                /lib/x86_64-linux-gnu/libc.so.6
umask                                             /lib/x86_64-linux-gnu/libc.so.6
umask@@GLIBC_2.2.5                                /lib/x86_64-linux-gnu/libc.so.6
umask@GLIBC_2.2.5                                 /lib/x86_64-linux-gnu/libc.so.6
umount                                            /lib/x86_64-linux-gnu/libc.so.6
umount2                                           /lib/x86_64-linux-gnu/libc.so.6
umount2@@GLIBC_2.2.5                              /lib/x86_64-linux-gnu/libc.so.6
umount2@GLIBC_2.2.5                               /lib/x86_64-linux-gnu/libc.so.6
umount@@GLIBC_2.2.5                               /lib/x86_64-linux-gnu/libc.so.6
umount@GLIBC_2.2.5                                /lib/x86_64-linux-gnu/libc.so.6
uname                                             /lib/x86_64-linux-gnu/libc.so.6
uname@@GLIBC_2.2.5                                /lib/x86_64-linux-gnu/libc.so.6
uname@GLIBC_2.2.5                                 /lib/x86_64-linux-gnu/libc.so.6
ungetc                                            /lib/x86_64-linux-gnu/libc.so.6
ungetc@@GLIBC_2.2.5                               /lib/x86_64-linux-gnu/libc.so.6
ungetc@GLIBC_2.2.5                                /lib/x86_64-linux-gnu/libc.so.6
unichar_charlen                                   build/py/unicode.o
                                                  build/py/modbuiltins.o
                                                  build/py/objstrunicode.o
                                                  build/py/objstr.o
unichar_isalpha                                   build/py/unicode.o
                                                  build/py/repl.o
                                                  build/py/objstr.o
                                                  build/py/lexer.o
unichar_isdigit                                   build/py/unicode.o
                                                  build/py/../extmod/modujson.o
                                                  build/py/modstruct.o
                                                  build/py/objstr.o
                                                  build/py/parsenum.o
                                                  build/py/lexer.o
unichar_islower                                   build/py/unicode.o
                                                  build/py/objstr.o
unichar_isprint                                   build/py/unicode.o
                                                  build/py/lexer.o
unichar_isspace                                   build/py/unicode.o
                                                  build/py/../extmod/modujson.o
                                                  build/py/objstr.o
                                                  build/py/parsenum.o
                                                  build/py/lexer.o
unichar_isupper                                   build/py/unicode.o
                                                  build/py/objstr.o
unichar_isxdigit                                  build/py/unicode.o
                                                  build/py/lexer.o
unichar_tolower                                   build/py/unicode.o
                                                  build/py/objstr.o
unichar_toupper                                   build/py/unicode.o
                                                  build/py/objstr.o
unlink                                            /lib/x86_64-linux-gnu/libc.so.6
                                                  build/modos.o
unlink@@GLIBC_2.2.5                               /lib/x86_64-linux-gnu/libc.so.6
unlink@GLIBC_2.2.5                                /lib/x86_64-linux-gnu/libc.so.6
                                                  /usr/lib/gcc/x86_64-linux-gnu/4.8/../../../x86_64-linux-gnu/libffi.so
                                                  /usr/lib/gcc/x86_64-linux-gnu/4.8/../../../x86_64-linux-gnu/libreadline.so
unsetenv                                          /lib/x86_64-linux-gnu/libc.so.6
unsetenv@@GLIBC_2.2.5                             /lib/x86_64-linux-gnu/libc.so.6
unsetenv@GLIBC_2.2.5                              /lib/x86_64-linux-gnu/libc.so.6
updwtmp                                           /lib/x86_64-linux-gnu/libc.so.6
updwtmp@@GLIBC_2.2.5                              /lib/x86_64-linux-gnu/libc.so.6
updwtmp@GLIBC_2.2.5                               /lib/x86_64-linux-gnu/libc.so.6
uselocale                                         /lib/x86_64-linux-gnu/libc.so.6
uselocale@@GLIBC_2.3                              /lib/x86_64-linux-gnu/libc.so.6
uselocale@GLIBC_2.3                               /lib/x86_64-linux-gnu/libc.so.6
utf8_get_char                                     build/py/unicode.o
                                                  build/py/objstrunicode.o
                                                  build/py/lexer.o
utf8_next_char                                    build/py/unicode.o
                                                  build/py/objstrunicode.o
                                                  build/py/objstr.o
                                                  build/py/lexer.o
utf8_ptr_to_index                                 build/py/unicode.o
                                                  build/py/objstr.o
utimes                                            /lib/x86_64-linux-gnu/libc.so.6
utimes@@GLIBC_2.2.5                               /lib/x86_64-linux-gnu/libc.so.6
utimes@GLIBC_2.2.5                                /lib/x86_64-linux-gnu/libc.so.6
utmpname                                          /lib/x86_64-linux-gnu/libc.so.6
utmpname@@GLIBC_2.2.5                             /lib/x86_64-linux-gnu/libc.so.6
utmpname@GLIBC_2.2.5                              /lib/x86_64-linux-gnu/libc.so.6
valloc                                            /lib/x86_64-linux-gnu/libc.so.6
valloc@@GLIBC_2.2.5                               /lib/x86_64-linux-gnu/libc.so.6
valloc@GLIBC_2.2.5                                /lib/x86_64-linux-gnu/libc.so.6
vasprintf                                         /lib/x86_64-linux-gnu/libc.so.6
vasprintf@@GLIBC_2.2.5                            /lib/x86_64-linux-gnu/libc.so.6
vasprintf@GLIBC_2.2.5                             /lib/x86_64-linux-gnu/libc.so.6
vdprintf                                          /lib/x86_64-linux-gnu/libc.so.6
vdprintf@@GLIBC_2.2.5                             /lib/x86_64-linux-gnu/libc.so.6
vdprintf@GLIBC_2.2.5                              /lib/x86_64-linux-gnu/libc.so.6
versionsort64                                     /lib/x86_64-linux-gnu/libc.so.6
versionsort64@@GLIBC_2.2.5                        /lib/x86_64-linux-gnu/libc.so.6
versionsort64@GLIBC_2.2.5                         /lib/x86_64-linux-gnu/libc.so.6
vfork                                             /lib/x86_64-linux-gnu/libc.so.6
vfork@@GLIBC_2.2.5                                /lib/x86_64-linux-gnu/libc.so.6
vfork@GLIBC_2.2.5                                 /lib/x86_64-linux-gnu/libc.so.6
vfscanf                                           /lib/x86_64-linux-gnu/libc.so.6
vfscanf@@GLIBC_2.2.5                              /lib/x86_64-linux-gnu/libc.so.6
vfscanf@GLIBC_2.2.5                               /lib/x86_64-linux-gnu/libc.so.6
vfwprintf                                         /lib/x86_64-linux-gnu/libc.so.6
vfwprintf@@GLIBC_2.2.5                            /lib/x86_64-linux-gnu/libc.so.6
vfwprintf@GLIBC_2.2.5                             /lib/x86_64-linux-gnu/libc.so.6
vfwscanf                                          /lib/x86_64-linux-gnu/libc.so.6
vfwscanf@@GLIBC_2.2.5                             /lib/x86_64-linux-gnu/libc.so.6
vfwscanf@GLIBC_2.2.5                              /lib/x86_64-linux-gnu/libc.so.6
vscanf                                            /lib/x86_64-linux-gnu/libc.so.6
vscanf@@GLIBC_2.2.5                               /lib/x86_64-linux-gnu/libc.so.6
vscanf@GLIBC_2.2.5                                /lib/x86_64-linux-gnu/libc.so.6
vsnprintf                                         /lib/x86_64-linux-gnu/libc.so.6
vsnprintf@@GLIBC_2.2.5                            /lib/x86_64-linux-gnu/libc.so.6
vsnprintf@GLIBC_2.2.5                             /lib/x86_64-linux-gnu/libc.so.6
vsprintf                                          /lib/x86_64-linux-gnu/libc.so.6
vsprintf@@GLIBC_2.2.5                             /lib/x86_64-linux-gnu/libc.so.6
vsprintf@GLIBC_2.2.5                              /lib/x86_64-linux-gnu/libc.so.6
vsscanf                                           /lib/x86_64-linux-gnu/libc.so.6
vsscanf@@GLIBC_2.2.5                              /lib/x86_64-linux-gnu/libc.so.6
vsscanf@GLIBC_2.2.5                               /lib/x86_64-linux-gnu/libc.so.6
vstr_add_byte                                     build/py/vstr.o
                                                  build/py/../extmod/modujson.o
                                                  build/py/objstr.o
                                                  build/py/lexer.o
vstr_add_char                                     build/py/vstr.o
                                                  build/py/../extmod/modujson.o
                                                  build/py/builtinimport.o
                                                  build/py/objstr.o
                                                  build/py/lexer.o
vstr_add_len                                      build/py/vstr.o
                                                  build/py/stream.o
                                                  build/py/objstringio.o
vstr_add_str                                      build/py/vstr.o
                                                  build/py/builtinimport.o
vstr_add_strn                                     build/py/vstr.o
                                                  build/py/pfenv.o
                                                  build/py/builtinimport.o
vstr_clear                                        build/py/vstr.o
                                                  build/py/../extmod/modujson.o
                                                  build/py/stream.o
                                                  build/py/objstr.o
                                                  build/py/lexer.o
vstr_cut_head_bytes                               build/py/vstr.o
vstr_cut_out_bytes                                build/py/vstr.o
vstr_cut_tail_bytes                               build/py/vstr.o
                                                  build/py/builtinimport.o
                                                  build/py/stream.o
                                                  build/py/lexer.o
vstr_extend                                       build/py/vstr.o
                                                  build/py/stream.o
vstr_free                                         build/py/vstr.o
                                                  build/py/objstringio.o
                                                  build/py/objstr.o
vstr_had_error                                    build/py/vstr.o
                                                  build/py/lexer.o
vstr_hint_size                                    build/py/vstr.o
vstr_init                                         build/py/vstr.o
                                                  build/py/../extmod/modujson.o
                                                  build/py/modbuiltins.o
                                                  build/py/stream.o
                                                  build/py/objstr.o
                                                  build/py/objexcept.o
                                                  build/py/lexer.o
vstr_init_fixed_buf                               build/py/vstr.o
                                                  build/py/builtinimport.o
vstr_init_len                                     build/py/vstr.o
                                                  build/py/../extmod/modubinascii.o
                                                  build/py/../extmod/moduhashlib.o
                                                  build/py/modstruct.o
                                                  build/py/stream.o
                                                  build/py/objstr.o
                                                  build/py/objint.o
                                                  build/py/compile.o
vstr_ins_byte                                     build/py/vstr.o
vstr_ins_char                                     build/py/vstr.o
vstr_len                                          build/py/vstr.o
                                                  build/py/builtinimport.o
vstr_new                                          build/py/vstr.o
                                                  build/py/objstringio.o
                                                  build/py/objstr.o
vstr_new_size                                     build/py/vstr.o
vstr_null_terminated_str                          build/py/vstr.o
                                                  build/py/builtinimport.o
                                                  build/py/objstr.o
vstr_printf                                       build/py/vstr.o
                                                  build/py/../extmod/modujson.o
                                                  build/py/modbuiltins.o
                                                  build/py/objstr.o
vstr_reset                                        build/py/vstr.o
                                                  build/py/../extmod/modujson.o
                                                  build/py/builtinimport.o
                                                  build/py/lexer.o
vstr_str                                          build/py/vstr.o
                                                  build/py/builtinimport.o
vstr_vprintf                                      build/py/vstr.o
                                                  build/py/objexcept.o
vswprintf                                         /lib/x86_64-linux-gnu/libc.so.6
vswprintf@@GLIBC_2.2.5                            /lib/x86_64-linux-gnu/libc.so.6
vswprintf@GLIBC_2.2.5                             /lib/x86_64-linux-gnu/libc.so.6
wait                                              /lib/x86_64-linux-gnu/libc.so.6
wait3                                             /lib/x86_64-linux-gnu/libc.so.6
wait3@@GLIBC_2.2.5                                /lib/x86_64-linux-gnu/libc.so.6
wait3@GLIBC_2.2.5                                 /lib/x86_64-linux-gnu/libc.so.6
wait4                                             /lib/x86_64-linux-gnu/libc.so.6
wait4@@GLIBC_2.2.5                                /lib/x86_64-linux-gnu/libc.so.6
wait4@GLIBC_2.2.5                                 /lib/x86_64-linux-gnu/libc.so.6
wait@@GLIBC_2.2.5                                 /lib/x86_64-linux-gnu/libc.so.6
wait@GLIBC_2.2.5                                  /lib/x86_64-linux-gnu/libc.so.6
waitid                                            /lib/x86_64-linux-gnu/libc.so.6
waitid@@GLIBC_2.2.5                               /lib/x86_64-linux-gnu/libc.so.6
waitid@GLIBC_2.2.5                                /lib/x86_64-linux-gnu/libc.so.6
waitpid                                           /lib/x86_64-linux-gnu/libc.so.6
waitpid@@GLIBC_2.2.5                              /lib/x86_64-linux-gnu/libc.so.6
waitpid@GLIBC_2.2.5                               /lib/x86_64-linux-gnu/libc.so.6
wcpcpy                                            /lib/x86_64-linux-gnu/libc.so.6
wcpcpy@@GLIBC_2.2.5                               /lib/x86_64-linux-gnu/libc.so.6
wcpcpy@GLIBC_2.2.5                                /lib/x86_64-linux-gnu/libc.so.6
wcpncpy                                           /lib/x86_64-linux-gnu/libc.so.6
wcpncpy@@GLIBC_2.2.5                              /lib/x86_64-linux-gnu/libc.so.6
wcpncpy@GLIBC_2.2.5                               /lib/x86_64-linux-gnu/libc.so.6
wcrtomb                                           /lib/x86_64-linux-gnu/libc.so.6
wcrtomb@@GLIBC_2.2.5                              /lib/x86_64-linux-gnu/libc.so.6
wcrtomb@GLIBC_2.2.5                               /lib/x86_64-linux-gnu/libc.so.6
                                                  /usr/lib/gcc/x86_64-linux-gnu/4.8/../../../x86_64-linux-gnu/libreadline.so
wcscasecmp                                        /lib/x86_64-linux-gnu/libc.so.6
wcscasecmp@@GLIBC_2.2.5                           /lib/x86_64-linux-gnu/libc.so.6
wcscasecmp@GLIBC_2.2.5                            /lib/x86_64-linux-gnu/libc.so.6
wcscasecmp_l                                      /lib/x86_64-linux-gnu/libc.so.6
wcscasecmp_l@@GLIBC_2.3                           /lib/x86_64-linux-gnu/libc.so.6
wcscasecmp_l@GLIBC_2.3                            /lib/x86_64-linux-gnu/libc.so.6
wcscat                                            /lib/x86_64-linux-gnu/libc.so.6
wcscat@@GLIBC_2.2.5                               /lib/x86_64-linux-gnu/libc.so.6
wcscat@GLIBC_2.2.5                                /lib/x86_64-linux-gnu/libc.so.6
wcschrnul                                         /lib/x86_64-linux-gnu/libc.so.6
wcschrnul@@GLIBC_2.2.5                            /lib/x86_64-linux-gnu/libc.so.6
wcschrnul@GLIBC_2.2.5                             /lib/x86_64-linux-gnu/libc.so.6
wcscoll                                           /lib/x86_64-linux-gnu/libc.so.6
wcscoll@@GLIBC_2.2.5                              /lib/x86_64-linux-gnu/libc.so.6
wcscoll@GLIBC_2.2.5                               /lib/x86_64-linux-gnu/libc.so.6
wcscoll_l                                         /lib/x86_64-linux-gnu/libc.so.6
wcscoll_l@@GLIBC_2.3                              /lib/x86_64-linux-gnu/libc.so.6
wcscoll_l@GLIBC_2.3                               /lib/x86_64-linux-gnu/libc.so.6
wcsftime_l                                        /lib/x86_64-linux-gnu/libc.so.6
wcsftime_l@@GLIBC_2.3                             /lib/x86_64-linux-gnu/libc.so.6
wcsftime_l@GLIBC_2.3                              /lib/x86_64-linux-gnu/libc.so.6
wcslen                                            /lib/x86_64-linux-gnu/libc.so.6
wcslen@@GLIBC_2.2.5                               /lib/x86_64-linux-gnu/libc.so.6
wcslen@GLIBC_2.2.5                                /lib/x86_64-linux-gnu/libc.so.6
wcsncasecmp                                       /lib/x86_64-linux-gnu/libc.so.6
wcsncasecmp@@GLIBC_2.2.5                          /lib/x86_64-linux-gnu/libc.so.6
wcsncasecmp@GLIBC_2.2.5                           /lib/x86_64-linux-gnu/libc.so.6
wcsncasecmp_l                                     /lib/x86_64-linux-gnu/libc.so.6
wcsncasecmp_l@@GLIBC_2.3                          /lib/x86_64-linux-gnu/libc.so.6
wcsncasecmp_l@GLIBC_2.3                           /lib/x86_64-linux-gnu/libc.so.6
wcsncpy                                           /lib/x86_64-linux-gnu/libc.so.6
wcsncpy@@GLIBC_2.2.5                              /lib/x86_64-linux-gnu/libc.so.6
wcsncpy@GLIBC_2.2.5                               /lib/x86_64-linux-gnu/libc.so.6
wcsnlen                                           /lib/x86_64-linux-gnu/libc.so.6
wcsnlen@@GLIBC_2.2.5                              /lib/x86_64-linux-gnu/libc.so.6
wcsnlen@GLIBC_2.2.5                               /lib/x86_64-linux-gnu/libc.so.6
wcsnrtombs                                        /lib/x86_64-linux-gnu/libc.so.6
wcsnrtombs@@GLIBC_2.2.5                           /lib/x86_64-linux-gnu/libc.so.6
wcsnrtombs@GLIBC_2.2.5                            /lib/x86_64-linux-gnu/libc.so.6
wcsrtombs                                         /lib/x86_64-linux-gnu/libc.so.6
wcsrtombs@@GLIBC_2.2.5                            /lib/x86_64-linux-gnu/libc.so.6
wcsrtombs@GLIBC_2.2.5                             /lib/x86_64-linux-gnu/libc.so.6
wcstod_l                                          /lib/x86_64-linux-gnu/libc.so.6
wcstod_l@@GLIBC_2.3                               /lib/x86_64-linux-gnu/libc.so.6
wcstod_l@GLIBC_2.3                                /lib/x86_64-linux-gnu/libc.so.6
wcstof_l                                          /lib/x86_64-linux-gnu/libc.so.6
wcstof_l@@GLIBC_2.3                               /lib/x86_64-linux-gnu/libc.so.6
wcstof_l@GLIBC_2.3                                /lib/x86_64-linux-gnu/libc.so.6
wcstol_l                                          /lib/x86_64-linux-gnu/libc.so.6
wcstol_l@@GLIBC_2.3                               /lib/x86_64-linux-gnu/libc.so.6
wcstol_l@GLIBC_2.3                                /lib/x86_64-linux-gnu/libc.so.6
wcstold_l                                         /lib/x86_64-linux-gnu/libc.so.6
wcstold_l@@GLIBC_2.3                              /lib/x86_64-linux-gnu/libc.so.6
wcstold_l@GLIBC_2.3                               /lib/x86_64-linux-gnu/libc.so.6
wcstoll                                           /lib/x86_64-linux-gnu/libc.so.6
wcstoll@@GLIBC_2.2.5                              /lib/x86_64-linux-gnu/libc.so.6
wcstoll@GLIBC_2.2.5                               /lib/x86_64-linux-gnu/libc.so.6
wcstoll_l                                         /lib/x86_64-linux-gnu/libc.so.6
wcstoll_l@@GLIBC_2.3                              /lib/x86_64-linux-gnu/libc.so.6
wcstoll_l@GLIBC_2.3                               /lib/x86_64-linux-gnu/libc.so.6
wcstoq                                            /lib/x86_64-linux-gnu/libc.so.6
wcstoq@@GLIBC_2.2.5                               /lib/x86_64-linux-gnu/libc.so.6
wcstoq@GLIBC_2.2.5                                /lib/x86_64-linux-gnu/libc.so.6
wcstoul_l                                         /lib/x86_64-linux-gnu/libc.so.6
wcstoul_l@@GLIBC_2.3                              /lib/x86_64-linux-gnu/libc.so.6
wcstoul_l@GLIBC_2.3                               /lib/x86_64-linux-gnu/libc.so.6
wcstoull                                          /lib/x86_64-linux-gnu/libc.so.6
wcstoull@@GLIBC_2.2.5                             /lib/x86_64-linux-gnu/libc.so.6
wcstoull@GLIBC_2.2.5                              /lib/x86_64-linux-gnu/libc.so.6
wcstoull_l                                        /lib/x86_64-linux-gnu/libc.so.6
wcstoull_l@@GLIBC_2.3                             /lib/x86_64-linux-gnu/libc.so.6
wcstoull_l@GLIBC_2.3                              /lib/x86_64-linux-gnu/libc.so.6
wcstouq                                           /lib/x86_64-linux-gnu/libc.so.6
wcstouq@@GLIBC_2.2.5                              /lib/x86_64-linux-gnu/libc.so.6
wcstouq@GLIBC_2.2.5                               /lib/x86_64-linux-gnu/libc.so.6
wcswcs                                            /lib/x86_64-linux-gnu/libc.so.6
wcswcs@@GLIBC_2.2.5                               /lib/x86_64-linux-gnu/libc.so.6
wcswcs@GLIBC_2.2.5                                /lib/x86_64-linux-gnu/libc.so.6
wcsxfrm_l                                         /lib/x86_64-linux-gnu/libc.so.6
wcsxfrm_l@@GLIBC_2.3                              /lib/x86_64-linux-gnu/libc.so.6
wcsxfrm_l@GLIBC_2.3                               /lib/x86_64-linux-gnu/libc.so.6
wctrans                                           /lib/x86_64-linux-gnu/libc.so.6
wctrans@@GLIBC_2.2.5                              /lib/x86_64-linux-gnu/libc.so.6
wctrans@GLIBC_2.2.5                               /lib/x86_64-linux-gnu/libc.so.6
wctrans_l                                         /lib/x86_64-linux-gnu/libc.so.6
wctrans_l@@GLIBC_2.3                              /lib/x86_64-linux-gnu/libc.so.6
wctrans_l@GLIBC_2.3                               /lib/x86_64-linux-gnu/libc.so.6
wctype                                            /lib/x86_64-linux-gnu/libc.so.6
wctype@@GLIBC_2.2.5                               /lib/x86_64-linux-gnu/libc.so.6
wctype@GLIBC_2.2.5                                /lib/x86_64-linux-gnu/libc.so.6
wctype_l                                          /lib/x86_64-linux-gnu/libc.so.6
wctype_l@@GLIBC_2.3                               /lib/x86_64-linux-gnu/libc.so.6
wctype_l@GLIBC_2.3                                /lib/x86_64-linux-gnu/libc.so.6
wmemcpy                                           /lib/x86_64-linux-gnu/libc.so.6
wmemcpy@@GLIBC_2.2.5                              /lib/x86_64-linux-gnu/libc.so.6
wmemcpy@GLIBC_2.2.5                               /lib/x86_64-linux-gnu/libc.so.6
wmemmove                                          /lib/x86_64-linux-gnu/libc.so.6
wmemmove@@GLIBC_2.2.5                             /lib/x86_64-linux-gnu/libc.so.6
wmemmove@GLIBC_2.2.5                              /lib/x86_64-linux-gnu/libc.so.6
wmempcpy                                          /lib/x86_64-linux-gnu/libc.so.6
wmempcpy@@GLIBC_2.2.5                             /lib/x86_64-linux-gnu/libc.so.6
wmempcpy@GLIBC_2.2.5                              /lib/x86_64-linux-gnu/libc.so.6
write                                             /lib/x86_64-linux-gnu/libc.so.6
                                                  build/modsocket.o
                                                  build/file.o
write@@GLIBC_2.2.5                                /lib/x86_64-linux-gnu/libc.so.6
write@GLIBC_2.2.5                                 /lib/x86_64-linux-gnu/libc.so.6
                                                  //lib/x86_64-linux-gnu/libtinfo.so.5
                                                  /usr/lib/gcc/x86_64-linux-gnu/4.8/../../../x86_64-linux-gnu/libreadline.so
writev                                            /lib/x86_64-linux-gnu/libc.so.6
writev@@GLIBC_2.2.5                               /lib/x86_64-linux-gnu/libc.so.6
writev@GLIBC_2.2.5                                /lib/x86_64-linux-gnu/libc.so.6
y0l                                               /usr/lib/gcc/x86_64-linux-gnu/4.8/../../../x86_64-linux-gnu/libm.so
y0l@@GLIBC_2.2.5                                  /usr/lib/gcc/x86_64-linux-gnu/4.8/../../../x86_64-linux-gnu/libm.so
y0l@GLIBC_2.2.5                                   /usr/lib/gcc/x86_64-linux-gnu/4.8/../../../x86_64-linux-gnu/libm.so
y1l                                               /usr/lib/gcc/x86_64-linux-gnu/4.8/../../../x86_64-linux-gnu/libm.so
y1l@@GLIBC_2.2.5                                  /usr/lib/gcc/x86_64-linux-gnu/4.8/../../../x86_64-linux-gnu/libm.so
y1l@GLIBC_2.2.5                                   /usr/lib/gcc/x86_64-linux-gnu/4.8/../../../x86_64-linux-gnu/libm.so
ynl                                               /usr/lib/gcc/x86_64-linux-gnu/4.8/../../../x86_64-linux-gnu/libm.so
ynl@@GLIBC_2.2.5                                  /usr/lib/gcc/x86_64-linux-gnu/4.8/../../../x86_64-linux-gnu/libm.so
ynl@GLIBC_2.2.5                                   /usr/lib/gcc/x86_64-linux-gnu/4.8/../../../x86_64-linux-gnu/libm.so
